	.text
	.syntax unified
	.eabi_attribute	67, "2.09"	@ Tag_conformance
	.cpu	cortex-m0plus
	.eabi_attribute	6, 12	@ Tag_CPU_arch
	.eabi_attribute	7, 77	@ Tag_CPU_arch_profile
	.eabi_attribute	8, 0	@ Tag_ARM_ISA_use
	.eabi_attribute	9, 1	@ Tag_THUMB_ISA_use
	.eabi_attribute	34, 0	@ Tag_CPU_unaligned_access
	.eabi_attribute	17, 1	@ Tag_ABI_PCS_GOT_use
	.eabi_attribute	20, 2	@ Tag_ABI_FP_denormal
	.eabi_attribute	21, 0	@ Tag_ABI_FP_exceptions
	.eabi_attribute	23, 1	@ Tag_ABI_FP_number_model
	.eabi_attribute	24, 1	@ Tag_ABI_align_needed
	.eabi_attribute	25, 1	@ Tag_ABI_align_preserved
	.eabi_attribute	38, 1	@ Tag_ABI_FP_16bit_format
	.eabi_attribute	18, 2	@ Tag_ABI_PCS_wchar_t
	.eabi_attribute	26, 1	@ Tag_ABI_enum_size
	.eabi_attribute	14, 0	@ Tag_ABI_PCS_R9_use
	.file	"stm32l0xx_hal_tim.c"
	.file	1 "C:\\Users\\ignas\\Downloads\\V2\\V2\\MDK-ARM" "../Drivers/STM32L0xx_HAL_Driver/Inc/stm32l0xx_hal_def.h"
	.file	2 "C:\\Users\\ignas\\Downloads\\V2\\V2\\MDK-ARM" "../Drivers/STM32L0xx_HAL_Driver/Inc\\stm32l0xx_hal_tim.h"
	.file	3 "C:\\Users\\ignas\\Downloads\\V2\\V2\\MDK-ARM" "../Drivers/STM32L0xx_HAL_Driver/Inc\\stm32l0xx_hal_dma.h"
	.file	4 "C:\\Users\\ignas\\Downloads\\V2\\V2\\MDK-ARM" "../Drivers/CMSIS/Device/ST/STM32L0xx/Include\\stm32l0xx.h"
	.file	5 "C:\\Keil_v5\\ARM\\ARMCLANG\\Bin\\..\\include" "stdint.h"
	.file	6 "C:\\Users\\ignas\\Downloads\\V2\\V2\\MDK-ARM" "../Drivers/CMSIS/Device/ST/STM32L0xx/Include/stm32l073xx.h"
	.section	.text.HAL_TIM_Base_Init,"ax",%progbits
	.hidden	HAL_TIM_Base_Init               @ -- Begin function HAL_TIM_Base_Init
	.globl	HAL_TIM_Base_Init
	.p2align	1
	.type	HAL_TIM_Base_Init,%function
	.code	16                              @ @HAL_TIM_Base_Init
	.thumb_func
HAL_TIM_Base_Init:
.Lfunc_begin0:
	.file	7 "C:\\Users\\ignas\\Downloads\\V2\\V2\\MDK-ARM" "../Drivers/STM32L0xx_HAL_Driver/Src/stm32l0xx_hal_tim.c"
	.loc	7 270 0                         @ ../Drivers/STM32L0xx_HAL_Driver/Src/stm32l0xx_hal_tim.c:270:0
	.fnstart
	.cfi_sections .debug_frame
	.cfi_startproc
@ %bb.0:
	@DEBUG_VALUE: HAL_TIM_Base_Init:htim <- $r0
	@DEBUG_VALUE: HAL_TIM_Base_Init:htim <- $r0
	.save	{r4, r5, r6, lr}
	push	{r4, r5, r6, lr}
	.cfi_def_cfa_offset 16
	.cfi_offset lr, -4
	.cfi_offset r6, -8
	.cfi_offset r5, -12
	.cfi_offset r4, -16
.Ltmp0:
	.loc	7 272 7 prologue_end            @ ../Drivers/STM32L0xx_HAL_Driver/Src/stm32l0xx_hal_tim.c:272:7
	cmp	r0, #0
	beq	.LBB0_4
.Ltmp1:
@ %bb.1:
	@DEBUG_VALUE: HAL_TIM_Base_Init:htim <- $r0
	.loc	7 0 7 is_stmt 0                 @ ../Drivers/STM32L0xx_HAL_Driver/Src/stm32l0xx_hal_tim.c:0:7
	mov	r4, r0
.Ltmp2:
	@DEBUG_VALUE: HAL_TIM_Base_Init:htim <- $r4
	mov	r5, r0
	adds	r5, #56
	mov	r6, r0
	adds	r6, #58
.Ltmp3:
	.loc	7 285 13 is_stmt 1              @ ../Drivers/STM32L0xx_HAL_Driver/Src/stm32l0xx_hal_tim.c:285:13
	ldrb	r0, [r5, #1]
.Ltmp4:
	.loc	7 285 7 is_stmt 0               @ ../Drivers/STM32L0xx_HAL_Driver/Src/stm32l0xx_hal_tim.c:285:7
	cmp	r0, #0
	bne	.LBB0_3
.Ltmp5:
@ %bb.2:
	@DEBUG_VALUE: HAL_TIM_Base_Init:htim <- $r4
	.loc	7 0 7                           @ ../Drivers/STM32L0xx_HAL_Driver/Src/stm32l0xx_hal_tim.c:0:7
	movs	r0, #0
.Ltmp6:
	.loc	7 288 16 is_stmt 1              @ ../Drivers/STM32L0xx_HAL_Driver/Src/stm32l0xx_hal_tim.c:288:16
	strb	r0, [r5]
	.loc	7 302 5                         @ ../Drivers/STM32L0xx_HAL_Driver/Src/stm32l0xx_hal_tim.c:302:5
	mov	r0, r4
	bl	HAL_TIM_Base_MspInit
.Ltmp7:
.LBB0_3:
	@DEBUG_VALUE: HAL_TIM_Base_Init:htim <- $r4
	.loc	7 0 5 is_stmt 0                 @ ../Drivers/STM32L0xx_HAL_Driver/Src/stm32l0xx_hal_tim.c:0:5
	movs	r0, #2
	.loc	7 307 15 is_stmt 1              @ ../Drivers/STM32L0xx_HAL_Driver/Src/stm32l0xx_hal_tim.c:307:15
	strb	r0, [r5, #1]
	.loc	7 310 28                        @ ../Drivers/STM32L0xx_HAL_Driver/Src/stm32l0xx_hal_tim.c:310:28
	ldm	r4!, {r0}
.Ltmp8:
	@DEBUG_VALUE: HAL_TIM_Base_Init:htim <- [DW_OP_LLVM_entry_value 1] $r0
	.loc	7 310 3 is_stmt 0               @ ../Drivers/STM32L0xx_HAL_Driver/Src/stm32l0xx_hal_tim.c:310:3
	mov	r1, r4
	bl	TIM_Base_SetConfig
.Ltmp9:
	.loc	7 0 3                           @ ../Drivers/STM32L0xx_HAL_Driver/Src/stm32l0xx_hal_tim.c:0:3
	movs	r0, #1
	.loc	7 313 23 is_stmt 1              @ ../Drivers/STM32L0xx_HAL_Driver/Src/stm32l0xx_hal_tim.c:313:23
	strb	r0, [r6, #4]
.Ltmp10:
	.loc	7 316 3                         @ ../Drivers/STM32L0xx_HAL_Driver/Src/stm32l0xx_hal_tim.c:316:3
	strb	r0, [r6]
	strb	r0, [r6, #1]
	strb	r0, [r6, #2]
	strb	r0, [r6, #3]
.Ltmp11:
	.loc	7 319 15                        @ ../Drivers/STM32L0xx_HAL_Driver/Src/stm32l0xx_hal_tim.c:319:15
	strb	r0, [r5, #1]
	movs	r0, #0
	.loc	7 322 1                         @ ../Drivers/STM32L0xx_HAL_Driver/Src/stm32l0xx_hal_tim.c:322:1
	pop	{r4, r5, r6, pc}
.Ltmp12:
.LBB0_4:
	@DEBUG_VALUE: HAL_TIM_Base_Init:htim <- $r0
	.loc	7 0 1 is_stmt 0                 @ ../Drivers/STM32L0xx_HAL_Driver/Src/stm32l0xx_hal_tim.c:0:1
	movs	r0, #1
.Ltmp13:
	@DEBUG_VALUE: HAL_TIM_Base_Init:htim <- [DW_OP_LLVM_entry_value 1] $r0
	.loc	7 322 1                         @ ../Drivers/STM32L0xx_HAL_Driver/Src/stm32l0xx_hal_tim.c:322:1
	pop	{r4, r5, r6, pc}
.Ltmp14:
.Lfunc_end0:
	.size	HAL_TIM_Base_Init, .Lfunc_end0-HAL_TIM_Base_Init
	.cfi_endproc
	.cantunwind
	.fnend
                                        @ -- End function
	.section	.text.HAL_TIM_Base_MspInit,"ax",%progbits
	.hidden	HAL_TIM_Base_MspInit            @ -- Begin function HAL_TIM_Base_MspInit
	.weak	HAL_TIM_Base_MspInit
	.p2align	1
	.type	HAL_TIM_Base_MspInit,%function
	.code	16                              @ @HAL_TIM_Base_MspInit
	.thumb_func
HAL_TIM_Base_MspInit:
.Lfunc_begin1:
	.loc	7 372 0 is_stmt 1               @ ../Drivers/STM32L0xx_HAL_Driver/Src/stm32l0xx_hal_tim.c:372:0
	.fnstart
	.cfi_startproc
@ %bb.0:
	@DEBUG_VALUE: HAL_TIM_Base_MspInit:htim <- $r0
	.loc	7 379 1 prologue_end            @ ../Drivers/STM32L0xx_HAL_Driver/Src/stm32l0xx_hal_tim.c:379:1
	bx	lr
.Ltmp15:
.Lfunc_end1:
	.size	HAL_TIM_Base_MspInit, .Lfunc_end1-HAL_TIM_Base_MspInit
	.cfi_endproc
	.cantunwind
	.fnend
                                        @ -- End function
	.section	.text.TIM_Base_SetConfig,"ax",%progbits
	.p2align	2                               @ -- Begin function TIM_Base_SetConfig
	.type	TIM_Base_SetConfig,%function
	.code	16                              @ @TIM_Base_SetConfig
	.thumb_func
TIM_Base_SetConfig:
.Lfunc_begin2:
	.loc	7 6433 0                        @ ../Drivers/STM32L0xx_HAL_Driver/Src/stm32l0xx_hal_tim.c:6433:0
	.fnstart
	.cfi_startproc
@ %bb.0:
	@DEBUG_VALUE: TIM_Base_SetConfig:TIMx <- $r0
	@DEBUG_VALUE: TIM_Base_SetConfig:Structure <- $r1
	.save	{r4, lr}
	push	{r4, lr}
	.cfi_def_cfa_offset 8
	.cfi_offset lr, -4
	.cfi_offset r4, -8
.Ltmp16:
	.loc	7 6435 18 prologue_end          @ ../Drivers/STM32L0xx_HAL_Driver/Src/stm32l0xx_hal_tim.c:6435:18
	ldr	r4, [r0]
.Ltmp17:
	@DEBUG_VALUE: TIM_Base_SetConfig:tmpcr1 <- $r4
	.loc	7 0 18 is_stmt 0                @ ../Drivers/STM32L0xx_HAL_Driver/Src/stm32l0xx_hal_tim.c:0:18
	ldr	r3, __arm_cp.2_0
.Ltmp18:
	.loc	7 6438 7 is_stmt 1              @ ../Drivers/STM32L0xx_HAL_Driver/Src/stm32l0xx_hal_tim.c:6438:7
	cmp	r0, r3
	bgt	.LBB2_3
.Ltmp19:
@ %bb.1:
	@DEBUG_VALUE: TIM_Base_SetConfig:tmpcr1 <- $r4
	@DEBUG_VALUE: TIM_Base_SetConfig:Structure <- $r1
	@DEBUG_VALUE: TIM_Base_SetConfig:TIMx <- $r0
	.loc	7 0 7 is_stmt 0                 @ ../Drivers/STM32L0xx_HAL_Driver/Src/stm32l0xx_hal_tim.c:0:7
	movs	r2, #1
	lsls	r2, r2, #30
	.loc	7 6438 7                        @ ../Drivers/STM32L0xx_HAL_Driver/Src/stm32l0xx_hal_tim.c:6438:7
	cmp	r0, r2
	beq	.LBB2_6
.Ltmp20:
@ %bb.2:
	@DEBUG_VALUE: TIM_Base_SetConfig:tmpcr1 <- $r4
	@DEBUG_VALUE: TIM_Base_SetConfig:Structure <- $r1
	@DEBUG_VALUE: TIM_Base_SetConfig:TIMx <- $r0
	.loc	7 0 7                           @ ../Drivers/STM32L0xx_HAL_Driver/Src/stm32l0xx_hal_tim.c:0:7
	ldr	r2, __arm_cp.2_3
	b	.LBB2_5
.Ltmp21:
.LBB2_3:
	@DEBUG_VALUE: TIM_Base_SetConfig:tmpcr1 <- $r4
	@DEBUG_VALUE: TIM_Base_SetConfig:Structure <- $r1
	@DEBUG_VALUE: TIM_Base_SetConfig:TIMx <- $r0
	ldr	r2, __arm_cp.2_1
	.loc	7 6438 7                        @ ../Drivers/STM32L0xx_HAL_Driver/Src/stm32l0xx_hal_tim.c:6438:7
	cmp	r0, r2
	beq	.LBB2_6
.Ltmp22:
@ %bb.4:
	@DEBUG_VALUE: TIM_Base_SetConfig:tmpcr1 <- $r4
	@DEBUG_VALUE: TIM_Base_SetConfig:Structure <- $r1
	@DEBUG_VALUE: TIM_Base_SetConfig:TIMx <- $r0
	.loc	7 0 7                           @ ../Drivers/STM32L0xx_HAL_Driver/Src/stm32l0xx_hal_tim.c:0:7
	ldr	r2, __arm_cp.2_2
.Ltmp23:
.LBB2_5:
	@DEBUG_VALUE: TIM_Base_SetConfig:tmpcr1 <- $r4
	@DEBUG_VALUE: TIM_Base_SetConfig:Structure <- $r1
	@DEBUG_VALUE: TIM_Base_SetConfig:TIMx <- $r0
	.loc	7 6438 7                        @ ../Drivers/STM32L0xx_HAL_Driver/Src/stm32l0xx_hal_tim.c:6438:7
	cmp	r0, r2
	bne	.LBB2_7
.Ltmp24:
.LBB2_6:
	@DEBUG_VALUE: TIM_Base_SetConfig:tmpcr1 <- $r4
	@DEBUG_VALUE: TIM_Base_SetConfig:Structure <- $r1
	@DEBUG_VALUE: TIM_Base_SetConfig:TIMx <- $r0
	.loc	7 0 7                           @ ../Drivers/STM32L0xx_HAL_Driver/Src/stm32l0xx_hal_tim.c:0:7
	movs	r2, #112
.Ltmp25:
	.loc	7 6441 12 is_stmt 1             @ ../Drivers/STM32L0xx_HAL_Driver/Src/stm32l0xx_hal_tim.c:6441:12
	bics	r4, r2
.Ltmp26:
	@DEBUG_VALUE: TIM_Base_SetConfig:tmpcr1 <- $r4
	.loc	7 6442 26                       @ ../Drivers/STM32L0xx_HAL_Driver/Src/stm32l0xx_hal_tim.c:6442:26
	ldr	r2, [r1, #4]
	.loc	7 6442 12 is_stmt 0             @ ../Drivers/STM32L0xx_HAL_Driver/Src/stm32l0xx_hal_tim.c:6442:12
	orrs	r2, r4
.Ltmp27:
	@DEBUG_VALUE: TIM_Base_SetConfig:tmpcr1 <- $r2
	.loc	7 0 12                          @ ../Drivers/STM32L0xx_HAL_Driver/Src/stm32l0xx_hal_tim.c:0:12
	b	.LBB2_8
.Ltmp28:
.LBB2_7:
	@DEBUG_VALUE: TIM_Base_SetConfig:tmpcr1 <- $r4
	@DEBUG_VALUE: TIM_Base_SetConfig:Structure <- $r1
	@DEBUG_VALUE: TIM_Base_SetConfig:TIMx <- $r0
	mov	r2, r4
.Ltmp29:
.LBB2_8:
	@DEBUG_VALUE: TIM_Base_SetConfig:Structure <- $r1
	@DEBUG_VALUE: TIM_Base_SetConfig:TIMx <- $r0
	@DEBUG_VALUE: TIM_Base_SetConfig:tmpcr1 <- $r2
	.loc	7 6445 7 is_stmt 1              @ ../Drivers/STM32L0xx_HAL_Driver/Src/stm32l0xx_hal_tim.c:6445:7
	cmp	r0, r3
	bgt	.LBB2_11
.Ltmp30:
@ %bb.9:
	@DEBUG_VALUE: TIM_Base_SetConfig:tmpcr1 <- $r2
	@DEBUG_VALUE: TIM_Base_SetConfig:Structure <- $r1
	@DEBUG_VALUE: TIM_Base_SetConfig:TIMx <- $r0
	.loc	7 0 7 is_stmt 0                 @ ../Drivers/STM32L0xx_HAL_Driver/Src/stm32l0xx_hal_tim.c:0:7
	movs	r3, #1
	lsls	r3, r3, #30
	.loc	7 6445 7                        @ ../Drivers/STM32L0xx_HAL_Driver/Src/stm32l0xx_hal_tim.c:6445:7
	cmp	r0, r3
	beq	.LBB2_14
.Ltmp31:
@ %bb.10:
	@DEBUG_VALUE: TIM_Base_SetConfig:tmpcr1 <- $r2
	@DEBUG_VALUE: TIM_Base_SetConfig:Structure <- $r1
	@DEBUG_VALUE: TIM_Base_SetConfig:TIMx <- $r0
	.loc	7 0 7                           @ ../Drivers/STM32L0xx_HAL_Driver/Src/stm32l0xx_hal_tim.c:0:7
	ldr	r3, __arm_cp.2_3
	b	.LBB2_13
.Ltmp32:
.LBB2_11:
	@DEBUG_VALUE: TIM_Base_SetConfig:tmpcr1 <- $r2
	@DEBUG_VALUE: TIM_Base_SetConfig:Structure <- $r1
	@DEBUG_VALUE: TIM_Base_SetConfig:TIMx <- $r0
	ldr	r3, __arm_cp.2_1
	.loc	7 6445 7                        @ ../Drivers/STM32L0xx_HAL_Driver/Src/stm32l0xx_hal_tim.c:6445:7
	cmp	r0, r3
	beq	.LBB2_14
.Ltmp33:
@ %bb.12:
	@DEBUG_VALUE: TIM_Base_SetConfig:tmpcr1 <- $r2
	@DEBUG_VALUE: TIM_Base_SetConfig:Structure <- $r1
	@DEBUG_VALUE: TIM_Base_SetConfig:TIMx <- $r0
	.loc	7 0 7                           @ ../Drivers/STM32L0xx_HAL_Driver/Src/stm32l0xx_hal_tim.c:0:7
	ldr	r3, __arm_cp.2_2
.Ltmp34:
.LBB2_13:
	@DEBUG_VALUE: TIM_Base_SetConfig:tmpcr1 <- $r2
	@DEBUG_VALUE: TIM_Base_SetConfig:Structure <- $r1
	@DEBUG_VALUE: TIM_Base_SetConfig:TIMx <- $r0
	.loc	7 6445 7                        @ ../Drivers/STM32L0xx_HAL_Driver/Src/stm32l0xx_hal_tim.c:6445:7
	cmp	r0, r3
	bne	.LBB2_15
.Ltmp35:
.LBB2_14:
	@DEBUG_VALUE: TIM_Base_SetConfig:tmpcr1 <- $r2
	@DEBUG_VALUE: TIM_Base_SetConfig:Structure <- $r1
	@DEBUG_VALUE: TIM_Base_SetConfig:TIMx <- $r0
	.loc	7 0 7                           @ ../Drivers/STM32L0xx_HAL_Driver/Src/stm32l0xx_hal_tim.c:0:7
	movs	r3, #3
	lsls	r3, r3, #8
.Ltmp36:
	.loc	7 6448 12 is_stmt 1             @ ../Drivers/STM32L0xx_HAL_Driver/Src/stm32l0xx_hal_tim.c:6448:12
	bics	r2, r3
.Ltmp37:
	@DEBUG_VALUE: TIM_Base_SetConfig:tmpcr1 <- $r2
	.loc	7 6449 36                       @ ../Drivers/STM32L0xx_HAL_Driver/Src/stm32l0xx_hal_tim.c:6449:36
	ldr	r3, [r1, #12]
	.loc	7 6449 12 is_stmt 0             @ ../Drivers/STM32L0xx_HAL_Driver/Src/stm32l0xx_hal_tim.c:6449:12
	orrs	r3, r2
.Ltmp38:
	@DEBUG_VALUE: TIM_Base_SetConfig:tmpcr1 <- $r3
	.loc	7 0 12                          @ ../Drivers/STM32L0xx_HAL_Driver/Src/stm32l0xx_hal_tim.c:0:12
	b	.LBB2_16
.Ltmp39:
.LBB2_15:
	@DEBUG_VALUE: TIM_Base_SetConfig:tmpcr1 <- $r2
	@DEBUG_VALUE: TIM_Base_SetConfig:Structure <- $r1
	@DEBUG_VALUE: TIM_Base_SetConfig:TIMx <- $r0
	mov	r3, r2
.Ltmp40:
.LBB2_16:
	@DEBUG_VALUE: TIM_Base_SetConfig:Structure <- $r1
	@DEBUG_VALUE: TIM_Base_SetConfig:TIMx <- $r0
	@DEBUG_VALUE: TIM_Base_SetConfig:tmpcr1 <- $r3
	movs	r2, #128
	.loc	7 6453 3 is_stmt 1              @ ../Drivers/STM32L0xx_HAL_Driver/Src/stm32l0xx_hal_tim.c:6453:3
	bics	r3, r2
.Ltmp41:
	ldr	r2, [r1, #16]
	orrs	r2, r3
.Ltmp42:
	@DEBUG_VALUE: TIM_Base_SetConfig:tmpcr1 <- $r2
	.loc	7 6455 13                       @ ../Drivers/STM32L0xx_HAL_Driver/Src/stm32l0xx_hal_tim.c:6455:13
	str	r2, [r0]
	.loc	7 6458 36                       @ ../Drivers/STM32L0xx_HAL_Driver/Src/stm32l0xx_hal_tim.c:6458:36
	ldr	r2, [r1, #8]
.Ltmp43:
	.loc	7 6458 13 is_stmt 0             @ ../Drivers/STM32L0xx_HAL_Driver/Src/stm32l0xx_hal_tim.c:6458:13
	str	r2, [r0, #44]
	.loc	7 6461 26 is_stmt 1             @ ../Drivers/STM32L0xx_HAL_Driver/Src/stm32l0xx_hal_tim.c:6461:26
	ldr	r1, [r1]
.Ltmp44:
	@DEBUG_VALUE: TIM_Base_SetConfig:Structure <- [DW_OP_LLVM_entry_value 1] $r1
	.loc	7 6461 13 is_stmt 0             @ ../Drivers/STM32L0xx_HAL_Driver/Src/stm32l0xx_hal_tim.c:6461:13
	str	r1, [r0, #40]
	movs	r1, #1
	.loc	7 6465 13 is_stmt 1             @ ../Drivers/STM32L0xx_HAL_Driver/Src/stm32l0xx_hal_tim.c:6465:13
	str	r1, [r0, #20]
	.loc	7 6466 1                        @ ../Drivers/STM32L0xx_HAL_Driver/Src/stm32l0xx_hal_tim.c:6466:1
	pop	{r4, pc}
.Ltmp45:
	.p2align	2
@ %bb.17:
	.loc	7 0 1 is_stmt 0                 @ ../Drivers/STM32L0xx_HAL_Driver/Src/stm32l0xx_hal_tim.c:0:1
__arm_cp.2_0:
	.long	1073809407                      @ 0x400107ff
.Lcpi_end0:
	.size	__arm_cp.2_0, .Lcpi_end0-__arm_cp.2_0
__arm_cp.2_1:
	.long	1073812480                      @ 0x40011400
.Lcpi_end1:
	.size	__arm_cp.2_1, .Lcpi_end1-__arm_cp.2_1
__arm_cp.2_2:
	.long	1073809408                      @ 0x40010800
.Lcpi_end2:
	.size	__arm_cp.2_2, .Lcpi_end2-__arm_cp.2_2
__arm_cp.2_3:
	.long	1073742848                      @ 0x40000400
.Lcpi_end3:
	.size	__arm_cp.2_3, .Lcpi_end3-__arm_cp.2_3
.Lfunc_end2:
	.size	TIM_Base_SetConfig, .Lfunc_end2-TIM_Base_SetConfig
	.cfi_endproc
	.cantunwind
	.fnend
                                        @ -- End function
	.section	.text.HAL_TIM_Base_DeInit,"ax",%progbits
	.hidden	HAL_TIM_Base_DeInit             @ -- Begin function HAL_TIM_Base_DeInit
	.globl	HAL_TIM_Base_DeInit
	.p2align	2
	.type	HAL_TIM_Base_DeInit,%function
	.code	16                              @ @HAL_TIM_Base_DeInit
	.thumb_func
HAL_TIM_Base_DeInit:
.Lfunc_begin3:
	.loc	7 330 0 is_stmt 1               @ ../Drivers/STM32L0xx_HAL_Driver/Src/stm32l0xx_hal_tim.c:330:0
	.fnstart
	.cfi_startproc
@ %bb.0:
	@DEBUG_VALUE: HAL_TIM_Base_DeInit:htim <- $r0
	.save	{r4, r5, r7, lr}
	push	{r4, r5, r7, lr}
	.cfi_def_cfa_offset 16
	.cfi_offset lr, -4
	.cfi_offset r7, -8
	.cfi_offset r5, -12
	.cfi_offset r4, -16
.Ltmp46:
	.loc	7 0 0 is_stmt 0                 @ ../Drivers/STM32L0xx_HAL_Driver/Src/stm32l0xx_hal_tim.c:0:0
	mov	r4, r0
	adds	r4, #56
	movs	r1, #2
	.loc	7 334 15 prologue_end is_stmt 1 @ ../Drivers/STM32L0xx_HAL_Driver/Src/stm32l0xx_hal_tim.c:334:15
	strb	r1, [r4, #1]
	.loc	7 0 0 is_stmt 0                 @ ../Drivers/STM32L0xx_HAL_Driver/Src/stm32l0xx_hal_tim.c:0:0
	mov	r5, r0
	adds	r5, #58
.Ltmp47:
	.loc	7 337 3 is_stmt 1               @ ../Drivers/STM32L0xx_HAL_Driver/Src/stm32l0xx_hal_tim.c:337:3
	ldr	r1, [r0]
	ldr	r2, [r1, #32]
	ldr	r3, __arm_cp.3_0
.Ltmp48:
	.loc	7 337 3 is_stmt 0               @ ../Drivers/STM32L0xx_HAL_Driver/Src/stm32l0xx_hal_tim.c:337:3
	tst	r2, r3
	bne	.LBB3_2
.Ltmp49:
@ %bb.1:
	@DEBUG_VALUE: HAL_TIM_Base_DeInit:htim <- $r0
	.loc	7 337 3                         @ ../Drivers/STM32L0xx_HAL_Driver/Src/stm32l0xx_hal_tim.c:337:3
	ldr	r2, [r1]
	movs	r3, #1
	bics	r2, r3
	str	r2, [r1]
.Ltmp50:
.LBB3_2:
	@DEBUG_VALUE: HAL_TIM_Base_DeInit:htim <- $r0
	.loc	7 348 3 is_stmt 1               @ ../Drivers/STM32L0xx_HAL_Driver/Src/stm32l0xx_hal_tim.c:348:3
	bl	HAL_TIM_Base_MspDeInit
.Ltmp51:
	@DEBUG_VALUE: HAL_TIM_Base_DeInit:htim <- [DW_OP_LLVM_entry_value 1] $r0
	.loc	7 0 3 is_stmt 0                 @ ../Drivers/STM32L0xx_HAL_Driver/Src/stm32l0xx_hal_tim.c:0:3
	movs	r0, #0
	.loc	7 352 23 is_stmt 1              @ ../Drivers/STM32L0xx_HAL_Driver/Src/stm32l0xx_hal_tim.c:352:23
	strb	r0, [r5, #4]
.Ltmp52:
	.loc	7 355 3                         @ ../Drivers/STM32L0xx_HAL_Driver/Src/stm32l0xx_hal_tim.c:355:3
	strb	r0, [r5]
	strb	r0, [r5, #1]
	strb	r0, [r5, #2]
	strb	r0, [r5, #3]
.Ltmp53:
	.loc	7 361 3                         @ ../Drivers/STM32L0xx_HAL_Driver/Src/stm32l0xx_hal_tim.c:361:3
	strb	r0, [r4]
.Ltmp54:
	.loc	7 358 15                        @ ../Drivers/STM32L0xx_HAL_Driver/Src/stm32l0xx_hal_tim.c:358:15
	strb	r0, [r4, #1]
	.loc	7 363 3                         @ ../Drivers/STM32L0xx_HAL_Driver/Src/stm32l0xx_hal_tim.c:363:3
	pop	{r4, r5, r7, pc}
.Ltmp55:
	.p2align	2
@ %bb.3:
	.loc	7 0 3 is_stmt 0                 @ ../Drivers/STM32L0xx_HAL_Driver/Src/stm32l0xx_hal_tim.c:0:3
__arm_cp.3_0:
	.long	4369                            @ 0x1111
.Lcpi_end4:
	.size	__arm_cp.3_0, .Lcpi_end4-__arm_cp.3_0
.Lfunc_end3:
	.size	HAL_TIM_Base_DeInit, .Lfunc_end3-HAL_TIM_Base_DeInit
	.cfi_endproc
	.cantunwind
	.fnend
                                        @ -- End function
	.section	.text.HAL_TIM_Base_MspDeInit,"ax",%progbits
	.hidden	HAL_TIM_Base_MspDeInit          @ -- Begin function HAL_TIM_Base_MspDeInit
	.weak	HAL_TIM_Base_MspDeInit
	.p2align	1
	.type	HAL_TIM_Base_MspDeInit,%function
	.code	16                              @ @HAL_TIM_Base_MspDeInit
	.thumb_func
HAL_TIM_Base_MspDeInit:
.Lfunc_begin4:
	.loc	7 387 0 is_stmt 1               @ ../Drivers/STM32L0xx_HAL_Driver/Src/stm32l0xx_hal_tim.c:387:0
	.fnstart
	.cfi_startproc
@ %bb.0:
	@DEBUG_VALUE: HAL_TIM_Base_MspDeInit:htim <- $r0
	.loc	7 394 1 prologue_end            @ ../Drivers/STM32L0xx_HAL_Driver/Src/stm32l0xx_hal_tim.c:394:1
	bx	lr
.Ltmp56:
.Lfunc_end4:
	.size	HAL_TIM_Base_MspDeInit, .Lfunc_end4-HAL_TIM_Base_MspDeInit
	.cfi_endproc
	.cantunwind
	.fnend
                                        @ -- End function
	.section	.text.HAL_TIM_Base_Start,"ax",%progbits
	.hidden	HAL_TIM_Base_Start              @ -- Begin function HAL_TIM_Base_Start
	.globl	HAL_TIM_Base_Start
	.p2align	2
	.type	HAL_TIM_Base_Start,%function
	.code	16                              @ @HAL_TIM_Base_Start
	.thumb_func
HAL_TIM_Base_Start:
.Lfunc_begin5:
	.loc	7 403 0                         @ ../Drivers/STM32L0xx_HAL_Driver/Src/stm32l0xx_hal_tim.c:403:0
	.fnstart
	.cfi_startproc
@ %bb.0:
	@DEBUG_VALUE: HAL_TIM_Base_Start:htim <- $r0
	movs	r1, #57
.Ltmp57:
	.loc	7 410 13 prologue_end           @ ../Drivers/STM32L0xx_HAL_Driver/Src/stm32l0xx_hal_tim.c:410:13
	ldrb	r1, [r0, r1]
.Ltmp58:
	.loc	7 410 7 is_stmt 0               @ ../Drivers/STM32L0xx_HAL_Driver/Src/stm32l0xx_hal_tim.c:410:7
	cmp	r1, #1
	bne	.LBB5_4
.Ltmp59:
@ %bb.1:
	@DEBUG_VALUE: HAL_TIM_Base_Start:htim <- $r0
	.loc	7 0 7                           @ ../Drivers/STM32L0xx_HAL_Driver/Src/stm32l0xx_hal_tim.c:0:7
	mov	r1, r0
	adds	r1, #57
	movs	r2, #2
	.loc	7 416 15 is_stmt 1              @ ../Drivers/STM32L0xx_HAL_Driver/Src/stm32l0xx_hal_tim.c:416:15
	strb	r2, [r1]
.Ltmp60:
	.loc	7 419 7                         @ ../Drivers/STM32L0xx_HAL_Driver/Src/stm32l0xx_hal_tim.c:419:7
	ldr	r0, [r0]
.Ltmp61:
	@DEBUG_VALUE: HAL_TIM_Base_Start:htim <- [DW_OP_LLVM_entry_value 1] $r0
	.loc	7 0 7 is_stmt 0                 @ ../Drivers/STM32L0xx_HAL_Driver/Src/stm32l0xx_hal_tim.c:0:7
	ldr	r1, __arm_cp.5_0
	.loc	7 419 7                         @ ../Drivers/STM32L0xx_HAL_Driver/Src/stm32l0xx_hal_tim.c:419:7
	cmp	r0, r1
	bgt	.LBB5_5
.Ltmp62:
@ %bb.2:
	@DEBUG_VALUE: HAL_TIM_Base_Start:htim <- [DW_OP_LLVM_entry_value 1] $r0
	.loc	7 0 7                           @ ../Drivers/STM32L0xx_HAL_Driver/Src/stm32l0xx_hal_tim.c:0:7
	movs	r1, #1
	lsls	r1, r1, #30
	.loc	7 419 7                         @ ../Drivers/STM32L0xx_HAL_Driver/Src/stm32l0xx_hal_tim.c:419:7
	cmp	r0, r1
	beq	.LBB5_8
.Ltmp63:
@ %bb.3:
	@DEBUG_VALUE: HAL_TIM_Base_Start:htim <- [DW_OP_LLVM_entry_value 1] $r0
	.loc	7 0 7                           @ ../Drivers/STM32L0xx_HAL_Driver/Src/stm32l0xx_hal_tim.c:0:7
	ldr	r1, __arm_cp.5_3
	b	.LBB5_7
.Ltmp64:
.LBB5_4:
	@DEBUG_VALUE: HAL_TIM_Base_Start:htim <- $r0
	movs	r0, #1
.Ltmp65:
	@DEBUG_VALUE: HAL_TIM_Base_Start:htim <- [DW_OP_LLVM_entry_value 1] $r0
	.loc	7 434 1 is_stmt 1               @ ../Drivers/STM32L0xx_HAL_Driver/Src/stm32l0xx_hal_tim.c:434:1
	bx	lr
.Ltmp66:
.LBB5_5:
	@DEBUG_VALUE: HAL_TIM_Base_Start:htim <- [DW_OP_LLVM_entry_value 1] $r0
	.loc	7 0 1 is_stmt 0                 @ ../Drivers/STM32L0xx_HAL_Driver/Src/stm32l0xx_hal_tim.c:0:1
	ldr	r1, __arm_cp.5_1
.Ltmp67:
	.loc	7 419 7 is_stmt 1               @ ../Drivers/STM32L0xx_HAL_Driver/Src/stm32l0xx_hal_tim.c:419:7
	cmp	r0, r1
	beq	.LBB5_8
.Ltmp68:
@ %bb.6:
	@DEBUG_VALUE: HAL_TIM_Base_Start:htim <- [DW_OP_LLVM_entry_value 1] $r0
	.loc	7 0 7 is_stmt 0                 @ ../Drivers/STM32L0xx_HAL_Driver/Src/stm32l0xx_hal_tim.c:0:7
	ldr	r1, __arm_cp.5_2
.Ltmp69:
.LBB5_7:
	@DEBUG_VALUE: HAL_TIM_Base_Start:htim <- [DW_OP_LLVM_entry_value 1] $r0
	.loc	7 419 7                         @ ../Drivers/STM32L0xx_HAL_Driver/Src/stm32l0xx_hal_tim.c:419:7
	cmp	r0, r1
	bne	.LBB5_9
.Ltmp70:
.LBB5_8:
	@DEBUG_VALUE: HAL_TIM_Base_Start:htim <- [DW_OP_LLVM_entry_value 1] $r0
	.loc	7 421 31 is_stmt 1              @ ../Drivers/STM32L0xx_HAL_Driver/Src/stm32l0xx_hal_tim.c:421:31
	ldr	r1, [r0, #8]
	movs	r2, #7
	.loc	7 421 36 is_stmt 0              @ ../Drivers/STM32L0xx_HAL_Driver/Src/stm32l0xx_hal_tim.c:421:36
	ands	r2, r1
.Ltmp71:
	@DEBUG_VALUE: HAL_TIM_Base_Start:tmpsmcr <- $r2
	.loc	7 422 9 is_stmt 1               @ ../Drivers/STM32L0xx_HAL_Driver/Src/stm32l0xx_hal_tim.c:422:9
	cmp	r2, #6
	beq	.LBB5_10
.Ltmp72:
.LBB5_9:
	@DEBUG_VALUE: HAL_TIM_Base_Start:htim <- [DW_OP_LLVM_entry_value 1] $r0
	.loc	7 0 0 is_stmt 0                 @ ../Drivers/STM32L0xx_HAL_Driver/Src/stm32l0xx_hal_tim.c:0:0
	ldr	r1, [r0]
	movs	r2, #1
	orrs	r2, r1
	str	r2, [r0]
.Ltmp73:
.LBB5_10:
	@DEBUG_VALUE: HAL_TIM_Base_Start:htim <- [DW_OP_LLVM_entry_value 1] $r0
	movs	r0, #0
	.loc	7 434 1 is_stmt 1               @ ../Drivers/STM32L0xx_HAL_Driver/Src/stm32l0xx_hal_tim.c:434:1
	bx	lr
.Ltmp74:
	.p2align	2
@ %bb.11:
	.loc	7 0 1 is_stmt 0                 @ ../Drivers/STM32L0xx_HAL_Driver/Src/stm32l0xx_hal_tim.c:0:1
__arm_cp.5_0:
	.long	1073809407                      @ 0x400107ff
.Lcpi_end5:
	.size	__arm_cp.5_0, .Lcpi_end5-__arm_cp.5_0
__arm_cp.5_1:
	.long	1073812480                      @ 0x40011400
.Lcpi_end6:
	.size	__arm_cp.5_1, .Lcpi_end6-__arm_cp.5_1
__arm_cp.5_2:
	.long	1073809408                      @ 0x40010800
.Lcpi_end7:
	.size	__arm_cp.5_2, .Lcpi_end7-__arm_cp.5_2
__arm_cp.5_3:
	.long	1073742848                      @ 0x40000400
.Lcpi_end8:
	.size	__arm_cp.5_3, .Lcpi_end8-__arm_cp.5_3
.Lfunc_end5:
	.size	HAL_TIM_Base_Start, .Lfunc_end5-HAL_TIM_Base_Start
	.cfi_endproc
	.cantunwind
	.fnend
                                        @ -- End function
	.section	.text.HAL_TIM_Base_Stop,"ax",%progbits
	.hidden	HAL_TIM_Base_Stop               @ -- Begin function HAL_TIM_Base_Stop
	.globl	HAL_TIM_Base_Stop
	.p2align	2
	.type	HAL_TIM_Base_Stop,%function
	.code	16                              @ @HAL_TIM_Base_Stop
	.thumb_func
HAL_TIM_Base_Stop:
.Lfunc_begin6:
	.loc	7 442 0 is_stmt 1               @ ../Drivers/STM32L0xx_HAL_Driver/Src/stm32l0xx_hal_tim.c:442:0
	.fnstart
	.cfi_startproc
@ %bb.0:
	@DEBUG_VALUE: HAL_TIM_Base_Stop:htim <- $r0
	.loc	7 447 3 prologue_end            @ ../Drivers/STM32L0xx_HAL_Driver/Src/stm32l0xx_hal_tim.c:447:3
	ldr	r1, [r0]
	ldr	r2, [r1, #32]
	ldr	r3, __arm_cp.6_0
.Ltmp75:
	.loc	7 447 3 is_stmt 0               @ ../Drivers/STM32L0xx_HAL_Driver/Src/stm32l0xx_hal_tim.c:447:3
	tst	r2, r3
	bne	.LBB6_2
.Ltmp76:
@ %bb.1:
	@DEBUG_VALUE: HAL_TIM_Base_Stop:htim <- $r0
	.loc	7 447 3                         @ ../Drivers/STM32L0xx_HAL_Driver/Src/stm32l0xx_hal_tim.c:447:3
	ldr	r2, [r1]
	movs	r3, #1
	bics	r2, r3
	str	r2, [r1]
.Ltmp77:
.LBB6_2:
	@DEBUG_VALUE: HAL_TIM_Base_Stop:htim <- $r0
	.loc	7 0 3                           @ ../Drivers/STM32L0xx_HAL_Driver/Src/stm32l0xx_hal_tim.c:0:3
	movs	r1, #57
	movs	r2, #1
	.loc	7 450 15 is_stmt 1              @ ../Drivers/STM32L0xx_HAL_Driver/Src/stm32l0xx_hal_tim.c:450:15
	strb	r2, [r0, r1]
	movs	r0, #0
.Ltmp78:
	@DEBUG_VALUE: HAL_TIM_Base_Stop:htim <- [DW_OP_LLVM_entry_value 1] $r0
	.loc	7 453 3                         @ ../Drivers/STM32L0xx_HAL_Driver/Src/stm32l0xx_hal_tim.c:453:3
	bx	lr
.Ltmp79:
	.p2align	2
@ %bb.3:
	.loc	7 0 3 is_stmt 0                 @ ../Drivers/STM32L0xx_HAL_Driver/Src/stm32l0xx_hal_tim.c:0:3
__arm_cp.6_0:
	.long	4369                            @ 0x1111
.Lcpi_end9:
	.size	__arm_cp.6_0, .Lcpi_end9-__arm_cp.6_0
.Lfunc_end6:
	.size	HAL_TIM_Base_Stop, .Lfunc_end6-HAL_TIM_Base_Stop
	.cfi_endproc
	.cantunwind
	.fnend
                                        @ -- End function
	.section	.text.HAL_TIM_Base_Start_IT,"ax",%progbits
	.hidden	HAL_TIM_Base_Start_IT           @ -- Begin function HAL_TIM_Base_Start_IT
	.globl	HAL_TIM_Base_Start_IT
	.p2align	2
	.type	HAL_TIM_Base_Start_IT,%function
	.code	16                              @ @HAL_TIM_Base_Start_IT
	.thumb_func
HAL_TIM_Base_Start_IT:
.Lfunc_begin7:
	.loc	7 462 0 is_stmt 1               @ ../Drivers/STM32L0xx_HAL_Driver/Src/stm32l0xx_hal_tim.c:462:0
	.fnstart
	.cfi_startproc
@ %bb.0:
	@DEBUG_VALUE: HAL_TIM_Base_Start_IT:htim <- $r0
	movs	r1, #57
.Ltmp80:
	.loc	7 469 13 prologue_end           @ ../Drivers/STM32L0xx_HAL_Driver/Src/stm32l0xx_hal_tim.c:469:13
	ldrb	r1, [r0, r1]
.Ltmp81:
	.loc	7 469 7 is_stmt 0               @ ../Drivers/STM32L0xx_HAL_Driver/Src/stm32l0xx_hal_tim.c:469:7
	cmp	r1, #1
	bne	.LBB7_4
.Ltmp82:
@ %bb.1:
	@DEBUG_VALUE: HAL_TIM_Base_Start_IT:htim <- $r0
	.loc	7 0 7                           @ ../Drivers/STM32L0xx_HAL_Driver/Src/stm32l0xx_hal_tim.c:0:7
	mov	r1, r0
	adds	r1, #57
	movs	r2, #2
	.loc	7 475 15 is_stmt 1              @ ../Drivers/STM32L0xx_HAL_Driver/Src/stm32l0xx_hal_tim.c:475:15
	strb	r2, [r1]
	.loc	7 478 3                         @ ../Drivers/STM32L0xx_HAL_Driver/Src/stm32l0xx_hal_tim.c:478:3
	ldr	r0, [r0]
.Ltmp83:
	@DEBUG_VALUE: HAL_TIM_Base_Start_IT:htim <- [DW_OP_LLVM_entry_value 1] $r0
	ldr	r2, [r0, #12]
	movs	r1, #1
	orrs	r2, r1
	str	r2, [r0, #12]
	ldr	r2, __arm_cp.7_0
.Ltmp84:
	.loc	7 481 7                         @ ../Drivers/STM32L0xx_HAL_Driver/Src/stm32l0xx_hal_tim.c:481:7
	cmp	r0, r2
	bgt	.LBB7_5
.Ltmp85:
@ %bb.2:
	@DEBUG_VALUE: HAL_TIM_Base_Start_IT:htim <- [DW_OP_LLVM_entry_value 1] $r0
	.loc	7 0 7 is_stmt 0                 @ ../Drivers/STM32L0xx_HAL_Driver/Src/stm32l0xx_hal_tim.c:0:7
	lsls	r2, r1, #30
	.loc	7 481 7                         @ ../Drivers/STM32L0xx_HAL_Driver/Src/stm32l0xx_hal_tim.c:481:7
	cmp	r0, r2
	beq	.LBB7_8
.Ltmp86:
@ %bb.3:
	@DEBUG_VALUE: HAL_TIM_Base_Start_IT:htim <- [DW_OP_LLVM_entry_value 1] $r0
	.loc	7 0 7                           @ ../Drivers/STM32L0xx_HAL_Driver/Src/stm32l0xx_hal_tim.c:0:7
	ldr	r2, __arm_cp.7_3
	b	.LBB7_7
.Ltmp87:
.LBB7_4:
	@DEBUG_VALUE: HAL_TIM_Base_Start_IT:htim <- $r0
	movs	r0, #1
.Ltmp88:
	@DEBUG_VALUE: HAL_TIM_Base_Start_IT:htim <- [DW_OP_LLVM_entry_value 1] $r0
	.loc	7 496 1 is_stmt 1               @ ../Drivers/STM32L0xx_HAL_Driver/Src/stm32l0xx_hal_tim.c:496:1
	bx	lr
.Ltmp89:
.LBB7_5:
	@DEBUG_VALUE: HAL_TIM_Base_Start_IT:htim <- [DW_OP_LLVM_entry_value 1] $r0
	.loc	7 0 1 is_stmt 0                 @ ../Drivers/STM32L0xx_HAL_Driver/Src/stm32l0xx_hal_tim.c:0:1
	ldr	r2, __arm_cp.7_1
.Ltmp90:
	.loc	7 481 7 is_stmt 1               @ ../Drivers/STM32L0xx_HAL_Driver/Src/stm32l0xx_hal_tim.c:481:7
	cmp	r0, r2
	beq	.LBB7_8
.Ltmp91:
@ %bb.6:
	@DEBUG_VALUE: HAL_TIM_Base_Start_IT:htim <- [DW_OP_LLVM_entry_value 1] $r0
	.loc	7 0 7 is_stmt 0                 @ ../Drivers/STM32L0xx_HAL_Driver/Src/stm32l0xx_hal_tim.c:0:7
	ldr	r2, __arm_cp.7_2
.Ltmp92:
.LBB7_7:
	@DEBUG_VALUE: HAL_TIM_Base_Start_IT:htim <- [DW_OP_LLVM_entry_value 1] $r0
	.loc	7 481 7                         @ ../Drivers/STM32L0xx_HAL_Driver/Src/stm32l0xx_hal_tim.c:481:7
	cmp	r0, r2
	bne	.LBB7_9
.Ltmp93:
.LBB7_8:
	@DEBUG_VALUE: HAL_TIM_Base_Start_IT:htim <- [DW_OP_LLVM_entry_value 1] $r0
	.loc	7 483 31 is_stmt 1              @ ../Drivers/STM32L0xx_HAL_Driver/Src/stm32l0xx_hal_tim.c:483:31
	ldr	r2, [r0, #8]
	movs	r3, #7
	.loc	7 483 36 is_stmt 0              @ ../Drivers/STM32L0xx_HAL_Driver/Src/stm32l0xx_hal_tim.c:483:36
	ands	r3, r2
.Ltmp94:
	@DEBUG_VALUE: HAL_TIM_Base_Start_IT:tmpsmcr <- $r3
	.loc	7 484 9 is_stmt 1               @ ../Drivers/STM32L0xx_HAL_Driver/Src/stm32l0xx_hal_tim.c:484:9
	cmp	r3, #6
	beq	.LBB7_10
.Ltmp95:
.LBB7_9:
	@DEBUG_VALUE: HAL_TIM_Base_Start_IT:htim <- [DW_OP_LLVM_entry_value 1] $r0
	.loc	7 0 0 is_stmt 0                 @ ../Drivers/STM32L0xx_HAL_Driver/Src/stm32l0xx_hal_tim.c:0:0
	ldr	r2, [r0]
	orrs	r2, r1
	str	r2, [r0]
.Ltmp96:
.LBB7_10:
	@DEBUG_VALUE: HAL_TIM_Base_Start_IT:htim <- [DW_OP_LLVM_entry_value 1] $r0
	movs	r0, #0
	.loc	7 496 1 is_stmt 1               @ ../Drivers/STM32L0xx_HAL_Driver/Src/stm32l0xx_hal_tim.c:496:1
	bx	lr
.Ltmp97:
	.p2align	2
@ %bb.11:
	.loc	7 0 1 is_stmt 0                 @ ../Drivers/STM32L0xx_HAL_Driver/Src/stm32l0xx_hal_tim.c:0:1
__arm_cp.7_0:
	.long	1073809407                      @ 0x400107ff
.Lcpi_end10:
	.size	__arm_cp.7_0, .Lcpi_end10-__arm_cp.7_0
__arm_cp.7_1:
	.long	1073812480                      @ 0x40011400
.Lcpi_end11:
	.size	__arm_cp.7_1, .Lcpi_end11-__arm_cp.7_1
__arm_cp.7_2:
	.long	1073809408                      @ 0x40010800
.Lcpi_end12:
	.size	__arm_cp.7_2, .Lcpi_end12-__arm_cp.7_2
__arm_cp.7_3:
	.long	1073742848                      @ 0x40000400
.Lcpi_end13:
	.size	__arm_cp.7_3, .Lcpi_end13-__arm_cp.7_3
.Lfunc_end7:
	.size	HAL_TIM_Base_Start_IT, .Lfunc_end7-HAL_TIM_Base_Start_IT
	.cfi_endproc
	.cantunwind
	.fnend
                                        @ -- End function
	.section	.text.HAL_TIM_Base_Stop_IT,"ax",%progbits
	.hidden	HAL_TIM_Base_Stop_IT            @ -- Begin function HAL_TIM_Base_Stop_IT
	.globl	HAL_TIM_Base_Stop_IT
	.p2align	2
	.type	HAL_TIM_Base_Stop_IT,%function
	.code	16                              @ @HAL_TIM_Base_Stop_IT
	.thumb_func
HAL_TIM_Base_Stop_IT:
.Lfunc_begin8:
	.loc	7 504 0 is_stmt 1               @ ../Drivers/STM32L0xx_HAL_Driver/Src/stm32l0xx_hal_tim.c:504:0
	.fnstart
	.cfi_startproc
@ %bb.0:
	@DEBUG_VALUE: HAL_TIM_Base_Stop_IT:htim <- $r0
	.save	{r4, lr}
	push	{r4, lr}
	.cfi_def_cfa_offset 8
	.cfi_offset lr, -4
	.cfi_offset r4, -8
.Ltmp98:
	.loc	7 509 3 prologue_end            @ ../Drivers/STM32L0xx_HAL_Driver/Src/stm32l0xx_hal_tim.c:509:3
	ldr	r2, [r0]
	ldr	r3, [r2, #12]
	movs	r1, #1
	bics	r3, r1
	str	r3, [r2, #12]
.Ltmp99:
	.loc	7 512 3                         @ ../Drivers/STM32L0xx_HAL_Driver/Src/stm32l0xx_hal_tim.c:512:3
	ldr	r3, [r2, #32]
	ldr	r4, __arm_cp.8_0
.Ltmp100:
	.loc	7 512 3 is_stmt 0               @ ../Drivers/STM32L0xx_HAL_Driver/Src/stm32l0xx_hal_tim.c:512:3
	tst	r3, r4
	bne	.LBB8_2
.Ltmp101:
@ %bb.1:
	@DEBUG_VALUE: HAL_TIM_Base_Stop_IT:htim <- $r0
	.loc	7 512 3                         @ ../Drivers/STM32L0xx_HAL_Driver/Src/stm32l0xx_hal_tim.c:512:3
	ldr	r3, [r2]
	bics	r3, r1
	str	r3, [r2]
.Ltmp102:
.LBB8_2:
	@DEBUG_VALUE: HAL_TIM_Base_Stop_IT:htim <- $r0
	.loc	7 0 3                           @ ../Drivers/STM32L0xx_HAL_Driver/Src/stm32l0xx_hal_tim.c:0:3
	movs	r2, #57
	.loc	7 515 15 is_stmt 1              @ ../Drivers/STM32L0xx_HAL_Driver/Src/stm32l0xx_hal_tim.c:515:15
	strb	r1, [r0, r2]
	movs	r0, #0
.Ltmp103:
	@DEBUG_VALUE: HAL_TIM_Base_Stop_IT:htim <- [DW_OP_LLVM_entry_value 1] $r0
	.loc	7 518 3                         @ ../Drivers/STM32L0xx_HAL_Driver/Src/stm32l0xx_hal_tim.c:518:3
	pop	{r4, pc}
.Ltmp104:
	.p2align	2
@ %bb.3:
	.loc	7 0 3 is_stmt 0                 @ ../Drivers/STM32L0xx_HAL_Driver/Src/stm32l0xx_hal_tim.c:0:3
__arm_cp.8_0:
	.long	4369                            @ 0x1111
.Lcpi_end14:
	.size	__arm_cp.8_0, .Lcpi_end14-__arm_cp.8_0
.Lfunc_end8:
	.size	HAL_TIM_Base_Stop_IT, .Lfunc_end8-HAL_TIM_Base_Stop_IT
	.cfi_endproc
	.cantunwind
	.fnend
                                        @ -- End function
	.section	.text.HAL_TIM_Base_Start_DMA,"ax",%progbits
	.hidden	HAL_TIM_Base_Start_DMA          @ -- Begin function HAL_TIM_Base_Start_DMA
	.globl	HAL_TIM_Base_Start_DMA
	.p2align	2
	.type	HAL_TIM_Base_Start_DMA,%function
	.code	16                              @ @HAL_TIM_Base_Start_DMA
	.thumb_func
HAL_TIM_Base_Start_DMA:
.Lfunc_begin9:
	.loc	7 529 0 is_stmt 1               @ ../Drivers/STM32L0xx_HAL_Driver/Src/stm32l0xx_hal_tim.c:529:0
	.fnstart
	.cfi_startproc
@ %bb.0:
	@DEBUG_VALUE: HAL_TIM_Base_Start_DMA:htim <- $r0
	@DEBUG_VALUE: HAL_TIM_Base_Start_DMA:pData <- $r1
	@DEBUG_VALUE: HAL_TIM_Base_Start_DMA:Length <- $r2
	@DEBUG_VALUE: HAL_TIM_Base_Start_DMA:Length <- $r2
	.save	{r4, r5, r6, lr}
	push	{r4, r5, r6, lr}
	.cfi_def_cfa_offset 16
	.cfi_offset lr, -4
	.cfi_offset r6, -8
	.cfi_offset r5, -12
	.cfi_offset r4, -16
	mov	r5, r0
.Ltmp105:
	@DEBUG_VALUE: HAL_TIM_Base_Start_DMA:htim <- $r5
	movs	r0, #57
.Ltmp106:
	.loc	7 536 13 prologue_end           @ ../Drivers/STM32L0xx_HAL_Driver/Src/stm32l0xx_hal_tim.c:536:13
	ldrb	r0, [r5, r0]
.Ltmp107:
	.loc	7 536 7 is_stmt 0               @ ../Drivers/STM32L0xx_HAL_Driver/Src/stm32l0xx_hal_tim.c:536:7
	cmp	r0, #2
	bne	.LBB9_2
.Ltmp108:
@ %bb.1:
	@DEBUG_VALUE: HAL_TIM_Base_Start_DMA:htim <- $r5
	@DEBUG_VALUE: HAL_TIM_Base_Start_DMA:Length <- $r2
	@DEBUG_VALUE: HAL_TIM_Base_Start_DMA:pData <- $r1
	.loc	7 0 7                           @ ../Drivers/STM32L0xx_HAL_Driver/Src/stm32l0xx_hal_tim.c:0:7
	movs	r4, #2
	b	.LBB9_15
.Ltmp109:
.LBB9_2:
	@DEBUG_VALUE: HAL_TIM_Base_Start_DMA:htim <- $r5
	@DEBUG_VALUE: HAL_TIM_Base_Start_DMA:Length <- $r2
	@DEBUG_VALUE: HAL_TIM_Base_Start_DMA:pData <- $r1
	mov	r3, r2
.Ltmp110:
	@DEBUG_VALUE: HAL_TIM_Base_Start_DMA:Length <- $r3
	mov	r0, r5
	adds	r0, #57
	@DEBUG_VALUE: HAL_TIM_Base_Start_DMA:Length <- $r3
.Ltmp111:
	.loc	7 540 18 is_stmt 1              @ ../Drivers/STM32L0xx_HAL_Driver/Src/stm32l0xx_hal_tim.c:540:18
	ldrb	r2, [r0]
	movs	r4, #1
.Ltmp112:
	.loc	7 540 12 is_stmt 0              @ ../Drivers/STM32L0xx_HAL_Driver/Src/stm32l0xx_hal_tim.c:540:12
	cmp	r2, #1
	bne	.LBB9_15
.Ltmp113:
@ %bb.3:
	@DEBUG_VALUE: HAL_TIM_Base_Start_DMA:Length <- $r3
	@DEBUG_VALUE: HAL_TIM_Base_Start_DMA:htim <- $r5
	@DEBUG_VALUE: HAL_TIM_Base_Start_DMA:pData <- $r1
	@DEBUG_VALUE: HAL_TIM_Base_Start_DMA:Length <- $r3
	.loc	7 542 25 is_stmt 1              @ ../Drivers/STM32L0xx_HAL_Driver/Src/stm32l0xx_hal_tim.c:542:25
	cmp	r1, #0
	beq	.LBB9_15
.Ltmp114:
@ %bb.4:
	@DEBUG_VALUE: HAL_TIM_Base_Start_DMA:Length <- $r3
	@DEBUG_VALUE: HAL_TIM_Base_Start_DMA:htim <- $r5
	@DEBUG_VALUE: HAL_TIM_Base_Start_DMA:pData <- $r1
	@DEBUG_VALUE: HAL_TIM_Base_Start_DMA:Length <- $r3
	cmp	r3, #0
	beq	.LBB9_15
.Ltmp115:
@ %bb.5:
	@DEBUG_VALUE: HAL_TIM_Base_Start_DMA:Length <- $r3
	@DEBUG_VALUE: HAL_TIM_Base_Start_DMA:htim <- $r5
	@DEBUG_VALUE: HAL_TIM_Base_Start_DMA:pData <- $r1
	@DEBUG_VALUE: HAL_TIM_Base_Start_DMA:Length <- $r3
	.loc	7 557 3                         @ ../Drivers/STM32L0xx_HAL_Driver/Src/stm32l0xx_hal_tim.c:557:3
	ldr	r2, [r5, #28]
	.loc	7 557 51 is_stmt 0              @ ../Drivers/STM32L0xx_HAL_Driver/Src/stm32l0xx_hal_tim.c:557:51
	ldr	r6, __arm_cp.9_0
	str	r6, [r2, #44]
	.loc	7 558 3 is_stmt 1               @ ../Drivers/STM32L0xx_HAL_Driver/Src/stm32l0xx_hal_tim.c:558:3
	ldr	r2, [r5, #28]
	.loc	7 558 55 is_stmt 0              @ ../Drivers/STM32L0xx_HAL_Driver/Src/stm32l0xx_hal_tim.c:558:55
	ldr	r6, __arm_cp.9_1
	str	r6, [r2, #48]
	.loc	7 561 3 is_stmt 1               @ ../Drivers/STM32L0xx_HAL_Driver/Src/stm32l0xx_hal_tim.c:561:3
	ldr	r2, [r5, #28]
	.loc	7 561 52 is_stmt 0              @ ../Drivers/STM32L0xx_HAL_Driver/Src/stm32l0xx_hal_tim.c:561:52
	ldr	r6, __arm_cp.9_2
	str	r6, [r2, #52]
	movs	r2, #2
.Ltmp116:
	.loc	7 548 19 is_stmt 1              @ ../Drivers/STM32L0xx_HAL_Driver/Src/stm32l0xx_hal_tim.c:548:19
	strb	r2, [r0]
.Ltmp117:
	.loc	7 564 24                        @ ../Drivers/STM32L0xx_HAL_Driver/Src/stm32l0xx_hal_tim.c:564:24
	ldr	r0, [r5, #28]
	.loc	7 564 89 is_stmt 0              @ ../Drivers/STM32L0xx_HAL_Driver/Src/stm32l0xx_hal_tim.c:564:89
	ldr	r2, [r5]
	.loc	7 564 99                        @ ../Drivers/STM32L0xx_HAL_Driver/Src/stm32l0xx_hal_tim.c:564:99
	adds	r2, #44
	.loc	7 564 7                         @ ../Drivers/STM32L0xx_HAL_Driver/Src/stm32l0xx_hal_tim.c:564:7
	bl	HAL_DMA_Start_IT
.Ltmp118:
	@DEBUG_VALUE: HAL_TIM_Base_Start_DMA:pData <- [DW_OP_LLVM_entry_value 1] $r1
	.loc	7 564 7                         @ ../Drivers/STM32L0xx_HAL_Driver/Src/stm32l0xx_hal_tim.c:564:7
	cmp	r0, #0
	bne	.LBB9_15
.Ltmp119:
@ %bb.6:
	@DEBUG_VALUE: HAL_TIM_Base_Start_DMA:pData <- [DW_OP_LLVM_entry_value 1] $r1
	@DEBUG_VALUE: HAL_TIM_Base_Start_DMA:htim <- $r5
	.loc	7 0 7                           @ ../Drivers/STM32L0xx_HAL_Driver/Src/stm32l0xx_hal_tim.c:0:7
	movs	r0, #1
	lsls	r2, r0, #8
	.loc	7 572 3 is_stmt 1               @ ../Drivers/STM32L0xx_HAL_Driver/Src/stm32l0xx_hal_tim.c:572:3
	ldr	r1, [r5]
	ldr	r3, [r1, #12]
	orrs	r3, r2
	str	r3, [r1, #12]
	ldr	r2, __arm_cp.9_3
.Ltmp120:
	.loc	7 575 7                         @ ../Drivers/STM32L0xx_HAL_Driver/Src/stm32l0xx_hal_tim.c:575:7
	cmp	r1, r2
	bgt	.LBB9_9
.Ltmp121:
@ %bb.7:
	@DEBUG_VALUE: HAL_TIM_Base_Start_DMA:pData <- [DW_OP_LLVM_entry_value 1] $r1
	@DEBUG_VALUE: HAL_TIM_Base_Start_DMA:htim <- $r5
	.loc	7 0 7 is_stmt 0                 @ ../Drivers/STM32L0xx_HAL_Driver/Src/stm32l0xx_hal_tim.c:0:7
	lsls	r2, r0, #30
	.loc	7 575 7                         @ ../Drivers/STM32L0xx_HAL_Driver/Src/stm32l0xx_hal_tim.c:575:7
	cmp	r1, r2
	beq	.LBB9_12
.Ltmp122:
@ %bb.8:
	@DEBUG_VALUE: HAL_TIM_Base_Start_DMA:pData <- [DW_OP_LLVM_entry_value 1] $r1
	@DEBUG_VALUE: HAL_TIM_Base_Start_DMA:htim <- $r5
	.loc	7 0 7                           @ ../Drivers/STM32L0xx_HAL_Driver/Src/stm32l0xx_hal_tim.c:0:7
	ldr	r2, __arm_cp.9_6
	b	.LBB9_11
.Ltmp123:
.LBB9_9:
	@DEBUG_VALUE: HAL_TIM_Base_Start_DMA:pData <- [DW_OP_LLVM_entry_value 1] $r1
	@DEBUG_VALUE: HAL_TIM_Base_Start_DMA:htim <- $r5
	ldr	r2, __arm_cp.9_4
	.loc	7 575 7                         @ ../Drivers/STM32L0xx_HAL_Driver/Src/stm32l0xx_hal_tim.c:575:7
	cmp	r1, r2
	beq	.LBB9_12
.Ltmp124:
@ %bb.10:
	@DEBUG_VALUE: HAL_TIM_Base_Start_DMA:pData <- [DW_OP_LLVM_entry_value 1] $r1
	@DEBUG_VALUE: HAL_TIM_Base_Start_DMA:htim <- $r5
	.loc	7 0 7                           @ ../Drivers/STM32L0xx_HAL_Driver/Src/stm32l0xx_hal_tim.c:0:7
	ldr	r2, __arm_cp.9_5
.Ltmp125:
.LBB9_11:
	@DEBUG_VALUE: HAL_TIM_Base_Start_DMA:pData <- [DW_OP_LLVM_entry_value 1] $r1
	@DEBUG_VALUE: HAL_TIM_Base_Start_DMA:htim <- $r5
	.loc	7 575 7                         @ ../Drivers/STM32L0xx_HAL_Driver/Src/stm32l0xx_hal_tim.c:575:7
	cmp	r1, r2
	bne	.LBB9_13
.Ltmp126:
.LBB9_12:
	@DEBUG_VALUE: HAL_TIM_Base_Start_DMA:pData <- [DW_OP_LLVM_entry_value 1] $r1
	@DEBUG_VALUE: HAL_TIM_Base_Start_DMA:htim <- $r5
	.loc	7 577 31 is_stmt 1              @ ../Drivers/STM32L0xx_HAL_Driver/Src/stm32l0xx_hal_tim.c:577:31
	ldr	r2, [r1, #8]
	movs	r3, #7
	.loc	7 577 36 is_stmt 0              @ ../Drivers/STM32L0xx_HAL_Driver/Src/stm32l0xx_hal_tim.c:577:36
	ands	r3, r2
.Ltmp127:
	@DEBUG_VALUE: HAL_TIM_Base_Start_DMA:tmpsmcr <- $r3
	.loc	7 578 9 is_stmt 1               @ ../Drivers/STM32L0xx_HAL_Driver/Src/stm32l0xx_hal_tim.c:578:9
	cmp	r3, #6
	beq	.LBB9_14
.Ltmp128:
.LBB9_13:
	@DEBUG_VALUE: HAL_TIM_Base_Start_DMA:pData <- [DW_OP_LLVM_entry_value 1] $r1
	@DEBUG_VALUE: HAL_TIM_Base_Start_DMA:htim <- $r5
	.loc	7 0 0 is_stmt 0                 @ ../Drivers/STM32L0xx_HAL_Driver/Src/stm32l0xx_hal_tim.c:0:0
	ldr	r2, [r1]
	orrs	r2, r0
	str	r2, [r1]
.Ltmp129:
.LBB9_14:
	@DEBUG_VALUE: HAL_TIM_Base_Start_DMA:pData <- [DW_OP_LLVM_entry_value 1] $r1
	@DEBUG_VALUE: HAL_TIM_Base_Start_DMA:htim <- $r5
	movs	r4, #0
.Ltmp130:
.LBB9_15:
	@DEBUG_VALUE: HAL_TIM_Base_Start_DMA:htim <- $r5
	.loc	7 590 1 is_stmt 1               @ ../Drivers/STM32L0xx_HAL_Driver/Src/stm32l0xx_hal_tim.c:590:1
	mov	r0, r4
	pop	{r4, r5, r6, pc}
.Ltmp131:
	.p2align	2
@ %bb.16:
	.loc	7 0 1 is_stmt 0                 @ ../Drivers/STM32L0xx_HAL_Driver/Src/stm32l0xx_hal_tim.c:0:1
__arm_cp.9_0:
	.long	TIM_DMAPeriodElapsedCplt
.Lcpi_end15:
	.size	__arm_cp.9_0, .Lcpi_end15-__arm_cp.9_0
__arm_cp.9_1:
	.long	TIM_DMAPeriodElapsedHalfCplt
.Lcpi_end16:
	.size	__arm_cp.9_1, .Lcpi_end16-__arm_cp.9_1
__arm_cp.9_2:
	.long	TIM_DMAError
.Lcpi_end17:
	.size	__arm_cp.9_2, .Lcpi_end17-__arm_cp.9_2
__arm_cp.9_3:
	.long	1073809407                      @ 0x400107ff
.Lcpi_end18:
	.size	__arm_cp.9_3, .Lcpi_end18-__arm_cp.9_3
__arm_cp.9_4:
	.long	1073812480                      @ 0x40011400
.Lcpi_end19:
	.size	__arm_cp.9_4, .Lcpi_end19-__arm_cp.9_4
__arm_cp.9_5:
	.long	1073809408                      @ 0x40010800
.Lcpi_end20:
	.size	__arm_cp.9_5, .Lcpi_end20-__arm_cp.9_5
__arm_cp.9_6:
	.long	1073742848                      @ 0x40000400
.Lcpi_end21:
	.size	__arm_cp.9_6, .Lcpi_end21-__arm_cp.9_6
.Lfunc_end9:
	.size	HAL_TIM_Base_Start_DMA, .Lfunc_end9-HAL_TIM_Base_Start_DMA
	.cfi_endproc
	.cantunwind
	.fnend
                                        @ -- End function
	.section	.text.TIM_DMAPeriodElapsedCplt,"ax",%progbits
	.p2align	1                               @ -- Begin function TIM_DMAPeriodElapsedCplt
	.type	TIM_DMAPeriodElapsedCplt,%function
	.code	16                              @ @TIM_DMAPeriodElapsedCplt
	.thumb_func
TIM_DMAPeriodElapsedCplt:
.Lfunc_begin10:
	.loc	7 6358 0 is_stmt 1              @ ../Drivers/STM32L0xx_HAL_Driver/Src/stm32l0xx_hal_tim.c:6358:0
	.fnstart
	.cfi_startproc
@ %bb.0:
	@DEBUG_VALUE: TIM_DMAPeriodElapsedCplt:hdma <- $r0
	.save	{r7, lr}
	push	{r7, lr}
	.cfi_def_cfa_offset 8
	.cfi_offset lr, -4
	.cfi_offset r7, -8
.Ltmp132:
	.loc	7 6359 79 prologue_end          @ ../Drivers/STM32L0xx_HAL_Driver/Src/stm32l0xx_hal_tim.c:6359:79
	ldr	r0, [r0, #40]
.Ltmp133:
	@DEBUG_VALUE: TIM_DMAPeriodElapsedCplt:hdma <- [DW_OP_LLVM_entry_value 1] $r0
	@DEBUG_VALUE: TIM_DMAPeriodElapsedCplt:htim <- $r0
	.loc	7 6361 7                        @ ../Drivers/STM32L0xx_HAL_Driver/Src/stm32l0xx_hal_tim.c:6361:7
	ldr	r1, [r0, #28]
	.loc	7 6361 43 is_stmt 0             @ ../Drivers/STM32L0xx_HAL_Driver/Src/stm32l0xx_hal_tim.c:6361:43
	ldr	r1, [r1, #28]
.Ltmp134:
	.loc	7 6361 7                        @ ../Drivers/STM32L0xx_HAL_Driver/Src/stm32l0xx_hal_tim.c:6361:7
	cmp	r1, #0
	bne	.LBB10_2
.Ltmp135:
@ %bb.1:
	@DEBUG_VALUE: TIM_DMAPeriodElapsedCplt:htim <- $r0
	@DEBUG_VALUE: TIM_DMAPeriodElapsedCplt:hdma <- [DW_OP_LLVM_entry_value 1] $r0
	.loc	7 0 7                           @ ../Drivers/STM32L0xx_HAL_Driver/Src/stm32l0xx_hal_tim.c:0:7
	movs	r1, #57
	movs	r2, #1
.Ltmp136:
	.loc	7 6363 17 is_stmt 1             @ ../Drivers/STM32L0xx_HAL_Driver/Src/stm32l0xx_hal_tim.c:6363:17
	strb	r2, [r0, r1]
.Ltmp137:
.LBB10_2:
	@DEBUG_VALUE: TIM_DMAPeriodElapsedCplt:htim <- $r0
	@DEBUG_VALUE: TIM_DMAPeriodElapsedCplt:hdma <- [DW_OP_LLVM_entry_value 1] $r0
	.loc	7 6369 3                        @ ../Drivers/STM32L0xx_HAL_Driver/Src/stm32l0xx_hal_tim.c:6369:3
	bl	HAL_TIM_PeriodElapsedCallback
.Ltmp138:
	.loc	7 6371 1                        @ ../Drivers/STM32L0xx_HAL_Driver/Src/stm32l0xx_hal_tim.c:6371:1
	pop	{r7, pc}
.Ltmp139:
.Lfunc_end10:
	.size	TIM_DMAPeriodElapsedCplt, .Lfunc_end10-TIM_DMAPeriodElapsedCplt
	.cfi_endproc
	.cantunwind
	.fnend
                                        @ -- End function
	.section	.text.TIM_DMAPeriodElapsedHalfCplt,"ax",%progbits
	.p2align	1                               @ -- Begin function TIM_DMAPeriodElapsedHalfCplt
	.type	TIM_DMAPeriodElapsedHalfCplt,%function
	.code	16                              @ @TIM_DMAPeriodElapsedHalfCplt
	.thumb_func
TIM_DMAPeriodElapsedHalfCplt:
.Lfunc_begin11:
	.loc	7 6379 0                        @ ../Drivers/STM32L0xx_HAL_Driver/Src/stm32l0xx_hal_tim.c:6379:0
	.fnstart
	.cfi_startproc
@ %bb.0:
	@DEBUG_VALUE: TIM_DMAPeriodElapsedHalfCplt:hdma <- $r0
	.save	{r7, lr}
	push	{r7, lr}
	.cfi_def_cfa_offset 8
	.cfi_offset lr, -4
	.cfi_offset r7, -8
.Ltmp140:
	.loc	7 6380 79 prologue_end          @ ../Drivers/STM32L0xx_HAL_Driver/Src/stm32l0xx_hal_tim.c:6380:79
	ldr	r0, [r0, #40]
.Ltmp141:
	@DEBUG_VALUE: TIM_DMAPeriodElapsedHalfCplt:hdma <- [DW_OP_LLVM_entry_value 1] $r0
	@DEBUG_VALUE: TIM_DMAPeriodElapsedHalfCplt:htim <- $r0
	.loc	7 6385 3                        @ ../Drivers/STM32L0xx_HAL_Driver/Src/stm32l0xx_hal_tim.c:6385:3
	bl	HAL_TIM_PeriodElapsedHalfCpltCallback
.Ltmp142:
	.loc	7 6387 1                        @ ../Drivers/STM32L0xx_HAL_Driver/Src/stm32l0xx_hal_tim.c:6387:1
	pop	{r7, pc}
.Ltmp143:
.Lfunc_end11:
	.size	TIM_DMAPeriodElapsedHalfCplt, .Lfunc_end11-TIM_DMAPeriodElapsedHalfCplt
	.cfi_endproc
	.cantunwind
	.fnend
                                        @ -- End function
	.section	.text.TIM_DMAError,"ax",%progbits
	.hidden	TIM_DMAError                    @ -- Begin function TIM_DMAError
	.globl	TIM_DMAError
	.p2align	1
	.type	TIM_DMAError,%function
	.code	16                              @ @TIM_DMAError
	.thumb_func
TIM_DMAError:
.Lfunc_begin12:
	.loc	7 6119 0                        @ ../Drivers/STM32L0xx_HAL_Driver/Src/stm32l0xx_hal_tim.c:6119:0
	.fnstart
	.cfi_startproc
@ %bb.0:
	@DEBUG_VALUE: TIM_DMAError:hdma <- $r0
	.save	{r4, lr}
	push	{r4, lr}
	.cfi_def_cfa_offset 8
	.cfi_offset lr, -4
	.cfi_offset r4, -8
.Ltmp144:
	.loc	7 6120 79 prologue_end          @ ../Drivers/STM32L0xx_HAL_Driver/Src/stm32l0xx_hal_tim.c:6120:79
	ldr	r4, [r0, #40]
	.loc	7 0 0 is_stmt 0                 @ ../Drivers/STM32L0xx_HAL_Driver/Src/stm32l0xx_hal_tim.c:0:0
	mov	r1, r4
	adds	r1, #58
.Ltmp145:
	@DEBUG_VALUE: TIM_DMAError:htim <- $r4
	.loc	7 6122 15 is_stmt 1             @ ../Drivers/STM32L0xx_HAL_Driver/Src/stm32l0xx_hal_tim.c:6122:15
	ldr	r2, [r4, #32]
.Ltmp146:
	.loc	7 6122 7 is_stmt 0              @ ../Drivers/STM32L0xx_HAL_Driver/Src/stm32l0xx_hal_tim.c:6122:7
	cmp	r2, r0
	beq	.LBB12_5
.Ltmp147:
@ %bb.1:
	@DEBUG_VALUE: TIM_DMAError:htim <- $r4
	@DEBUG_VALUE: TIM_DMAError:hdma <- $r0
	.loc	7 6127 20 is_stmt 1             @ ../Drivers/STM32L0xx_HAL_Driver/Src/stm32l0xx_hal_tim.c:6127:20
	ldr	r2, [r4, #36]
.Ltmp148:
	.loc	7 6127 12 is_stmt 0             @ ../Drivers/STM32L0xx_HAL_Driver/Src/stm32l0xx_hal_tim.c:6127:12
	cmp	r2, r0
	beq	.LBB12_6
.Ltmp149:
@ %bb.2:
	@DEBUG_VALUE: TIM_DMAError:htim <- $r4
	@DEBUG_VALUE: TIM_DMAError:hdma <- $r0
	.loc	7 6132 20 is_stmt 1             @ ../Drivers/STM32L0xx_HAL_Driver/Src/stm32l0xx_hal_tim.c:6132:20
	ldr	r2, [r4, #40]
.Ltmp150:
	.loc	7 6132 12 is_stmt 0             @ ../Drivers/STM32L0xx_HAL_Driver/Src/stm32l0xx_hal_tim.c:6132:12
	cmp	r2, r0
	beq	.LBB12_7
.Ltmp151:
@ %bb.3:
	@DEBUG_VALUE: TIM_DMAError:htim <- $r4
	@DEBUG_VALUE: TIM_DMAError:hdma <- $r0
	.loc	7 6137 20 is_stmt 1             @ ../Drivers/STM32L0xx_HAL_Driver/Src/stm32l0xx_hal_tim.c:6137:20
	ldr	r2, [r4, #44]
.Ltmp152:
	.loc	7 6137 12 is_stmt 0             @ ../Drivers/STM32L0xx_HAL_Driver/Src/stm32l0xx_hal_tim.c:6137:12
	cmp	r2, r0
	beq	.LBB12_8
.Ltmp153:
@ %bb.4:
	@DEBUG_VALUE: TIM_DMAError:htim <- $r4
	@DEBUG_VALUE: TIM_DMAError:hdma <- $r0
	.loc	7 0 12                          @ ../Drivers/STM32L0xx_HAL_Driver/Src/stm32l0xx_hal_tim.c:0:12
	mov	r0, r4
.Ltmp154:
	@DEBUG_VALUE: TIM_DMAError:hdma <- [DW_OP_LLVM_entry_value 1] $r0
	adds	r0, #57
	movs	r1, #1
.Ltmp155:
	.loc	7 6144 17 is_stmt 1             @ ../Drivers/STM32L0xx_HAL_Driver/Src/stm32l0xx_hal_tim.c:6144:17
	strb	r1, [r0]
	b	.LBB12_10
.Ltmp156:
.LBB12_5:
	@DEBUG_VALUE: TIM_DMAError:htim <- $r4
	@DEBUG_VALUE: TIM_DMAError:hdma <- $r0
	.loc	7 0 17 is_stmt 0                @ ../Drivers/STM32L0xx_HAL_Driver/Src/stm32l0xx_hal_tim.c:0:17
	movs	r0, #1
.Ltmp157:
	@DEBUG_VALUE: TIM_DMAError:hdma <- [DW_OP_LLVM_entry_value 1] $r0
	.loc	7 6125 5 is_stmt 1              @ ../Drivers/STM32L0xx_HAL_Driver/Src/stm32l0xx_hal_tim.c:6125:5
	strb	r0, [r1]
	b	.LBB12_9
.Ltmp158:
.LBB12_6:
	@DEBUG_VALUE: TIM_DMAError:htim <- $r4
	@DEBUG_VALUE: TIM_DMAError:hdma <- $r0
	.loc	7 0 5 is_stmt 0                 @ ../Drivers/STM32L0xx_HAL_Driver/Src/stm32l0xx_hal_tim.c:0:5
	movs	r0, #1
.Ltmp159:
	@DEBUG_VALUE: TIM_DMAError:hdma <- [DW_OP_LLVM_entry_value 1] $r0
	.loc	7 6130 5 is_stmt 1              @ ../Drivers/STM32L0xx_HAL_Driver/Src/stm32l0xx_hal_tim.c:6130:5
	strb	r0, [r1, #1]
	movs	r0, #2
	b	.LBB12_9
.Ltmp160:
.LBB12_7:
	@DEBUG_VALUE: TIM_DMAError:htim <- $r4
	@DEBUG_VALUE: TIM_DMAError:hdma <- $r0
	.loc	7 0 5 is_stmt 0                 @ ../Drivers/STM32L0xx_HAL_Driver/Src/stm32l0xx_hal_tim.c:0:5
	movs	r0, #1
.Ltmp161:
	@DEBUG_VALUE: TIM_DMAError:hdma <- [DW_OP_LLVM_entry_value 1] $r0
	.loc	7 6135 5 is_stmt 1              @ ../Drivers/STM32L0xx_HAL_Driver/Src/stm32l0xx_hal_tim.c:6135:5
	strb	r0, [r1, #2]
	movs	r0, #4
	b	.LBB12_9
.Ltmp162:
.LBB12_8:
	@DEBUG_VALUE: TIM_DMAError:htim <- $r4
	@DEBUG_VALUE: TIM_DMAError:hdma <- $r0
	.loc	7 0 5 is_stmt 0                 @ ../Drivers/STM32L0xx_HAL_Driver/Src/stm32l0xx_hal_tim.c:0:5
	movs	r0, #1
.Ltmp163:
	@DEBUG_VALUE: TIM_DMAError:hdma <- [DW_OP_LLVM_entry_value 1] $r0
	.loc	7 6140 5 is_stmt 1              @ ../Drivers/STM32L0xx_HAL_Driver/Src/stm32l0xx_hal_tim.c:6140:5
	strb	r0, [r1, #3]
	movs	r0, #8
.Ltmp164:
.LBB12_9:
	@DEBUG_VALUE: TIM_DMAError:hdma <- [DW_OP_LLVM_entry_value 1] $r0
	@DEBUG_VALUE: TIM_DMAError:htim <- $r4
	.loc	7 0 0 is_stmt 0                 @ ../Drivers/STM32L0xx_HAL_Driver/Src/stm32l0xx_hal_tim.c:0:0
	strb	r0, [r4, #24]
.Ltmp165:
.LBB12_10:
	@DEBUG_VALUE: TIM_DMAError:hdma <- [DW_OP_LLVM_entry_value 1] $r0
	@DEBUG_VALUE: TIM_DMAError:htim <- $r4
	.loc	7 6150 3 is_stmt 1              @ ../Drivers/STM32L0xx_HAL_Driver/Src/stm32l0xx_hal_tim.c:6150:3
	mov	r0, r4
	bl	HAL_TIM_ErrorCallback
.Ltmp166:
	.loc	7 0 3 is_stmt 0                 @ ../Drivers/STM32L0xx_HAL_Driver/Src/stm32l0xx_hal_tim.c:0:3
	movs	r0, #0
	.loc	7 6153 17 is_stmt 1             @ ../Drivers/STM32L0xx_HAL_Driver/Src/stm32l0xx_hal_tim.c:6153:17
	strb	r0, [r4, #24]
	.loc	7 6154 1                        @ ../Drivers/STM32L0xx_HAL_Driver/Src/stm32l0xx_hal_tim.c:6154:1
	pop	{r4, pc}
.Ltmp167:
.Lfunc_end12:
	.size	TIM_DMAError, .Lfunc_end12-TIM_DMAError
	.cfi_endproc
	.cantunwind
	.fnend
                                        @ -- End function
	.section	.text.HAL_TIM_Base_Stop_DMA,"ax",%progbits
	.hidden	HAL_TIM_Base_Stop_DMA           @ -- Begin function HAL_TIM_Base_Stop_DMA
	.globl	HAL_TIM_Base_Stop_DMA
	.p2align	2
	.type	HAL_TIM_Base_Stop_DMA,%function
	.code	16                              @ @HAL_TIM_Base_Stop_DMA
	.thumb_func
HAL_TIM_Base_Stop_DMA:
.Lfunc_begin13:
	.loc	7 598 0                         @ ../Drivers/STM32L0xx_HAL_Driver/Src/stm32l0xx_hal_tim.c:598:0
	.fnstart
	.cfi_startproc
@ %bb.0:
	@DEBUG_VALUE: HAL_TIM_Base_Stop_DMA:htim <- $r0
	.save	{r4, r5, r7, lr}
	push	{r4, r5, r7, lr}
	.cfi_def_cfa_offset 16
	.cfi_offset lr, -4
	.cfi_offset r7, -8
	.cfi_offset r5, -12
	.cfi_offset r4, -16
	mov	r4, r0
.Ltmp168:
	@DEBUG_VALUE: HAL_TIM_Base_Stop_DMA:htim <- $r4
	movs	r5, #1
	lsls	r0, r5, #8
.Ltmp169:
	.loc	7 603 3 prologue_end            @ ../Drivers/STM32L0xx_HAL_Driver/Src/stm32l0xx_hal_tim.c:603:3
	ldr	r1, [r4]
	ldr	r2, [r1, #12]
	bics	r2, r0
	str	r2, [r1, #12]
	.loc	7 605 26                        @ ../Drivers/STM32L0xx_HAL_Driver/Src/stm32l0xx_hal_tim.c:605:26
	ldr	r0, [r4, #28]
	.loc	7 605 9 is_stmt 0               @ ../Drivers/STM32L0xx_HAL_Driver/Src/stm32l0xx_hal_tim.c:605:9
	bl	HAL_DMA_Abort_IT
.Ltmp170:
	.loc	7 608 3 is_stmt 1               @ ../Drivers/STM32L0xx_HAL_Driver/Src/stm32l0xx_hal_tim.c:608:3
	ldr	r0, [r4]
	ldr	r1, [r0, #32]
	ldr	r2, __arm_cp.13_0
.Ltmp171:
	.loc	7 608 3 is_stmt 0               @ ../Drivers/STM32L0xx_HAL_Driver/Src/stm32l0xx_hal_tim.c:608:3
	tst	r1, r2
	bne	.LBB13_2
.Ltmp172:
@ %bb.1:
	@DEBUG_VALUE: HAL_TIM_Base_Stop_DMA:htim <- $r4
	.loc	7 608 3                         @ ../Drivers/STM32L0xx_HAL_Driver/Src/stm32l0xx_hal_tim.c:608:3
	ldr	r1, [r0]
	bics	r1, r5
	str	r1, [r0]
.Ltmp173:
.LBB13_2:
	@DEBUG_VALUE: HAL_TIM_Base_Stop_DMA:htim <- $r4
	.loc	7 0 3                           @ ../Drivers/STM32L0xx_HAL_Driver/Src/stm32l0xx_hal_tim.c:0:3
	movs	r0, #57
	.loc	7 611 15 is_stmt 1              @ ../Drivers/STM32L0xx_HAL_Driver/Src/stm32l0xx_hal_tim.c:611:15
	strb	r5, [r4, r0]
	movs	r0, #0
	.loc	7 614 3                         @ ../Drivers/STM32L0xx_HAL_Driver/Src/stm32l0xx_hal_tim.c:614:3
	pop	{r4, r5, r7, pc}
.Ltmp174:
	.p2align	2
@ %bb.3:
	.loc	7 0 3 is_stmt 0                 @ ../Drivers/STM32L0xx_HAL_Driver/Src/stm32l0xx_hal_tim.c:0:3
__arm_cp.13_0:
	.long	4369                            @ 0x1111
.Lcpi_end22:
	.size	__arm_cp.13_0, .Lcpi_end22-__arm_cp.13_0
.Lfunc_end13:
	.size	HAL_TIM_Base_Stop_DMA, .Lfunc_end13-HAL_TIM_Base_Stop_DMA
	.cfi_endproc
	.cantunwind
	.fnend
                                        @ -- End function
	.section	.text.HAL_TIM_OC_Init,"ax",%progbits
	.hidden	HAL_TIM_OC_Init                 @ -- Begin function HAL_TIM_OC_Init
	.globl	HAL_TIM_OC_Init
	.p2align	1
	.type	HAL_TIM_OC_Init,%function
	.code	16                              @ @HAL_TIM_OC_Init
	.thumb_func
HAL_TIM_OC_Init:
.Lfunc_begin14:
	.loc	7 653 0 is_stmt 1               @ ../Drivers/STM32L0xx_HAL_Driver/Src/stm32l0xx_hal_tim.c:653:0
	.fnstart
	.cfi_startproc
@ %bb.0:
	@DEBUG_VALUE: HAL_TIM_OC_Init:htim <- $r0
	@DEBUG_VALUE: HAL_TIM_OC_Init:htim <- $r0
	.save	{r4, r5, r6, lr}
	push	{r4, r5, r6, lr}
	.cfi_def_cfa_offset 16
	.cfi_offset lr, -4
	.cfi_offset r6, -8
	.cfi_offset r5, -12
	.cfi_offset r4, -16
.Ltmp175:
	.loc	7 655 7 prologue_end            @ ../Drivers/STM32L0xx_HAL_Driver/Src/stm32l0xx_hal_tim.c:655:7
	cmp	r0, #0
	beq	.LBB14_4
.Ltmp176:
@ %bb.1:
	@DEBUG_VALUE: HAL_TIM_OC_Init:htim <- $r0
	.loc	7 0 7 is_stmt 0                 @ ../Drivers/STM32L0xx_HAL_Driver/Src/stm32l0xx_hal_tim.c:0:7
	mov	r4, r0
.Ltmp177:
	@DEBUG_VALUE: HAL_TIM_OC_Init:htim <- $r4
	mov	r5, r0
	adds	r5, #56
	mov	r6, r0
	adds	r6, #58
.Ltmp178:
	.loc	7 668 13 is_stmt 1              @ ../Drivers/STM32L0xx_HAL_Driver/Src/stm32l0xx_hal_tim.c:668:13
	ldrb	r0, [r5, #1]
.Ltmp179:
	.loc	7 668 7 is_stmt 0               @ ../Drivers/STM32L0xx_HAL_Driver/Src/stm32l0xx_hal_tim.c:668:7
	cmp	r0, #0
	bne	.LBB14_3
.Ltmp180:
@ %bb.2:
	@DEBUG_VALUE: HAL_TIM_OC_Init:htim <- $r4
	.loc	7 0 7                           @ ../Drivers/STM32L0xx_HAL_Driver/Src/stm32l0xx_hal_tim.c:0:7
	movs	r0, #0
.Ltmp181:
	.loc	7 671 16 is_stmt 1              @ ../Drivers/STM32L0xx_HAL_Driver/Src/stm32l0xx_hal_tim.c:671:16
	strb	r0, [r5]
	.loc	7 685 5                         @ ../Drivers/STM32L0xx_HAL_Driver/Src/stm32l0xx_hal_tim.c:685:5
	mov	r0, r4
	bl	HAL_TIM_OC_MspInit
.Ltmp182:
.LBB14_3:
	@DEBUG_VALUE: HAL_TIM_OC_Init:htim <- $r4
	.loc	7 0 5 is_stmt 0                 @ ../Drivers/STM32L0xx_HAL_Driver/Src/stm32l0xx_hal_tim.c:0:5
	movs	r0, #2
	.loc	7 690 15 is_stmt 1              @ ../Drivers/STM32L0xx_HAL_Driver/Src/stm32l0xx_hal_tim.c:690:15
	strb	r0, [r5, #1]
	.loc	7 693 28                        @ ../Drivers/STM32L0xx_HAL_Driver/Src/stm32l0xx_hal_tim.c:693:28
	ldm	r4!, {r0}
.Ltmp183:
	@DEBUG_VALUE: HAL_TIM_OC_Init:htim <- [DW_OP_LLVM_entry_value 1] $r0
	.loc	7 693 3 is_stmt 0               @ ../Drivers/STM32L0xx_HAL_Driver/Src/stm32l0xx_hal_tim.c:693:3
	mov	r1, r4
	bl	TIM_Base_SetConfig
.Ltmp184:
	.loc	7 0 3                           @ ../Drivers/STM32L0xx_HAL_Driver/Src/stm32l0xx_hal_tim.c:0:3
	movs	r0, #1
	.loc	7 696 23 is_stmt 1              @ ../Drivers/STM32L0xx_HAL_Driver/Src/stm32l0xx_hal_tim.c:696:23
	strb	r0, [r6, #4]
.Ltmp185:
	.loc	7 699 3                         @ ../Drivers/STM32L0xx_HAL_Driver/Src/stm32l0xx_hal_tim.c:699:3
	strb	r0, [r6]
	strb	r0, [r6, #1]
	strb	r0, [r6, #2]
	strb	r0, [r6, #3]
.Ltmp186:
	.loc	7 702 15                        @ ../Drivers/STM32L0xx_HAL_Driver/Src/stm32l0xx_hal_tim.c:702:15
	strb	r0, [r5, #1]
	movs	r0, #0
	.loc	7 705 1                         @ ../Drivers/STM32L0xx_HAL_Driver/Src/stm32l0xx_hal_tim.c:705:1
	pop	{r4, r5, r6, pc}
.Ltmp187:
.LBB14_4:
	@DEBUG_VALUE: HAL_TIM_OC_Init:htim <- $r0
	.loc	7 0 1 is_stmt 0                 @ ../Drivers/STM32L0xx_HAL_Driver/Src/stm32l0xx_hal_tim.c:0:1
	movs	r0, #1
.Ltmp188:
	@DEBUG_VALUE: HAL_TIM_OC_Init:htim <- [DW_OP_LLVM_entry_value 1] $r0
	.loc	7 705 1                         @ ../Drivers/STM32L0xx_HAL_Driver/Src/stm32l0xx_hal_tim.c:705:1
	pop	{r4, r5, r6, pc}
.Ltmp189:
.Lfunc_end14:
	.size	HAL_TIM_OC_Init, .Lfunc_end14-HAL_TIM_OC_Init
	.cfi_endproc
	.cantunwind
	.fnend
                                        @ -- End function
	.section	.text.HAL_TIM_OC_MspInit,"ax",%progbits
	.hidden	HAL_TIM_OC_MspInit              @ -- Begin function HAL_TIM_OC_MspInit
	.weak	HAL_TIM_OC_MspInit
	.p2align	1
	.type	HAL_TIM_OC_MspInit,%function
	.code	16                              @ @HAL_TIM_OC_MspInit
	.thumb_func
HAL_TIM_OC_MspInit:
.Lfunc_begin15:
	.loc	7 755 0 is_stmt 1               @ ../Drivers/STM32L0xx_HAL_Driver/Src/stm32l0xx_hal_tim.c:755:0
	.fnstart
	.cfi_startproc
@ %bb.0:
	@DEBUG_VALUE: HAL_TIM_OC_MspInit:htim <- $r0
	.loc	7 762 1 prologue_end            @ ../Drivers/STM32L0xx_HAL_Driver/Src/stm32l0xx_hal_tim.c:762:1
	bx	lr
.Ltmp190:
.Lfunc_end15:
	.size	HAL_TIM_OC_MspInit, .Lfunc_end15-HAL_TIM_OC_MspInit
	.cfi_endproc
	.cantunwind
	.fnend
                                        @ -- End function
	.section	.text.HAL_TIM_OC_DeInit,"ax",%progbits
	.hidden	HAL_TIM_OC_DeInit               @ -- Begin function HAL_TIM_OC_DeInit
	.globl	HAL_TIM_OC_DeInit
	.p2align	2
	.type	HAL_TIM_OC_DeInit,%function
	.code	16                              @ @HAL_TIM_OC_DeInit
	.thumb_func
HAL_TIM_OC_DeInit:
.Lfunc_begin16:
	.loc	7 713 0                         @ ../Drivers/STM32L0xx_HAL_Driver/Src/stm32l0xx_hal_tim.c:713:0
	.fnstart
	.cfi_startproc
@ %bb.0:
	@DEBUG_VALUE: HAL_TIM_OC_DeInit:htim <- $r0
	.save	{r4, r5, r7, lr}
	push	{r4, r5, r7, lr}
	.cfi_def_cfa_offset 16
	.cfi_offset lr, -4
	.cfi_offset r7, -8
	.cfi_offset r5, -12
	.cfi_offset r4, -16
.Ltmp191:
	.loc	7 0 0 is_stmt 0                 @ ../Drivers/STM32L0xx_HAL_Driver/Src/stm32l0xx_hal_tim.c:0:0
	mov	r4, r0
	adds	r4, #56
	movs	r1, #2
	.loc	7 717 15 prologue_end is_stmt 1 @ ../Drivers/STM32L0xx_HAL_Driver/Src/stm32l0xx_hal_tim.c:717:15
	strb	r1, [r4, #1]
	.loc	7 0 0 is_stmt 0                 @ ../Drivers/STM32L0xx_HAL_Driver/Src/stm32l0xx_hal_tim.c:0:0
	mov	r5, r0
	adds	r5, #58
.Ltmp192:
	.loc	7 720 3 is_stmt 1               @ ../Drivers/STM32L0xx_HAL_Driver/Src/stm32l0xx_hal_tim.c:720:3
	ldr	r1, [r0]
	ldr	r2, [r1, #32]
	ldr	r3, __arm_cp.16_0
.Ltmp193:
	.loc	7 720 3 is_stmt 0               @ ../Drivers/STM32L0xx_HAL_Driver/Src/stm32l0xx_hal_tim.c:720:3
	tst	r2, r3
	bne	.LBB16_2
.Ltmp194:
@ %bb.1:
	@DEBUG_VALUE: HAL_TIM_OC_DeInit:htim <- $r0
	.loc	7 720 3                         @ ../Drivers/STM32L0xx_HAL_Driver/Src/stm32l0xx_hal_tim.c:720:3
	ldr	r2, [r1]
	movs	r3, #1
	bics	r2, r3
	str	r2, [r1]
.Ltmp195:
.LBB16_2:
	@DEBUG_VALUE: HAL_TIM_OC_DeInit:htim <- $r0
	.loc	7 731 3 is_stmt 1               @ ../Drivers/STM32L0xx_HAL_Driver/Src/stm32l0xx_hal_tim.c:731:3
	bl	HAL_TIM_OC_MspDeInit
.Ltmp196:
	@DEBUG_VALUE: HAL_TIM_OC_DeInit:htim <- [DW_OP_LLVM_entry_value 1] $r0
	.loc	7 0 3 is_stmt 0                 @ ../Drivers/STM32L0xx_HAL_Driver/Src/stm32l0xx_hal_tim.c:0:3
	movs	r0, #0
	.loc	7 735 23 is_stmt 1              @ ../Drivers/STM32L0xx_HAL_Driver/Src/stm32l0xx_hal_tim.c:735:23
	strb	r0, [r5, #4]
.Ltmp197:
	.loc	7 738 3                         @ ../Drivers/STM32L0xx_HAL_Driver/Src/stm32l0xx_hal_tim.c:738:3
	strb	r0, [r5]
	strb	r0, [r5, #1]
	strb	r0, [r5, #2]
	strb	r0, [r5, #3]
.Ltmp198:
	.loc	7 744 3                         @ ../Drivers/STM32L0xx_HAL_Driver/Src/stm32l0xx_hal_tim.c:744:3
	strb	r0, [r4]
.Ltmp199:
	.loc	7 741 15                        @ ../Drivers/STM32L0xx_HAL_Driver/Src/stm32l0xx_hal_tim.c:741:15
	strb	r0, [r4, #1]
	.loc	7 746 3                         @ ../Drivers/STM32L0xx_HAL_Driver/Src/stm32l0xx_hal_tim.c:746:3
	pop	{r4, r5, r7, pc}
.Ltmp200:
	.p2align	2
@ %bb.3:
	.loc	7 0 3 is_stmt 0                 @ ../Drivers/STM32L0xx_HAL_Driver/Src/stm32l0xx_hal_tim.c:0:3
__arm_cp.16_0:
	.long	4369                            @ 0x1111
.Lcpi_end23:
	.size	__arm_cp.16_0, .Lcpi_end23-__arm_cp.16_0
.Lfunc_end16:
	.size	HAL_TIM_OC_DeInit, .Lfunc_end16-HAL_TIM_OC_DeInit
	.cfi_endproc
	.cantunwind
	.fnend
                                        @ -- End function
	.section	.text.HAL_TIM_OC_MspDeInit,"ax",%progbits
	.hidden	HAL_TIM_OC_MspDeInit            @ -- Begin function HAL_TIM_OC_MspDeInit
	.weak	HAL_TIM_OC_MspDeInit
	.p2align	1
	.type	HAL_TIM_OC_MspDeInit,%function
	.code	16                              @ @HAL_TIM_OC_MspDeInit
	.thumb_func
HAL_TIM_OC_MspDeInit:
.Lfunc_begin17:
	.loc	7 770 0 is_stmt 1               @ ../Drivers/STM32L0xx_HAL_Driver/Src/stm32l0xx_hal_tim.c:770:0
	.fnstart
	.cfi_startproc
@ %bb.0:
	@DEBUG_VALUE: HAL_TIM_OC_MspDeInit:htim <- $r0
	.loc	7 777 1 prologue_end            @ ../Drivers/STM32L0xx_HAL_Driver/Src/stm32l0xx_hal_tim.c:777:1
	bx	lr
.Ltmp201:
.Lfunc_end17:
	.size	HAL_TIM_OC_MspDeInit, .Lfunc_end17-HAL_TIM_OC_MspDeInit
	.cfi_endproc
	.cantunwind
	.fnend
                                        @ -- End function
	.section	.text.HAL_TIM_OC_Start,"ax",%progbits
	.hidden	HAL_TIM_OC_Start                @ -- Begin function HAL_TIM_OC_Start
	.globl	HAL_TIM_OC_Start
	.p2align	2
	.type	HAL_TIM_OC_Start,%function
	.code	16                              @ @HAL_TIM_OC_Start
	.thumb_func
HAL_TIM_OC_Start:
.Lfunc_begin18:
	.loc	7 791 0                         @ ../Drivers/STM32L0xx_HAL_Driver/Src/stm32l0xx_hal_tim.c:791:0
	.fnstart
	.cfi_startproc
@ %bb.0:
	@DEBUG_VALUE: HAL_TIM_OC_Start:htim <- $r0
	@DEBUG_VALUE: HAL_TIM_OC_Start:Channel <- $r1
	.loc	7 0 0 is_stmt 0                 @ ../Drivers/STM32L0xx_HAL_Driver/Src/stm32l0xx_hal_tim.c:0:0
	mov	r2, r0
	adds	r2, #58
.Ltmp202:
	.loc	7 798 7 prologue_end is_stmt 1  @ ../Drivers/STM32L0xx_HAL_Driver/Src/stm32l0xx_hal_tim.c:798:7
	cmp	r1, #0
	beq	.LBB18_4
.Ltmp203:
@ %bb.1:
	@DEBUG_VALUE: HAL_TIM_OC_Start:Channel <- $r1
	@DEBUG_VALUE: HAL_TIM_OC_Start:htim <- $r0
	cmp	r1, #8
	beq	.LBB18_6
.Ltmp204:
@ %bb.2:
	@DEBUG_VALUE: HAL_TIM_OC_Start:Channel <- $r1
	@DEBUG_VALUE: HAL_TIM_OC_Start:htim <- $r0
	cmp	r1, #4
	bne	.LBB18_7
.Ltmp205:
@ %bb.3:
	@DEBUG_VALUE: HAL_TIM_OC_Start:Channel <- $r1
	@DEBUG_VALUE: HAL_TIM_OC_Start:htim <- $r0
	adds	r3, r2, #1
	b	.LBB18_8
.Ltmp206:
.LBB18_4:
	@DEBUG_VALUE: HAL_TIM_OC_Start:Channel <- $r1
	@DEBUG_VALUE: HAL_TIM_OC_Start:htim <- $r0
	ldrb	r3, [r2]
.Ltmp207:
	.loc	7 798 7 is_stmt 0               @ ../Drivers/STM32L0xx_HAL_Driver/Src/stm32l0xx_hal_tim.c:798:7
	cmp	r3, #1
	bne	.LBB18_12
.Ltmp208:
@ %bb.5:
	@DEBUG_VALUE: HAL_TIM_OC_Start:Channel <- $r1
	@DEBUG_VALUE: HAL_TIM_OC_Start:htim <- $r0
	.loc	7 0 7                           @ ../Drivers/STM32L0xx_HAL_Driver/Src/stm32l0xx_hal_tim.c:0:7
	movs	r3, #2
	.loc	7 804 3 is_stmt 1               @ ../Drivers/STM32L0xx_HAL_Driver/Src/stm32l0xx_hal_tim.c:804:3
	strb	r3, [r2]
	b	.LBB18_15
.Ltmp209:
.LBB18_6:
	@DEBUG_VALUE: HAL_TIM_OC_Start:Channel <- $r1
	@DEBUG_VALUE: HAL_TIM_OC_Start:htim <- $r0
	.loc	7 798 7                         @ ../Drivers/STM32L0xx_HAL_Driver/Src/stm32l0xx_hal_tim.c:798:7
	adds	r3, r2, #2
	b	.LBB18_8
.Ltmp210:
.LBB18_7:
	@DEBUG_VALUE: HAL_TIM_OC_Start:Channel <- $r1
	@DEBUG_VALUE: HAL_TIM_OC_Start:htim <- $r0
	adds	r3, r2, #3
.Ltmp211:
.LBB18_8:
	@DEBUG_VALUE: HAL_TIM_OC_Start:Channel <- $r1
	@DEBUG_VALUE: HAL_TIM_OC_Start:htim <- $r0
	ldrb	r3, [r3]
.Ltmp212:
	.loc	7 798 7 is_stmt 0               @ ../Drivers/STM32L0xx_HAL_Driver/Src/stm32l0xx_hal_tim.c:798:7
	cmp	r3, #1
	bne	.LBB18_12
.Ltmp213:
@ %bb.9:
	@DEBUG_VALUE: HAL_TIM_OC_Start:Channel <- $r1
	@DEBUG_VALUE: HAL_TIM_OC_Start:htim <- $r0
	.loc	7 0 7                           @ ../Drivers/STM32L0xx_HAL_Driver/Src/stm32l0xx_hal_tim.c:0:7
	movs	r3, #2
	.loc	7 804 3 is_stmt 1               @ ../Drivers/STM32L0xx_HAL_Driver/Src/stm32l0xx_hal_tim.c:804:3
	cmp	r1, #8
	beq	.LBB18_13
.Ltmp214:
@ %bb.10:
	@DEBUG_VALUE: HAL_TIM_OC_Start:Channel <- $r1
	@DEBUG_VALUE: HAL_TIM_OC_Start:htim <- $r0
	cmp	r1, #4
	bne	.LBB18_14
.Ltmp215:
@ %bb.11:
	@DEBUG_VALUE: HAL_TIM_OC_Start:Channel <- $r1
	@DEBUG_VALUE: HAL_TIM_OC_Start:htim <- $r0
	strb	r3, [r2, #1]
	b	.LBB18_15
.Ltmp216:
.LBB18_12:
	@DEBUG_VALUE: HAL_TIM_OC_Start:Channel <- $r1
	@DEBUG_VALUE: HAL_TIM_OC_Start:htim <- $r0
	.loc	7 0 3 is_stmt 0                 @ ../Drivers/STM32L0xx_HAL_Driver/Src/stm32l0xx_hal_tim.c:0:3
	movs	r0, #1
.Ltmp217:
	@DEBUG_VALUE: HAL_TIM_OC_Start:htim <- [DW_OP_LLVM_entry_value 1] $r0
	.loc	7 825 1 is_stmt 1               @ ../Drivers/STM32L0xx_HAL_Driver/Src/stm32l0xx_hal_tim.c:825:1
	bx	lr
.Ltmp218:
.LBB18_13:
	@DEBUG_VALUE: HAL_TIM_OC_Start:Channel <- $r1
	@DEBUG_VALUE: HAL_TIM_OC_Start:htim <- $r0
	.loc	7 804 3                         @ ../Drivers/STM32L0xx_HAL_Driver/Src/stm32l0xx_hal_tim.c:804:3
	strb	r3, [r2, #2]
	b	.LBB18_15
.Ltmp219:
.LBB18_14:
	@DEBUG_VALUE: HAL_TIM_OC_Start:Channel <- $r1
	@DEBUG_VALUE: HAL_TIM_OC_Start:htim <- $r0
	strb	r3, [r2, #3]
.Ltmp220:
.LBB18_15:
	@DEBUG_VALUE: HAL_TIM_OC_Start:Channel <- $r1
	@DEBUG_VALUE: HAL_TIM_OC_Start:htim <- $r0
	.loc	7 0 3 is_stmt 0                 @ ../Drivers/STM32L0xx_HAL_Driver/Src/stm32l0xx_hal_tim.c:0:3
	movs	r2, #31
.Ltmp221:
	@DEBUG_VALUE: TIM_CCxChannelCmd:ChannelState <- 1
	@DEBUG_VALUE: TIM_CCxChannelCmd:Channel <- $r1
	.loc	7 7130 35 is_stmt 1             @ ../Drivers/STM32L0xx_HAL_Driver/Src/stm32l0xx_hal_tim.c:7130:35
	ands	r1, r2
.Ltmp222:
	@DEBUG_VALUE: HAL_TIM_OC_Start:Channel <- [DW_OP_LLVM_entry_value 1] $r1
	.loc	7 0 35 is_stmt 0                @ ../Drivers/STM32L0xx_HAL_Driver/Src/stm32l0xx_hal_tim.c:0:35
	movs	r2, #1
	.loc	7 7130 23                       @ ../Drivers/STM32L0xx_HAL_Driver/Src/stm32l0xx_hal_tim.c:7130:23
	mov	r3, r2
	lsls	r3, r1
.Ltmp223:
	@DEBUG_VALUE: TIM_CCxChannelCmd:tmp <- $r3
	.loc	7 807 27 is_stmt 1              @ ../Drivers/STM32L0xx_HAL_Driver/Src/stm32l0xx_hal_tim.c:807:27
	ldr	r0, [r0]
.Ltmp224:
	@DEBUG_VALUE: HAL_TIM_OC_Start:htim <- [DW_OP_LLVM_entry_value 1] $r0
	@DEBUG_VALUE: TIM_CCxChannelCmd:TIMx <- $r0
	.loc	7 7133 14                       @ ../Drivers/STM32L0xx_HAL_Driver/Src/stm32l0xx_hal_tim.c:7133:14
	ldr	r1, [r0, #32]
	@DEBUG_VALUE: TIM_CCxChannelCmd:ChannelState <- 1
	bics	r1, r3
	str	r1, [r0, #32]
	.loc	7 7136 14                       @ ../Drivers/STM32L0xx_HAL_Driver/Src/stm32l0xx_hal_tim.c:7136:14
	ldr	r1, [r0, #32]
	orrs	r1, r3
	str	r1, [r0, #32]
	ldr	r1, __arm_cp.18_0
.Ltmp225:
	.loc	7 810 7                         @ ../Drivers/STM32L0xx_HAL_Driver/Src/stm32l0xx_hal_tim.c:810:7
	cmp	r0, r1
	bgt	.LBB18_18
.Ltmp226:
@ %bb.16:
	@DEBUG_VALUE: HAL_TIM_OC_Start:Channel <- [DW_OP_LLVM_entry_value 1] $r1
	@DEBUG_VALUE: HAL_TIM_OC_Start:htim <- [DW_OP_LLVM_entry_value 1] $r0
	.loc	7 0 7 is_stmt 0                 @ ../Drivers/STM32L0xx_HAL_Driver/Src/stm32l0xx_hal_tim.c:0:7
	lsls	r1, r2, #30
	.loc	7 810 7                         @ ../Drivers/STM32L0xx_HAL_Driver/Src/stm32l0xx_hal_tim.c:810:7
	cmp	r0, r1
	beq	.LBB18_21
.Ltmp227:
@ %bb.17:
	@DEBUG_VALUE: HAL_TIM_OC_Start:Channel <- [DW_OP_LLVM_entry_value 1] $r1
	@DEBUG_VALUE: HAL_TIM_OC_Start:htim <- [DW_OP_LLVM_entry_value 1] $r0
	.loc	7 0 7                           @ ../Drivers/STM32L0xx_HAL_Driver/Src/stm32l0xx_hal_tim.c:0:7
	ldr	r1, __arm_cp.18_3
	b	.LBB18_20
.Ltmp228:
.LBB18_18:
	@DEBUG_VALUE: HAL_TIM_OC_Start:Channel <- [DW_OP_LLVM_entry_value 1] $r1
	@DEBUG_VALUE: HAL_TIM_OC_Start:htim <- [DW_OP_LLVM_entry_value 1] $r0
	ldr	r1, __arm_cp.18_1
	.loc	7 810 7                         @ ../Drivers/STM32L0xx_HAL_Driver/Src/stm32l0xx_hal_tim.c:810:7
	cmp	r0, r1
	beq	.LBB18_21
.Ltmp229:
@ %bb.19:
	@DEBUG_VALUE: HAL_TIM_OC_Start:Channel <- [DW_OP_LLVM_entry_value 1] $r1
	@DEBUG_VALUE: HAL_TIM_OC_Start:htim <- [DW_OP_LLVM_entry_value 1] $r0
	.loc	7 0 7                           @ ../Drivers/STM32L0xx_HAL_Driver/Src/stm32l0xx_hal_tim.c:0:7
	ldr	r1, __arm_cp.18_2
.Ltmp230:
.LBB18_20:
	@DEBUG_VALUE: HAL_TIM_OC_Start:Channel <- [DW_OP_LLVM_entry_value 1] $r1
	@DEBUG_VALUE: HAL_TIM_OC_Start:htim <- [DW_OP_LLVM_entry_value 1] $r0
	.loc	7 810 7                         @ ../Drivers/STM32L0xx_HAL_Driver/Src/stm32l0xx_hal_tim.c:810:7
	cmp	r0, r1
	bne	.LBB18_22
.Ltmp231:
.LBB18_21:
	@DEBUG_VALUE: HAL_TIM_OC_Start:Channel <- [DW_OP_LLVM_entry_value 1] $r1
	@DEBUG_VALUE: HAL_TIM_OC_Start:htim <- [DW_OP_LLVM_entry_value 1] $r0
	.loc	7 812 31 is_stmt 1              @ ../Drivers/STM32L0xx_HAL_Driver/Src/stm32l0xx_hal_tim.c:812:31
	ldr	r1, [r0, #8]
	movs	r3, #7
	.loc	7 812 36 is_stmt 0              @ ../Drivers/STM32L0xx_HAL_Driver/Src/stm32l0xx_hal_tim.c:812:36
	ands	r3, r1
.Ltmp232:
	@DEBUG_VALUE: HAL_TIM_OC_Start:tmpsmcr <- $r3
	.loc	7 813 9 is_stmt 1               @ ../Drivers/STM32L0xx_HAL_Driver/Src/stm32l0xx_hal_tim.c:813:9
	cmp	r3, #6
	beq	.LBB18_23
.Ltmp233:
.LBB18_22:
	@DEBUG_VALUE: HAL_TIM_OC_Start:Channel <- [DW_OP_LLVM_entry_value 1] $r1
	@DEBUG_VALUE: HAL_TIM_OC_Start:htim <- [DW_OP_LLVM_entry_value 1] $r0
	.loc	7 0 0 is_stmt 0                 @ ../Drivers/STM32L0xx_HAL_Driver/Src/stm32l0xx_hal_tim.c:0:0
	ldr	r1, [r0]
	orrs	r1, r2
	str	r1, [r0]
.Ltmp234:
.LBB18_23:
	@DEBUG_VALUE: HAL_TIM_OC_Start:Channel <- [DW_OP_LLVM_entry_value 1] $r1
	@DEBUG_VALUE: HAL_TIM_OC_Start:htim <- [DW_OP_LLVM_entry_value 1] $r0
	movs	r0, #0
	.loc	7 825 1 is_stmt 1               @ ../Drivers/STM32L0xx_HAL_Driver/Src/stm32l0xx_hal_tim.c:825:1
	bx	lr
.Ltmp235:
	.p2align	2
@ %bb.24:
	.loc	7 0 1 is_stmt 0                 @ ../Drivers/STM32L0xx_HAL_Driver/Src/stm32l0xx_hal_tim.c:0:1
__arm_cp.18_0:
	.long	1073809407                      @ 0x400107ff
.Lcpi_end24:
	.size	__arm_cp.18_0, .Lcpi_end24-__arm_cp.18_0
__arm_cp.18_1:
	.long	1073812480                      @ 0x40011400
.Lcpi_end25:
	.size	__arm_cp.18_1, .Lcpi_end25-__arm_cp.18_1
__arm_cp.18_2:
	.long	1073809408                      @ 0x40010800
.Lcpi_end26:
	.size	__arm_cp.18_2, .Lcpi_end26-__arm_cp.18_2
__arm_cp.18_3:
	.long	1073742848                      @ 0x40000400
.Lcpi_end27:
	.size	__arm_cp.18_3, .Lcpi_end27-__arm_cp.18_3
.Lfunc_end18:
	.size	HAL_TIM_OC_Start, .Lfunc_end18-HAL_TIM_OC_Start
	.cfi_endproc
	.cantunwind
	.fnend
                                        @ -- End function
	.section	.text.HAL_TIM_OC_Stop,"ax",%progbits
	.hidden	HAL_TIM_OC_Stop                 @ -- Begin function HAL_TIM_OC_Stop
	.globl	HAL_TIM_OC_Stop
	.p2align	2
	.type	HAL_TIM_OC_Stop,%function
	.code	16                              @ @HAL_TIM_OC_Stop
	.thumb_func
HAL_TIM_OC_Stop:
.Lfunc_begin19:
	.loc	7 839 0 is_stmt 1               @ ../Drivers/STM32L0xx_HAL_Driver/Src/stm32l0xx_hal_tim.c:839:0
	.fnstart
	.cfi_startproc
@ %bb.0:
	@DEBUG_VALUE: HAL_TIM_OC_Stop:htim <- $r0
	@DEBUG_VALUE: HAL_TIM_OC_Stop:Channel <- $r1
	.save	{r4, r5, r7, lr}
	push	{r4, r5, r7, lr}
	.cfi_def_cfa_offset 16
	.cfi_offset lr, -4
	.cfi_offset r7, -8
	.cfi_offset r5, -12
	.cfi_offset r4, -16
	movs	r3, #31
.Ltmp236:
	@DEBUG_VALUE: TIM_CCxChannelCmd:ChannelState <- 0
	@DEBUG_VALUE: TIM_CCxChannelCmd:Channel <- $r1
	.loc	7 7130 35 prologue_end          @ ../Drivers/STM32L0xx_HAL_Driver/Src/stm32l0xx_hal_tim.c:7130:35
	ands	r3, r1
	movs	r2, #1
	.loc	7 7130 23 is_stmt 0             @ ../Drivers/STM32L0xx_HAL_Driver/Src/stm32l0xx_hal_tim.c:7130:23
	mov	r4, r2
	lsls	r4, r3
.Ltmp237:
	@DEBUG_VALUE: TIM_CCxChannelCmd:tmp <- $r4
	.loc	7 844 27 is_stmt 1              @ ../Drivers/STM32L0xx_HAL_Driver/Src/stm32l0xx_hal_tim.c:844:27
	ldr	r3, [r0]
.Ltmp238:
	@DEBUG_VALUE: TIM_CCxChannelCmd:TIMx <- $r3
	.loc	7 7133 14                       @ ../Drivers/STM32L0xx_HAL_Driver/Src/stm32l0xx_hal_tim.c:7133:14
	ldr	r5, [r3, #32]
	@DEBUG_VALUE: TIM_CCxChannelCmd:ChannelState <- 0
	bics	r5, r4
	str	r5, [r3, #32]
	.loc	7 7136 14                       @ ../Drivers/STM32L0xx_HAL_Driver/Src/stm32l0xx_hal_tim.c:7136:14
	ldr	r4, [r3, #32]
.Ltmp239:
	str	r4, [r3, #32]
.Ltmp240:
	.loc	7 847 3                         @ ../Drivers/STM32L0xx_HAL_Driver/Src/stm32l0xx_hal_tim.c:847:3
	ldr	r4, [r3, #32]
	ldr	r5, __arm_cp.19_0
.Ltmp241:
	.loc	7 847 3 is_stmt 0               @ ../Drivers/STM32L0xx_HAL_Driver/Src/stm32l0xx_hal_tim.c:847:3
	tst	r4, r5
	bne	.LBB19_2
.Ltmp242:
@ %bb.1:
	@DEBUG_VALUE: HAL_TIM_OC_Stop:Channel <- $r1
	@DEBUG_VALUE: HAL_TIM_OC_Stop:htim <- $r0
	.loc	7 847 3                         @ ../Drivers/STM32L0xx_HAL_Driver/Src/stm32l0xx_hal_tim.c:847:3
	ldr	r4, [r3]
	bics	r4, r2
	str	r4, [r3]
.Ltmp243:
.LBB19_2:
	@DEBUG_VALUE: HAL_TIM_OC_Stop:Channel <- $r1
	@DEBUG_VALUE: HAL_TIM_OC_Stop:htim <- $r0
	.loc	7 0 0                           @ ../Drivers/STM32L0xx_HAL_Driver/Src/stm32l0xx_hal_tim.c:0:0
	adds	r0, #58
.Ltmp244:
	@DEBUG_VALUE: HAL_TIM_OC_Stop:htim <- [DW_OP_LLVM_entry_value 1] $r0
	.loc	7 850 3 is_stmt 1               @ ../Drivers/STM32L0xx_HAL_Driver/Src/stm32l0xx_hal_tim.c:850:3
	cmp	r1, #8
	beq	.LBB19_6
.Ltmp245:
@ %bb.3:
	@DEBUG_VALUE: HAL_TIM_OC_Stop:htim <- [DW_OP_LLVM_entry_value 1] $r0
	@DEBUG_VALUE: HAL_TIM_OC_Stop:Channel <- $r1
	cmp	r1, #4
	beq	.LBB19_7
.Ltmp246:
@ %bb.4:
	@DEBUG_VALUE: HAL_TIM_OC_Stop:htim <- [DW_OP_LLVM_entry_value 1] $r0
	@DEBUG_VALUE: HAL_TIM_OC_Stop:Channel <- $r1
	cmp	r1, #0
	bne	.LBB19_8
.Ltmp247:
@ %bb.5:
	@DEBUG_VALUE: HAL_TIM_OC_Stop:htim <- [DW_OP_LLVM_entry_value 1] $r0
	@DEBUG_VALUE: HAL_TIM_OC_Stop:Channel <- $r1
	strb	r2, [r0]
	b	.LBB19_9
.Ltmp248:
.LBB19_6:
	@DEBUG_VALUE: HAL_TIM_OC_Stop:htim <- [DW_OP_LLVM_entry_value 1] $r0
	@DEBUG_VALUE: HAL_TIM_OC_Stop:Channel <- $r1
	strb	r2, [r0, #2]
	b	.LBB19_9
.Ltmp249:
.LBB19_7:
	@DEBUG_VALUE: HAL_TIM_OC_Stop:htim <- [DW_OP_LLVM_entry_value 1] $r0
	@DEBUG_VALUE: HAL_TIM_OC_Stop:Channel <- $r1
	strb	r2, [r0, #1]
	b	.LBB19_9
.Ltmp250:
.LBB19_8:
	@DEBUG_VALUE: HAL_TIM_OC_Stop:htim <- [DW_OP_LLVM_entry_value 1] $r0
	@DEBUG_VALUE: HAL_TIM_OC_Stop:Channel <- $r1
	strb	r2, [r0, #3]
.Ltmp251:
.LBB19_9:
	@DEBUG_VALUE: HAL_TIM_OC_Stop:htim <- [DW_OP_LLVM_entry_value 1] $r0
	@DEBUG_VALUE: HAL_TIM_OC_Stop:Channel <- $r1
	.loc	7 0 3 is_stmt 0                 @ ../Drivers/STM32L0xx_HAL_Driver/Src/stm32l0xx_hal_tim.c:0:3
	movs	r0, #0
	.loc	7 853 3 is_stmt 1               @ ../Drivers/STM32L0xx_HAL_Driver/Src/stm32l0xx_hal_tim.c:853:3
	pop	{r4, r5, r7, pc}
.Ltmp252:
	.p2align	2
@ %bb.10:
	.loc	7 0 3 is_stmt 0                 @ ../Drivers/STM32L0xx_HAL_Driver/Src/stm32l0xx_hal_tim.c:0:3
__arm_cp.19_0:
	.long	4369                            @ 0x1111
.Lcpi_end28:
	.size	__arm_cp.19_0, .Lcpi_end28-__arm_cp.19_0
.Lfunc_end19:
	.size	HAL_TIM_OC_Stop, .Lfunc_end19-HAL_TIM_OC_Stop
	.cfi_endproc
	.cantunwind
	.fnend
                                        @ -- End function
	.section	.text.HAL_TIM_OC_Start_IT,"ax",%progbits
	.hidden	HAL_TIM_OC_Start_IT             @ -- Begin function HAL_TIM_OC_Start_IT
	.globl	HAL_TIM_OC_Start_IT
	.p2align	2
	.type	HAL_TIM_OC_Start_IT,%function
	.code	16                              @ @HAL_TIM_OC_Start_IT
	.thumb_func
HAL_TIM_OC_Start_IT:
.Lfunc_begin20:
	.loc	7 868 0 is_stmt 1               @ ../Drivers/STM32L0xx_HAL_Driver/Src/stm32l0xx_hal_tim.c:868:0
	.fnstart
	.cfi_startproc
@ %bb.0:
	@DEBUG_VALUE: HAL_TIM_OC_Start_IT:htim <- $r0
	@DEBUG_VALUE: HAL_TIM_OC_Start_IT:Channel <- $r1
	.loc	7 0 0 is_stmt 0                 @ ../Drivers/STM32L0xx_HAL_Driver/Src/stm32l0xx_hal_tim.c:0:0
	mov	r2, r0
	adds	r2, #58
.Ltmp253:
	@DEBUG_VALUE: HAL_TIM_OC_Start_IT:status <- 0
	.loc	7 876 7 prologue_end is_stmt 1  @ ../Drivers/STM32L0xx_HAL_Driver/Src/stm32l0xx_hal_tim.c:876:7
	cmp	r1, #0
	beq	.LBB20_4
.Ltmp254:
@ %bb.1:
	@DEBUG_VALUE: HAL_TIM_OC_Start_IT:status <- 0
	@DEBUG_VALUE: HAL_TIM_OC_Start_IT:Channel <- $r1
	@DEBUG_VALUE: HAL_TIM_OC_Start_IT:htim <- $r0
	cmp	r1, #8
	beq	.LBB20_6
.Ltmp255:
@ %bb.2:
	@DEBUG_VALUE: HAL_TIM_OC_Start_IT:status <- 0
	@DEBUG_VALUE: HAL_TIM_OC_Start_IT:Channel <- $r1
	@DEBUG_VALUE: HAL_TIM_OC_Start_IT:htim <- $r0
	cmp	r1, #4
	bne	.LBB20_7
.Ltmp256:
@ %bb.3:
	@DEBUG_VALUE: HAL_TIM_OC_Start_IT:status <- 0
	@DEBUG_VALUE: HAL_TIM_OC_Start_IT:Channel <- $r1
	@DEBUG_VALUE: HAL_TIM_OC_Start_IT:htim <- $r0
	adds	r3, r2, #1
	b	.LBB20_8
.Ltmp257:
.LBB20_4:
	@DEBUG_VALUE: HAL_TIM_OC_Start_IT:status <- 0
	@DEBUG_VALUE: HAL_TIM_OC_Start_IT:Channel <- $r1
	@DEBUG_VALUE: HAL_TIM_OC_Start_IT:htim <- $r0
	ldrb	r3, [r2]
.Ltmp258:
	.loc	7 876 7 is_stmt 0               @ ../Drivers/STM32L0xx_HAL_Driver/Src/stm32l0xx_hal_tim.c:876:7
	cmp	r3, #1
	bne	.LBB20_18
.Ltmp259:
@ %bb.5:
	@DEBUG_VALUE: HAL_TIM_OC_Start_IT:status <- 0
	@DEBUG_VALUE: HAL_TIM_OC_Start_IT:Channel <- $r1
	@DEBUG_VALUE: HAL_TIM_OC_Start_IT:htim <- $r0
	.loc	7 0 7                           @ ../Drivers/STM32L0xx_HAL_Driver/Src/stm32l0xx_hal_tim.c:0:7
	movs	r3, #2
	.loc	7 882 3 is_stmt 1               @ ../Drivers/STM32L0xx_HAL_Driver/Src/stm32l0xx_hal_tim.c:882:3
	strb	r3, [r2]
	b	.LBB20_14
.Ltmp260:
.LBB20_6:
	@DEBUG_VALUE: HAL_TIM_OC_Start_IT:status <- 0
	@DEBUG_VALUE: HAL_TIM_OC_Start_IT:Channel <- $r1
	@DEBUG_VALUE: HAL_TIM_OC_Start_IT:htim <- $r0
	.loc	7 876 7                         @ ../Drivers/STM32L0xx_HAL_Driver/Src/stm32l0xx_hal_tim.c:876:7
	adds	r3, r2, #2
	b	.LBB20_8
.Ltmp261:
.LBB20_7:
	@DEBUG_VALUE: HAL_TIM_OC_Start_IT:status <- 0
	@DEBUG_VALUE: HAL_TIM_OC_Start_IT:Channel <- $r1
	@DEBUG_VALUE: HAL_TIM_OC_Start_IT:htim <- $r0
	adds	r3, r2, #3
.Ltmp262:
.LBB20_8:
	@DEBUG_VALUE: HAL_TIM_OC_Start_IT:status <- 0
	@DEBUG_VALUE: HAL_TIM_OC_Start_IT:Channel <- $r1
	@DEBUG_VALUE: HAL_TIM_OC_Start_IT:htim <- $r0
	ldrb	r3, [r3]
.Ltmp263:
	.loc	7 876 7 is_stmt 0               @ ../Drivers/STM32L0xx_HAL_Driver/Src/stm32l0xx_hal_tim.c:876:7
	cmp	r3, #1
	bne	.LBB20_18
.Ltmp264:
@ %bb.9:
	@DEBUG_VALUE: HAL_TIM_OC_Start_IT:status <- 0
	@DEBUG_VALUE: HAL_TIM_OC_Start_IT:Channel <- $r1
	@DEBUG_VALUE: HAL_TIM_OC_Start_IT:htim <- $r0
	.loc	7 0 7                           @ ../Drivers/STM32L0xx_HAL_Driver/Src/stm32l0xx_hal_tim.c:0:7
	movs	r3, #2
	.loc	7 882 3 is_stmt 1               @ ../Drivers/STM32L0xx_HAL_Driver/Src/stm32l0xx_hal_tim.c:882:3
	cmp	r1, #8
	beq	.LBB20_12
.Ltmp265:
@ %bb.10:
	@DEBUG_VALUE: HAL_TIM_OC_Start_IT:status <- 0
	@DEBUG_VALUE: HAL_TIM_OC_Start_IT:Channel <- $r1
	@DEBUG_VALUE: HAL_TIM_OC_Start_IT:htim <- $r0
	cmp	r1, #4
	bne	.LBB20_13
.Ltmp266:
@ %bb.11:
	@DEBUG_VALUE: HAL_TIM_OC_Start_IT:status <- 0
	@DEBUG_VALUE: HAL_TIM_OC_Start_IT:Channel <- $r1
	@DEBUG_VALUE: HAL_TIM_OC_Start_IT:htim <- $r0
	strb	r3, [r2, #1]
	b	.LBB20_14
.Ltmp267:
.LBB20_12:
	@DEBUG_VALUE: HAL_TIM_OC_Start_IT:status <- 0
	@DEBUG_VALUE: HAL_TIM_OC_Start_IT:Channel <- $r1
	@DEBUG_VALUE: HAL_TIM_OC_Start_IT:htim <- $r0
	strb	r3, [r2, #2]
	b	.LBB20_14
.Ltmp268:
.LBB20_13:
	@DEBUG_VALUE: HAL_TIM_OC_Start_IT:status <- 0
	@DEBUG_VALUE: HAL_TIM_OC_Start_IT:Channel <- $r1
	@DEBUG_VALUE: HAL_TIM_OC_Start_IT:htim <- $r0
	strb	r3, [r2, #3]
.Ltmp269:
.LBB20_14:
	@DEBUG_VALUE: HAL_TIM_OC_Start_IT:status <- 0
	@DEBUG_VALUE: HAL_TIM_OC_Start_IT:Channel <- $r1
	@DEBUG_VALUE: HAL_TIM_OC_Start_IT:htim <- $r0
	.loc	7 0 3 is_stmt 0                 @ ../Drivers/STM32L0xx_HAL_Driver/Src/stm32l0xx_hal_tim.c:0:3
	movs	r3, #2
	.loc	7 884 3 is_stmt 1               @ ../Drivers/STM32L0xx_HAL_Driver/Src/stm32l0xx_hal_tim.c:884:3
	mov	r2, r1
	rors	r2, r3
	cmp	r2, #3
	bhi	.LBB20_18
.Ltmp270:
@ %bb.15:
	@DEBUG_VALUE: HAL_TIM_OC_Start_IT:status <- 0
	@DEBUG_VALUE: HAL_TIM_OC_Start_IT:Channel <- $r1
	@DEBUG_VALUE: HAL_TIM_OC_Start_IT:htim <- $r0
	lsls	r2, r2, #2
	ldr	r3, __arm_cp.20_0
	ldr	r2, [r3, r2]
.Ltmp271:
	.loc	7 0 0 is_stmt 0                 @ ../Drivers/STM32L0xx_HAL_Driver/Src/stm32l0xx_hal_tim.c:0:0
	ldr	r0, [r0]
.Ltmp272:
	@DEBUG_VALUE: HAL_TIM_OC_Start_IT:htim <- [DW_OP_LLVM_entry_value 1] $r0
	ldr	r3, [r0, #12]
	orrs	r3, r2
	str	r3, [r0, #12]
	movs	r2, #31
.Ltmp273:
	@DEBUG_VALUE: TIM_CCxChannelCmd:ChannelState <- 1
	@DEBUG_VALUE: TIM_CCxChannelCmd:Channel <- $r1
	@DEBUG_VALUE: TIM_CCxChannelCmd:TIMx <- $r0
	@DEBUG_VALUE: HAL_TIM_OC_Start_IT:status <- undef
	.loc	7 7130 35 is_stmt 1             @ ../Drivers/STM32L0xx_HAL_Driver/Src/stm32l0xx_hal_tim.c:7130:35
	ands	r1, r2
.Ltmp274:
	@DEBUG_VALUE: HAL_TIM_OC_Start_IT:Channel <- [DW_OP_LLVM_entry_value 1] $r1
	.loc	7 0 35 is_stmt 0                @ ../Drivers/STM32L0xx_HAL_Driver/Src/stm32l0xx_hal_tim.c:0:35
	movs	r2, #1
	.loc	7 7130 23                       @ ../Drivers/STM32L0xx_HAL_Driver/Src/stm32l0xx_hal_tim.c:7130:23
	mov	r3, r2
	lsls	r3, r1
.Ltmp275:
	@DEBUG_VALUE: TIM_CCxChannelCmd:tmp <- $r3
	.loc	7 7133 14 is_stmt 1             @ ../Drivers/STM32L0xx_HAL_Driver/Src/stm32l0xx_hal_tim.c:7133:14
	ldr	r1, [r0, #32]
	bics	r1, r3
	str	r1, [r0, #32]
	.loc	7 7136 14                       @ ../Drivers/STM32L0xx_HAL_Driver/Src/stm32l0xx_hal_tim.c:7136:14
	ldr	r1, [r0, #32]
	orrs	r1, r3
	str	r1, [r0, #32]
	ldr	r1, __arm_cp.20_1
.Ltmp276:
	.loc	7 925 9                         @ ../Drivers/STM32L0xx_HAL_Driver/Src/stm32l0xx_hal_tim.c:925:9
	cmp	r0, r1
	bgt	.LBB20_19
.Ltmp277:
@ %bb.16:
	@DEBUG_VALUE: HAL_TIM_OC_Start_IT:Channel <- [DW_OP_LLVM_entry_value 1] $r1
	@DEBUG_VALUE: HAL_TIM_OC_Start_IT:htim <- [DW_OP_LLVM_entry_value 1] $r0
	.loc	7 0 9 is_stmt 0                 @ ../Drivers/STM32L0xx_HAL_Driver/Src/stm32l0xx_hal_tim.c:0:9
	lsls	r1, r2, #30
	.loc	7 925 9                         @ ../Drivers/STM32L0xx_HAL_Driver/Src/stm32l0xx_hal_tim.c:925:9
	cmp	r0, r1
	beq	.LBB20_22
.Ltmp278:
@ %bb.17:
	@DEBUG_VALUE: HAL_TIM_OC_Start_IT:Channel <- [DW_OP_LLVM_entry_value 1] $r1
	@DEBUG_VALUE: HAL_TIM_OC_Start_IT:htim <- [DW_OP_LLVM_entry_value 1] $r0
	.loc	7 0 9                           @ ../Drivers/STM32L0xx_HAL_Driver/Src/stm32l0xx_hal_tim.c:0:9
	ldr	r1, __arm_cp.20_4
	b	.LBB20_21
.Ltmp279:
.LBB20_18:
	@DEBUG_VALUE: HAL_TIM_OC_Start_IT:status <- 0
	@DEBUG_VALUE: HAL_TIM_OC_Start_IT:Channel <- $r1
	@DEBUG_VALUE: HAL_TIM_OC_Start_IT:htim <- $r0
	movs	r0, #1
.Ltmp280:
	@DEBUG_VALUE: HAL_TIM_OC_Start_IT:htim <- [DW_OP_LLVM_entry_value 1] $r0
	.loc	7 941 1 is_stmt 1               @ ../Drivers/STM32L0xx_HAL_Driver/Src/stm32l0xx_hal_tim.c:941:1
	bx	lr
.Ltmp281:
.LBB20_19:
	@DEBUG_VALUE: HAL_TIM_OC_Start_IT:Channel <- [DW_OP_LLVM_entry_value 1] $r1
	@DEBUG_VALUE: HAL_TIM_OC_Start_IT:htim <- [DW_OP_LLVM_entry_value 1] $r0
	.loc	7 0 1 is_stmt 0                 @ ../Drivers/STM32L0xx_HAL_Driver/Src/stm32l0xx_hal_tim.c:0:1
	ldr	r1, __arm_cp.20_2
.Ltmp282:
	.loc	7 925 9 is_stmt 1               @ ../Drivers/STM32L0xx_HAL_Driver/Src/stm32l0xx_hal_tim.c:925:9
	cmp	r0, r1
	beq	.LBB20_22
.Ltmp283:
@ %bb.20:
	@DEBUG_VALUE: HAL_TIM_OC_Start_IT:Channel <- [DW_OP_LLVM_entry_value 1] $r1
	@DEBUG_VALUE: HAL_TIM_OC_Start_IT:htim <- [DW_OP_LLVM_entry_value 1] $r0
	.loc	7 0 9 is_stmt 0                 @ ../Drivers/STM32L0xx_HAL_Driver/Src/stm32l0xx_hal_tim.c:0:9
	ldr	r1, __arm_cp.20_3
.Ltmp284:
.LBB20_21:
	@DEBUG_VALUE: HAL_TIM_OC_Start_IT:Channel <- [DW_OP_LLVM_entry_value 1] $r1
	@DEBUG_VALUE: HAL_TIM_OC_Start_IT:htim <- [DW_OP_LLVM_entry_value 1] $r0
	.loc	7 925 9                         @ ../Drivers/STM32L0xx_HAL_Driver/Src/stm32l0xx_hal_tim.c:925:9
	cmp	r0, r1
	bne	.LBB20_23
.Ltmp285:
.LBB20_22:
	@DEBUG_VALUE: HAL_TIM_OC_Start_IT:Channel <- [DW_OP_LLVM_entry_value 1] $r1
	@DEBUG_VALUE: HAL_TIM_OC_Start_IT:htim <- [DW_OP_LLVM_entry_value 1] $r0
	.loc	7 927 33 is_stmt 1              @ ../Drivers/STM32L0xx_HAL_Driver/Src/stm32l0xx_hal_tim.c:927:33
	ldr	r1, [r0, #8]
	movs	r3, #7
	.loc	7 927 38 is_stmt 0              @ ../Drivers/STM32L0xx_HAL_Driver/Src/stm32l0xx_hal_tim.c:927:38
	ands	r3, r1
.Ltmp286:
	@DEBUG_VALUE: HAL_TIM_OC_Start_IT:tmpsmcr <- $r3
	.loc	7 928 11 is_stmt 1              @ ../Drivers/STM32L0xx_HAL_Driver/Src/stm32l0xx_hal_tim.c:928:11
	cmp	r3, #6
	beq	.LBB20_24
.Ltmp287:
.LBB20_23:
	@DEBUG_VALUE: HAL_TIM_OC_Start_IT:Channel <- [DW_OP_LLVM_entry_value 1] $r1
	@DEBUG_VALUE: HAL_TIM_OC_Start_IT:htim <- [DW_OP_LLVM_entry_value 1] $r0
	.loc	7 0 0 is_stmt 0                 @ ../Drivers/STM32L0xx_HAL_Driver/Src/stm32l0xx_hal_tim.c:0:0
	ldr	r1, [r0]
	orrs	r1, r2
	str	r1, [r0]
.Ltmp288:
.LBB20_24:
	@DEBUG_VALUE: HAL_TIM_OC_Start_IT:Channel <- [DW_OP_LLVM_entry_value 1] $r1
	@DEBUG_VALUE: HAL_TIM_OC_Start_IT:htim <- [DW_OP_LLVM_entry_value 1] $r0
	movs	r0, #0
	.loc	7 941 1 is_stmt 1               @ ../Drivers/STM32L0xx_HAL_Driver/Src/stm32l0xx_hal_tim.c:941:1
	bx	lr
.Ltmp289:
	.p2align	2
@ %bb.25:
	.loc	7 0 1 is_stmt 0                 @ ../Drivers/STM32L0xx_HAL_Driver/Src/stm32l0xx_hal_tim.c:0:1
__arm_cp.20_0:
	.long	.Lswitch.table.HAL_TIM_IC_Start_IT
.Lcpi_end29:
	.size	__arm_cp.20_0, .Lcpi_end29-__arm_cp.20_0
__arm_cp.20_1:
	.long	1073809407                      @ 0x400107ff
.Lcpi_end30:
	.size	__arm_cp.20_1, .Lcpi_end30-__arm_cp.20_1
__arm_cp.20_2:
	.long	1073812480                      @ 0x40011400
.Lcpi_end31:
	.size	__arm_cp.20_2, .Lcpi_end31-__arm_cp.20_2
__arm_cp.20_3:
	.long	1073809408                      @ 0x40010800
.Lcpi_end32:
	.size	__arm_cp.20_3, .Lcpi_end32-__arm_cp.20_3
__arm_cp.20_4:
	.long	1073742848                      @ 0x40000400
.Lcpi_end33:
	.size	__arm_cp.20_4, .Lcpi_end33-__arm_cp.20_4
.Lfunc_end20:
	.size	HAL_TIM_OC_Start_IT, .Lfunc_end20-HAL_TIM_OC_Start_IT
	.cfi_endproc
	.cantunwind
	.fnend
                                        @ -- End function
	.section	.text.HAL_TIM_OC_Stop_IT,"ax",%progbits
	.hidden	HAL_TIM_OC_Stop_IT              @ -- Begin function HAL_TIM_OC_Stop_IT
	.globl	HAL_TIM_OC_Stop_IT
	.p2align	2
	.type	HAL_TIM_OC_Stop_IT,%function
	.code	16                              @ @HAL_TIM_OC_Stop_IT
	.thumb_func
HAL_TIM_OC_Stop_IT:
.Lfunc_begin21:
	.loc	7 955 0 is_stmt 1               @ ../Drivers/STM32L0xx_HAL_Driver/Src/stm32l0xx_hal_tim.c:955:0
	.fnstart
	.cfi_startproc
@ %bb.0:
	@DEBUG_VALUE: HAL_TIM_OC_Stop_IT:htim <- $r0
	@DEBUG_VALUE: HAL_TIM_OC_Stop_IT:Channel <- $r1
	.save	{r4, r5, r7, lr}
	push	{r4, r5, r7, lr}
	.cfi_def_cfa_offset 16
	.cfi_offset lr, -4
	.cfi_offset r7, -8
	.cfi_offset r5, -12
	.cfi_offset r4, -16
	movs	r3, #2
.Ltmp290:
	@DEBUG_VALUE: HAL_TIM_OC_Stop_IT:status <- 0
	.loc	7 961 3 prologue_end            @ ../Drivers/STM32L0xx_HAL_Driver/Src/stm32l0xx_hal_tim.c:961:3
	mov	r2, r1
	rors	r2, r3
	cmp	r2, #3
	bhi	.LBB21_7
.Ltmp291:
@ %bb.1:
	@DEBUG_VALUE: HAL_TIM_OC_Stop_IT:status <- 0
	@DEBUG_VALUE: HAL_TIM_OC_Stop_IT:Channel <- $r1
	@DEBUG_VALUE: HAL_TIM_OC_Stop_IT:htim <- $r0
	lsls	r2, r2, #2
	ldr	r3, __arm_cp.21_0
	ldr	r2, [r3, r2]
.Ltmp292:
	.loc	7 0 0 is_stmt 0                 @ ../Drivers/STM32L0xx_HAL_Driver/Src/stm32l0xx_hal_tim.c:0:0
	ldr	r3, [r0]
	ldr	r4, [r3, #12]
	ands	r4, r2
	str	r4, [r3, #12]
	movs	r4, #31
.Ltmp293:
	@DEBUG_VALUE: TIM_CCxChannelCmd:ChannelState <- 0
	@DEBUG_VALUE: TIM_CCxChannelCmd:Channel <- $r1
	@DEBUG_VALUE: TIM_CCxChannelCmd:TIMx <- $r3
	@DEBUG_VALUE: HAL_TIM_OC_Stop_IT:status <- undef
	.loc	7 7130 35 is_stmt 1             @ ../Drivers/STM32L0xx_HAL_Driver/Src/stm32l0xx_hal_tim.c:7130:35
	ands	r4, r1
	movs	r2, #1
	.loc	7 7130 23 is_stmt 0             @ ../Drivers/STM32L0xx_HAL_Driver/Src/stm32l0xx_hal_tim.c:7130:23
	mov	r5, r2
	lsls	r5, r4
.Ltmp294:
	@DEBUG_VALUE: TIM_CCxChannelCmd:tmp <- $r5
	.loc	7 7133 14 is_stmt 1             @ ../Drivers/STM32L0xx_HAL_Driver/Src/stm32l0xx_hal_tim.c:7133:14
	ldr	r4, [r3, #32]
	bics	r4, r5
	str	r4, [r3, #32]
	.loc	7 7136 14                       @ ../Drivers/STM32L0xx_HAL_Driver/Src/stm32l0xx_hal_tim.c:7136:14
	ldr	r4, [r3, #32]
	str	r4, [r3, #32]
.Ltmp295:
	.loc	7 1002 5                        @ ../Drivers/STM32L0xx_HAL_Driver/Src/stm32l0xx_hal_tim.c:1002:5
	ldr	r4, [r3, #32]
	ldr	r5, __arm_cp.21_1
.Ltmp296:
	.loc	7 1002 5 is_stmt 0              @ ../Drivers/STM32L0xx_HAL_Driver/Src/stm32l0xx_hal_tim.c:1002:5
	tst	r4, r5
	bne	.LBB21_3
.Ltmp297:
@ %bb.2:
	@DEBUG_VALUE: HAL_TIM_OC_Stop_IT:Channel <- $r1
	@DEBUG_VALUE: HAL_TIM_OC_Stop_IT:htim <- $r0
	.loc	7 1002 5                        @ ../Drivers/STM32L0xx_HAL_Driver/Src/stm32l0xx_hal_tim.c:1002:5
	ldr	r4, [r3]
	bics	r4, r2
	str	r4, [r3]
.Ltmp298:
.LBB21_3:
	@DEBUG_VALUE: HAL_TIM_OC_Stop_IT:Channel <- $r1
	@DEBUG_VALUE: HAL_TIM_OC_Stop_IT:htim <- $r0
	.loc	7 0 0                           @ ../Drivers/STM32L0xx_HAL_Driver/Src/stm32l0xx_hal_tim.c:0:0
	adds	r0, #58
.Ltmp299:
	@DEBUG_VALUE: HAL_TIM_OC_Stop_IT:htim <- [DW_OP_LLVM_entry_value 1] $r0
	.loc	7 1005 5 is_stmt 1              @ ../Drivers/STM32L0xx_HAL_Driver/Src/stm32l0xx_hal_tim.c:1005:5
	cmp	r1, #8
	beq	.LBB21_8
.Ltmp300:
@ %bb.4:
	@DEBUG_VALUE: HAL_TIM_OC_Stop_IT:htim <- [DW_OP_LLVM_entry_value 1] $r0
	@DEBUG_VALUE: HAL_TIM_OC_Stop_IT:Channel <- $r1
	cmp	r1, #4
	beq	.LBB21_9
.Ltmp301:
@ %bb.5:
	@DEBUG_VALUE: HAL_TIM_OC_Stop_IT:htim <- [DW_OP_LLVM_entry_value 1] $r0
	@DEBUG_VALUE: HAL_TIM_OC_Stop_IT:Channel <- $r1
	cmp	r1, #0
	bne	.LBB21_10
.Ltmp302:
@ %bb.6:
	@DEBUG_VALUE: HAL_TIM_OC_Stop_IT:htim <- [DW_OP_LLVM_entry_value 1] $r0
	@DEBUG_VALUE: HAL_TIM_OC_Stop_IT:Channel <- $r1
	strb	r2, [r0]
	b	.LBB21_11
.Ltmp303:
.LBB21_7:
	@DEBUG_VALUE: HAL_TIM_OC_Stop_IT:status <- 0
	@DEBUG_VALUE: HAL_TIM_OC_Stop_IT:Channel <- $r1
	@DEBUG_VALUE: HAL_TIM_OC_Stop_IT:htim <- $r0
	.loc	7 0 5 is_stmt 0                 @ ../Drivers/STM32L0xx_HAL_Driver/Src/stm32l0xx_hal_tim.c:0:5
	movs	r0, #1
.Ltmp304:
	@DEBUG_VALUE: HAL_TIM_OC_Stop_IT:htim <- [DW_OP_LLVM_entry_value 1] $r0
	.loc	7 1009 3 is_stmt 1              @ ../Drivers/STM32L0xx_HAL_Driver/Src/stm32l0xx_hal_tim.c:1009:3
	pop	{r4, r5, r7, pc}
.Ltmp305:
.LBB21_8:
	@DEBUG_VALUE: HAL_TIM_OC_Stop_IT:htim <- [DW_OP_LLVM_entry_value 1] $r0
	@DEBUG_VALUE: HAL_TIM_OC_Stop_IT:Channel <- $r1
	.loc	7 1005 5                        @ ../Drivers/STM32L0xx_HAL_Driver/Src/stm32l0xx_hal_tim.c:1005:5
	strb	r2, [r0, #2]
	b	.LBB21_11
.Ltmp306:
.LBB21_9:
	@DEBUG_VALUE: HAL_TIM_OC_Stop_IT:htim <- [DW_OP_LLVM_entry_value 1] $r0
	@DEBUG_VALUE: HAL_TIM_OC_Stop_IT:Channel <- $r1
	strb	r2, [r0, #1]
	b	.LBB21_11
.Ltmp307:
.LBB21_10:
	@DEBUG_VALUE: HAL_TIM_OC_Stop_IT:htim <- [DW_OP_LLVM_entry_value 1] $r0
	@DEBUG_VALUE: HAL_TIM_OC_Stop_IT:Channel <- $r1
	strb	r2, [r0, #3]
.Ltmp308:
.LBB21_11:
	@DEBUG_VALUE: HAL_TIM_OC_Stop_IT:htim <- [DW_OP_LLVM_entry_value 1] $r0
	@DEBUG_VALUE: HAL_TIM_OC_Stop_IT:Channel <- $r1
	.loc	7 0 5 is_stmt 0                 @ ../Drivers/STM32L0xx_HAL_Driver/Src/stm32l0xx_hal_tim.c:0:5
	movs	r0, #0
	.loc	7 1009 3 is_stmt 1              @ ../Drivers/STM32L0xx_HAL_Driver/Src/stm32l0xx_hal_tim.c:1009:3
	pop	{r4, r5, r7, pc}
.Ltmp309:
	.p2align	2
@ %bb.12:
	.loc	7 0 3 is_stmt 0                 @ ../Drivers/STM32L0xx_HAL_Driver/Src/stm32l0xx_hal_tim.c:0:3
__arm_cp.21_0:
	.long	.Lswitch.table.HAL_TIM_IC_Stop_IT
.Lcpi_end34:
	.size	__arm_cp.21_0, .Lcpi_end34-__arm_cp.21_0
__arm_cp.21_1:
	.long	4369                            @ 0x1111
.Lcpi_end35:
	.size	__arm_cp.21_1, .Lcpi_end35-__arm_cp.21_1
.Lfunc_end21:
	.size	HAL_TIM_OC_Stop_IT, .Lfunc_end21-HAL_TIM_OC_Stop_IT
	.cfi_endproc
	.cantunwind
	.fnend
                                        @ -- End function
	.section	.text.HAL_TIM_OC_Start_DMA,"ax",%progbits
	.hidden	HAL_TIM_OC_Start_DMA            @ -- Begin function HAL_TIM_OC_Start_DMA
	.globl	HAL_TIM_OC_Start_DMA
	.p2align	2
	.type	HAL_TIM_OC_Start_DMA,%function
	.code	16                              @ @HAL_TIM_OC_Start_DMA
	.thumb_func
HAL_TIM_OC_Start_DMA:
.Lfunc_begin22:
	.loc	7 1027 0 is_stmt 1              @ ../Drivers/STM32L0xx_HAL_Driver/Src/stm32l0xx_hal_tim.c:1027:0
	.fnstart
	.cfi_startproc
@ %bb.0:
	@DEBUG_VALUE: HAL_TIM_OC_Start_DMA:htim <- $r0
	@DEBUG_VALUE: HAL_TIM_OC_Start_DMA:Channel <- $r1
	@DEBUG_VALUE: HAL_TIM_OC_Start_DMA:pData <- $r2
	@DEBUG_VALUE: HAL_TIM_OC_Start_DMA:Length <- $r3
	.save	{r4, r5, r6, lr}
	push	{r4, r5, r6, lr}
	.cfi_def_cfa_offset 16
	.cfi_offset lr, -4
	.cfi_offset r6, -8
	.cfi_offset r5, -12
	.cfi_offset r4, -16
	mov	r4, r1
.Ltmp310:
	@DEBUG_VALUE: HAL_TIM_OC_Start_DMA:Channel <- $r4
	mov	r5, r0
.Ltmp311:
	@DEBUG_VALUE: HAL_TIM_OC_Start_DMA:htim <- $r5
	.loc	7 0 0 is_stmt 0                 @ ../Drivers/STM32L0xx_HAL_Driver/Src/stm32l0xx_hal_tim.c:0:0
	mov	r1, r0
	adds	r1, #58
.Ltmp312:
	@DEBUG_VALUE: HAL_TIM_OC_Start_DMA:status <- 0
	.loc	7 1035 7 prologue_end is_stmt 1 @ ../Drivers/STM32L0xx_HAL_Driver/Src/stm32l0xx_hal_tim.c:1035:7
	cmp	r4, #0
	beq	.LBB22_4
.Ltmp313:
@ %bb.1:
	@DEBUG_VALUE: HAL_TIM_OC_Start_DMA:status <- 0
	@DEBUG_VALUE: HAL_TIM_OC_Start_DMA:htim <- $r5
	@DEBUG_VALUE: HAL_TIM_OC_Start_DMA:Channel <- $r4
	@DEBUG_VALUE: HAL_TIM_OC_Start_DMA:Length <- $r3
	@DEBUG_VALUE: HAL_TIM_OC_Start_DMA:pData <- $r2
	cmp	r4, #8
	beq	.LBB22_5
.Ltmp314:
@ %bb.2:
	@DEBUG_VALUE: HAL_TIM_OC_Start_DMA:status <- 0
	@DEBUG_VALUE: HAL_TIM_OC_Start_DMA:htim <- $r5
	@DEBUG_VALUE: HAL_TIM_OC_Start_DMA:Channel <- $r4
	@DEBUG_VALUE: HAL_TIM_OC_Start_DMA:Length <- $r3
	@DEBUG_VALUE: HAL_TIM_OC_Start_DMA:pData <- $r2
	cmp	r4, #4
	bne	.LBB22_6
.Ltmp315:
@ %bb.3:
	@DEBUG_VALUE: HAL_TIM_OC_Start_DMA:status <- 0
	@DEBUG_VALUE: HAL_TIM_OC_Start_DMA:htim <- $r5
	@DEBUG_VALUE: HAL_TIM_OC_Start_DMA:Channel <- $r4
	@DEBUG_VALUE: HAL_TIM_OC_Start_DMA:Length <- $r3
	@DEBUG_VALUE: HAL_TIM_OC_Start_DMA:pData <- $r2
	adds	r0, r1, #1
	b	.LBB22_7
.Ltmp316:
.LBB22_4:
	@DEBUG_VALUE: HAL_TIM_OC_Start_DMA:status <- 0
	@DEBUG_VALUE: HAL_TIM_OC_Start_DMA:htim <- $r5
	@DEBUG_VALUE: HAL_TIM_OC_Start_DMA:Channel <- $r4
	@DEBUG_VALUE: HAL_TIM_OC_Start_DMA:Length <- $r3
	@DEBUG_VALUE: HAL_TIM_OC_Start_DMA:pData <- $r2
	ldrb	r0, [r1]
.Ltmp317:
	.loc	7 1035 7 is_stmt 0              @ ../Drivers/STM32L0xx_HAL_Driver/Src/stm32l0xx_hal_tim.c:1035:7
	cmp	r0, #2
	mov	r0, r1
	beq	.LBB22_8
	b	.LBB22_14
.Ltmp318:
.LBB22_5:
	@DEBUG_VALUE: HAL_TIM_OC_Start_DMA:status <- 0
	@DEBUG_VALUE: HAL_TIM_OC_Start_DMA:htim <- $r5
	@DEBUG_VALUE: HAL_TIM_OC_Start_DMA:Channel <- $r4
	@DEBUG_VALUE: HAL_TIM_OC_Start_DMA:Length <- $r3
	@DEBUG_VALUE: HAL_TIM_OC_Start_DMA:pData <- $r2
	.loc	7 1035 7                        @ ../Drivers/STM32L0xx_HAL_Driver/Src/stm32l0xx_hal_tim.c:1035:7
	adds	r0, r1, #2
	b	.LBB22_7
.Ltmp319:
.LBB22_6:
	@DEBUG_VALUE: HAL_TIM_OC_Start_DMA:status <- 0
	@DEBUG_VALUE: HAL_TIM_OC_Start_DMA:htim <- $r5
	@DEBUG_VALUE: HAL_TIM_OC_Start_DMA:Channel <- $r4
	@DEBUG_VALUE: HAL_TIM_OC_Start_DMA:Length <- $r3
	@DEBUG_VALUE: HAL_TIM_OC_Start_DMA:pData <- $r2
	adds	r0, r1, #3
.Ltmp320:
.LBB22_7:
	@DEBUG_VALUE: HAL_TIM_OC_Start_DMA:status <- 0
	@DEBUG_VALUE: HAL_TIM_OC_Start_DMA:htim <- $r5
	@DEBUG_VALUE: HAL_TIM_OC_Start_DMA:Channel <- $r4
	@DEBUG_VALUE: HAL_TIM_OC_Start_DMA:Length <- $r3
	@DEBUG_VALUE: HAL_TIM_OC_Start_DMA:pData <- $r2
	ldrb	r0, [r0]
.Ltmp321:
	.loc	7 1035 7                        @ ../Drivers/STM32L0xx_HAL_Driver/Src/stm32l0xx_hal_tim.c:1035:7
	cmp	r0, #2
	bne	.LBB22_9
.Ltmp322:
.LBB22_8:
	@DEBUG_VALUE: HAL_TIM_OC_Start_DMA:status <- 0
	@DEBUG_VALUE: HAL_TIM_OC_Start_DMA:htim <- $r5
	@DEBUG_VALUE: HAL_TIM_OC_Start_DMA:Channel <- $r4
	@DEBUG_VALUE: HAL_TIM_OC_Start_DMA:Length <- $r3
	@DEBUG_VALUE: HAL_TIM_OC_Start_DMA:pData <- $r2
	.loc	7 0 7                           @ ../Drivers/STM32L0xx_HAL_Driver/Src/stm32l0xx_hal_tim.c:0:7
	movs	r0, #2
	.loc	7 1170 1 is_stmt 1              @ ../Drivers/STM32L0xx_HAL_Driver/Src/stm32l0xx_hal_tim.c:1170:1
	pop	{r4, r5, r6, pc}
.Ltmp323:
.LBB22_9:
	@DEBUG_VALUE: HAL_TIM_OC_Start_DMA:status <- 0
	@DEBUG_VALUE: HAL_TIM_OC_Start_DMA:htim <- $r5
	@DEBUG_VALUE: HAL_TIM_OC_Start_DMA:Channel <- $r4
	@DEBUG_VALUE: HAL_TIM_OC_Start_DMA:Length <- $r3
	@DEBUG_VALUE: HAL_TIM_OC_Start_DMA:pData <- $r2
	.loc	7 1039 12                       @ ../Drivers/STM32L0xx_HAL_Driver/Src/stm32l0xx_hal_tim.c:1039:12
	cmp	r4, #8
	beq	.LBB22_12
.Ltmp324:
@ %bb.10:
	@DEBUG_VALUE: HAL_TIM_OC_Start_DMA:status <- 0
	@DEBUG_VALUE: HAL_TIM_OC_Start_DMA:htim <- $r5
	@DEBUG_VALUE: HAL_TIM_OC_Start_DMA:Channel <- $r4
	@DEBUG_VALUE: HAL_TIM_OC_Start_DMA:Length <- $r3
	@DEBUG_VALUE: HAL_TIM_OC_Start_DMA:pData <- $r2
	cmp	r4, #4
	bne	.LBB22_13
.Ltmp325:
@ %bb.11:
	@DEBUG_VALUE: HAL_TIM_OC_Start_DMA:status <- 0
	@DEBUG_VALUE: HAL_TIM_OC_Start_DMA:htim <- $r5
	@DEBUG_VALUE: HAL_TIM_OC_Start_DMA:Channel <- $r4
	@DEBUG_VALUE: HAL_TIM_OC_Start_DMA:Length <- $r3
	@DEBUG_VALUE: HAL_TIM_OC_Start_DMA:pData <- $r2
	adds	r0, r1, #1
	b	.LBB22_14
.Ltmp326:
.LBB22_12:
	@DEBUG_VALUE: HAL_TIM_OC_Start_DMA:status <- 0
	@DEBUG_VALUE: HAL_TIM_OC_Start_DMA:htim <- $r5
	@DEBUG_VALUE: HAL_TIM_OC_Start_DMA:Channel <- $r4
	@DEBUG_VALUE: HAL_TIM_OC_Start_DMA:Length <- $r3
	@DEBUG_VALUE: HAL_TIM_OC_Start_DMA:pData <- $r2
	adds	r0, r1, #2
	b	.LBB22_14
.Ltmp327:
.LBB22_13:
	@DEBUG_VALUE: HAL_TIM_OC_Start_DMA:status <- 0
	@DEBUG_VALUE: HAL_TIM_OC_Start_DMA:htim <- $r5
	@DEBUG_VALUE: HAL_TIM_OC_Start_DMA:Channel <- $r4
	@DEBUG_VALUE: HAL_TIM_OC_Start_DMA:Length <- $r3
	@DEBUG_VALUE: HAL_TIM_OC_Start_DMA:pData <- $r2
	adds	r0, r1, #3
.Ltmp328:
.LBB22_14:
	@DEBUG_VALUE: HAL_TIM_OC_Start_DMA:status <- 0
	@DEBUG_VALUE: HAL_TIM_OC_Start_DMA:htim <- $r5
	@DEBUG_VALUE: HAL_TIM_OC_Start_DMA:Channel <- $r4
	@DEBUG_VALUE: HAL_TIM_OC_Start_DMA:Length <- $r3
	@DEBUG_VALUE: HAL_TIM_OC_Start_DMA:pData <- $r2
	@DEBUG_VALUE: HAL_TIM_OC_Start_DMA:Length <- $r3
	ldrb	r6, [r0]
	movs	r0, #1
.Ltmp329:
	.loc	7 1039 12 is_stmt 0             @ ../Drivers/STM32L0xx_HAL_Driver/Src/stm32l0xx_hal_tim.c:1039:12
	cmp	r6, #1
	beq	.LBB22_15
	b	.LBB22_44
.Ltmp330:
.LBB22_15:
	@DEBUG_VALUE: HAL_TIM_OC_Start_DMA:status <- 0
	@DEBUG_VALUE: HAL_TIM_OC_Start_DMA:htim <- $r5
	@DEBUG_VALUE: HAL_TIM_OC_Start_DMA:Channel <- $r4
	@DEBUG_VALUE: HAL_TIM_OC_Start_DMA:Length <- $r3
	@DEBUG_VALUE: HAL_TIM_OC_Start_DMA:pData <- $r2
	@DEBUG_VALUE: HAL_TIM_OC_Start_DMA:Length <- $r3
	.loc	7 1041 25 is_stmt 1             @ ../Drivers/STM32L0xx_HAL_Driver/Src/stm32l0xx_hal_tim.c:1041:25
	cmp	r2, #0
	bne	.LBB22_16
	b	.LBB22_44
.Ltmp331:
.LBB22_16:
	@DEBUG_VALUE: HAL_TIM_OC_Start_DMA:status <- 0
	@DEBUG_VALUE: HAL_TIM_OC_Start_DMA:htim <- $r5
	@DEBUG_VALUE: HAL_TIM_OC_Start_DMA:Channel <- $r4
	@DEBUG_VALUE: HAL_TIM_OC_Start_DMA:Length <- $r3
	@DEBUG_VALUE: HAL_TIM_OC_Start_DMA:pData <- $r2
	@DEBUG_VALUE: HAL_TIM_OC_Start_DMA:Length <- $r3
	cmp	r3, #0
	bne	.LBB22_17
	b	.LBB22_44
.Ltmp332:
.LBB22_17:
	@DEBUG_VALUE: HAL_TIM_OC_Start_DMA:status <- 0
	@DEBUG_VALUE: HAL_TIM_OC_Start_DMA:htim <- $r5
	@DEBUG_VALUE: HAL_TIM_OC_Start_DMA:Channel <- $r4
	@DEBUG_VALUE: HAL_TIM_OC_Start_DMA:Length <- $r3
	@DEBUG_VALUE: HAL_TIM_OC_Start_DMA:pData <- $r2
	@DEBUG_VALUE: HAL_TIM_OC_Start_DMA:Length <- $r3
	.loc	7 0 25 is_stmt 0                @ ../Drivers/STM32L0xx_HAL_Driver/Src/stm32l0xx_hal_tim.c:0:25
	movs	r6, #2
.Ltmp333:
	.loc	7 1047 7 is_stmt 1              @ ../Drivers/STM32L0xx_HAL_Driver/Src/stm32l0xx_hal_tim.c:1047:7
	cmp	r4, #0
	beq	.LBB22_21
.Ltmp334:
@ %bb.18:
	@DEBUG_VALUE: HAL_TIM_OC_Start_DMA:status <- 0
	@DEBUG_VALUE: HAL_TIM_OC_Start_DMA:htim <- $r5
	@DEBUG_VALUE: HAL_TIM_OC_Start_DMA:Channel <- $r4
	@DEBUG_VALUE: HAL_TIM_OC_Start_DMA:Length <- $r3
	@DEBUG_VALUE: HAL_TIM_OC_Start_DMA:pData <- $r2
	cmp	r4, #8
	beq	.LBB22_22
.Ltmp335:
@ %bb.19:
	@DEBUG_VALUE: HAL_TIM_OC_Start_DMA:status <- 0
	@DEBUG_VALUE: HAL_TIM_OC_Start_DMA:htim <- $r5
	@DEBUG_VALUE: HAL_TIM_OC_Start_DMA:Channel <- $r4
	@DEBUG_VALUE: HAL_TIM_OC_Start_DMA:Length <- $r3
	@DEBUG_VALUE: HAL_TIM_OC_Start_DMA:pData <- $r2
	cmp	r4, #4
	bne	.LBB22_23
.Ltmp336:
@ %bb.20:
	@DEBUG_VALUE: HAL_TIM_OC_Start_DMA:status <- 0
	@DEBUG_VALUE: HAL_TIM_OC_Start_DMA:htim <- $r5
	@DEBUG_VALUE: HAL_TIM_OC_Start_DMA:Channel <- $r4
	@DEBUG_VALUE: HAL_TIM_OC_Start_DMA:Length <- $r3
	@DEBUG_VALUE: HAL_TIM_OC_Start_DMA:pData <- $r2
	strb	r6, [r1, #1]
	b	.LBB22_24
.Ltmp337:
.LBB22_21:
	@DEBUG_VALUE: HAL_TIM_OC_Start_DMA:status <- 0
	@DEBUG_VALUE: HAL_TIM_OC_Start_DMA:htim <- $r5
	@DEBUG_VALUE: HAL_TIM_OC_Start_DMA:Channel <- $r4
	@DEBUG_VALUE: HAL_TIM_OC_Start_DMA:Length <- $r3
	@DEBUG_VALUE: HAL_TIM_OC_Start_DMA:pData <- $r2
	strb	r6, [r1]
	b	.LBB22_24
.Ltmp338:
.LBB22_22:
	@DEBUG_VALUE: HAL_TIM_OC_Start_DMA:status <- 0
	@DEBUG_VALUE: HAL_TIM_OC_Start_DMA:htim <- $r5
	@DEBUG_VALUE: HAL_TIM_OC_Start_DMA:Channel <- $r4
	@DEBUG_VALUE: HAL_TIM_OC_Start_DMA:Length <- $r3
	@DEBUG_VALUE: HAL_TIM_OC_Start_DMA:pData <- $r2
	strb	r6, [r1, #2]
	b	.LBB22_24
.Ltmp339:
.LBB22_23:
	@DEBUG_VALUE: HAL_TIM_OC_Start_DMA:status <- 0
	@DEBUG_VALUE: HAL_TIM_OC_Start_DMA:htim <- $r5
	@DEBUG_VALUE: HAL_TIM_OC_Start_DMA:Channel <- $r4
	@DEBUG_VALUE: HAL_TIM_OC_Start_DMA:Length <- $r3
	@DEBUG_VALUE: HAL_TIM_OC_Start_DMA:pData <- $r2
	strb	r6, [r1, #3]
.Ltmp340:
.LBB22_24:
	@DEBUG_VALUE: HAL_TIM_OC_Start_DMA:status <- 0
	@DEBUG_VALUE: HAL_TIM_OC_Start_DMA:htim <- $r5
	@DEBUG_VALUE: HAL_TIM_OC_Start_DMA:Channel <- $r4
	@DEBUG_VALUE: HAL_TIM_OC_Start_DMA:Length <- $r3
	@DEBUG_VALUE: HAL_TIM_OC_Start_DMA:pData <- $r2
	@DEBUG_VALUE: HAL_TIM_OC_Start_DMA:Length <- $r3
	.loc	7 0 7 is_stmt 0                 @ ../Drivers/STM32L0xx_HAL_Driver/Src/stm32l0xx_hal_tim.c:0:7
	movs	r6, #2
	.loc	7 1055 3 is_stmt 1              @ ../Drivers/STM32L0xx_HAL_Driver/Src/stm32l0xx_hal_tim.c:1055:3
	mov	r1, r4
	rors	r1, r6
	cmp	r1, #3
	bls	.LBB22_25
	b	.LBB22_44
.Ltmp341:
.LBB22_25:
	@DEBUG_VALUE: HAL_TIM_OC_Start_DMA:status <- 0
	@DEBUG_VALUE: HAL_TIM_OC_Start_DMA:htim <- $r5
	@DEBUG_VALUE: HAL_TIM_OC_Start_DMA:Channel <- $r4
	@DEBUG_VALUE: HAL_TIM_OC_Start_DMA:Length <- $r3
	@DEBUG_VALUE: HAL_TIM_OC_Start_DMA:pData <- $r2
	@DEBUG_VALUE: HAL_TIM_OC_Start_DMA:Length <- $r3
	.loc	7 0 3 is_stmt 0                 @ ../Drivers/STM32L0xx_HAL_Driver/Src/stm32l0xx_hal_tim.c:0:3
	.p2align	2
	add	r1, pc
	ldrb	r1, [r1, #4]
	lsls	r1, r1, #1
.LCPI22_7:
	add	pc, r1
.Ltmp342:
@ %bb.26:
	.p2align	2
.LJTI22_0:
	.byte	(.LBB22_27-(.LCPI22_7+4))/2
	.byte	(.LBB22_29-(.LCPI22_7+4))/2
	.byte	(.LBB22_31-(.LCPI22_7+4))/2
	.byte	(.LBB22_33-(.LCPI22_7+4))/2
	.p2align	1
.LBB22_27:
.Ltmp343:
	@DEBUG_VALUE: HAL_TIM_OC_Start_DMA:status <- 0
	@DEBUG_VALUE: HAL_TIM_OC_Start_DMA:htim <- $r5
	@DEBUG_VALUE: HAL_TIM_OC_Start_DMA:Channel <- $r4
	@DEBUG_VALUE: HAL_TIM_OC_Start_DMA:Length <- $r3
	@DEBUG_VALUE: HAL_TIM_OC_Start_DMA:pData <- $r2
	.loc	7 1060 7 is_stmt 1              @ ../Drivers/STM32L0xx_HAL_Driver/Src/stm32l0xx_hal_tim.c:1060:7
	ldr	r0, [r5, #32]
	.loc	7 1060 52 is_stmt 0             @ ../Drivers/STM32L0xx_HAL_Driver/Src/stm32l0xx_hal_tim.c:1060:52
	ldr	r1, __arm_cp.22_0
	str	r1, [r0, #44]
	.loc	7 1061 7 is_stmt 1              @ ../Drivers/STM32L0xx_HAL_Driver/Src/stm32l0xx_hal_tim.c:1061:7
	ldr	r0, [r5, #32]
	.loc	7 1061 56 is_stmt 0             @ ../Drivers/STM32L0xx_HAL_Driver/Src/stm32l0xx_hal_tim.c:1061:56
	ldr	r1, __arm_cp.22_1
	str	r1, [r0, #48]
	.loc	7 1064 7 is_stmt 1              @ ../Drivers/STM32L0xx_HAL_Driver/Src/stm32l0xx_hal_tim.c:1064:7
	ldr	r0, [r5, #32]
	.loc	7 1064 53 is_stmt 0             @ ../Drivers/STM32L0xx_HAL_Driver/Src/stm32l0xx_hal_tim.c:1064:53
	ldr	r1, __arm_cp.22_2
	str	r1, [r0, #52]
.Ltmp344:
	.loc	7 1067 28 is_stmt 1             @ ../Drivers/STM32L0xx_HAL_Driver/Src/stm32l0xx_hal_tim.c:1067:28
	ldr	r0, [r5, #32]
	.loc	7 1067 90 is_stmt 0             @ ../Drivers/STM32L0xx_HAL_Driver/Src/stm32l0xx_hal_tim.c:1067:90
	ldr	r6, [r5]
	.loc	7 1067 100                      @ ../Drivers/STM32L0xx_HAL_Driver/Src/stm32l0xx_hal_tim.c:1067:100
	adds	r6, #52
	.loc	7 1067 11                       @ ../Drivers/STM32L0xx_HAL_Driver/Src/stm32l0xx_hal_tim.c:1067:11
	mov	r1, r2
	mov	r2, r6
.Ltmp345:
	@DEBUG_VALUE: HAL_TIM_OC_Start_DMA:pData <- [DW_OP_LLVM_entry_value 1] $r2
	bl	HAL_DMA_Start_IT
.Ltmp346:
	mov	r1, r0
	movs	r0, #1
.Ltmp347:
	.loc	7 1067 11                       @ ../Drivers/STM32L0xx_HAL_Driver/Src/stm32l0xx_hal_tim.c:1067:11
	cmp	r1, #0
	bne	.LBB22_44
.Ltmp348:
@ %bb.28:
	@DEBUG_VALUE: HAL_TIM_OC_Start_DMA:pData <- [DW_OP_LLVM_entry_value 1] $r2
	@DEBUG_VALUE: HAL_TIM_OC_Start_DMA:status <- 0
	@DEBUG_VALUE: HAL_TIM_OC_Start_DMA:htim <- $r5
	@DEBUG_VALUE: HAL_TIM_OC_Start_DMA:Channel <- $r4
	.loc	7 0 11                          @ ../Drivers/STM32L0xx_HAL_Driver/Src/stm32l0xx_hal_tim.c:0:11
	lsls	r1, r0, #9
	b	.LBB22_35
.Ltmp349:
.LBB22_29:
	@DEBUG_VALUE: HAL_TIM_OC_Start_DMA:status <- 0
	@DEBUG_VALUE: HAL_TIM_OC_Start_DMA:htim <- $r5
	@DEBUG_VALUE: HAL_TIM_OC_Start_DMA:Channel <- $r4
	@DEBUG_VALUE: HAL_TIM_OC_Start_DMA:Length <- $r3
	@DEBUG_VALUE: HAL_TIM_OC_Start_DMA:pData <- $r2
	.loc	7 1082 7 is_stmt 1              @ ../Drivers/STM32L0xx_HAL_Driver/Src/stm32l0xx_hal_tim.c:1082:7
	ldr	r0, [r5, #36]
	.loc	7 1082 52 is_stmt 0             @ ../Drivers/STM32L0xx_HAL_Driver/Src/stm32l0xx_hal_tim.c:1082:52
	ldr	r1, __arm_cp.22_0
	str	r1, [r0, #44]
	.loc	7 1083 7 is_stmt 1              @ ../Drivers/STM32L0xx_HAL_Driver/Src/stm32l0xx_hal_tim.c:1083:7
	ldr	r0, [r5, #36]
	.loc	7 1083 56 is_stmt 0             @ ../Drivers/STM32L0xx_HAL_Driver/Src/stm32l0xx_hal_tim.c:1083:56
	ldr	r1, __arm_cp.22_1
	str	r1, [r0, #48]
	.loc	7 1086 7 is_stmt 1              @ ../Drivers/STM32L0xx_HAL_Driver/Src/stm32l0xx_hal_tim.c:1086:7
	ldr	r0, [r5, #36]
	.loc	7 1086 53 is_stmt 0             @ ../Drivers/STM32L0xx_HAL_Driver/Src/stm32l0xx_hal_tim.c:1086:53
	ldr	r1, __arm_cp.22_2
	str	r1, [r0, #52]
.Ltmp350:
	.loc	7 1089 28 is_stmt 1             @ ../Drivers/STM32L0xx_HAL_Driver/Src/stm32l0xx_hal_tim.c:1089:28
	ldr	r0, [r5, #36]
	.loc	7 1089 90 is_stmt 0             @ ../Drivers/STM32L0xx_HAL_Driver/Src/stm32l0xx_hal_tim.c:1089:90
	ldr	r6, [r5]
	.loc	7 1089 100                      @ ../Drivers/STM32L0xx_HAL_Driver/Src/stm32l0xx_hal_tim.c:1089:100
	adds	r6, #56
	.loc	7 1089 11                       @ ../Drivers/STM32L0xx_HAL_Driver/Src/stm32l0xx_hal_tim.c:1089:11
	mov	r1, r2
	mov	r2, r6
.Ltmp351:
	@DEBUG_VALUE: HAL_TIM_OC_Start_DMA:pData <- [DW_OP_LLVM_entry_value 1] $r2
	bl	HAL_DMA_Start_IT
.Ltmp352:
	mov	r1, r0
	movs	r0, #1
.Ltmp353:
	.loc	7 1089 11                       @ ../Drivers/STM32L0xx_HAL_Driver/Src/stm32l0xx_hal_tim.c:1089:11
	cmp	r1, #0
	bne	.LBB22_44
.Ltmp354:
@ %bb.30:
	@DEBUG_VALUE: HAL_TIM_OC_Start_DMA:pData <- [DW_OP_LLVM_entry_value 1] $r2
	@DEBUG_VALUE: HAL_TIM_OC_Start_DMA:status <- 0
	@DEBUG_VALUE: HAL_TIM_OC_Start_DMA:htim <- $r5
	@DEBUG_VALUE: HAL_TIM_OC_Start_DMA:Channel <- $r4
	.loc	7 0 11                          @ ../Drivers/STM32L0xx_HAL_Driver/Src/stm32l0xx_hal_tim.c:0:11
	lsls	r1, r0, #10
	b	.LBB22_35
.Ltmp355:
.LBB22_31:
	@DEBUG_VALUE: HAL_TIM_OC_Start_DMA:status <- 0
	@DEBUG_VALUE: HAL_TIM_OC_Start_DMA:htim <- $r5
	@DEBUG_VALUE: HAL_TIM_OC_Start_DMA:Channel <- $r4
	@DEBUG_VALUE: HAL_TIM_OC_Start_DMA:Length <- $r3
	@DEBUG_VALUE: HAL_TIM_OC_Start_DMA:pData <- $r2
	.loc	7 1104 7 is_stmt 1              @ ../Drivers/STM32L0xx_HAL_Driver/Src/stm32l0xx_hal_tim.c:1104:7
	ldr	r0, [r5, #40]
	.loc	7 1104 52 is_stmt 0             @ ../Drivers/STM32L0xx_HAL_Driver/Src/stm32l0xx_hal_tim.c:1104:52
	ldr	r1, __arm_cp.22_0
	str	r1, [r0, #44]
	.loc	7 1105 7 is_stmt 1              @ ../Drivers/STM32L0xx_HAL_Driver/Src/stm32l0xx_hal_tim.c:1105:7
	ldr	r0, [r5, #40]
	.loc	7 1105 56 is_stmt 0             @ ../Drivers/STM32L0xx_HAL_Driver/Src/stm32l0xx_hal_tim.c:1105:56
	ldr	r1, __arm_cp.22_1
	str	r1, [r0, #48]
	.loc	7 1108 7 is_stmt 1              @ ../Drivers/STM32L0xx_HAL_Driver/Src/stm32l0xx_hal_tim.c:1108:7
	ldr	r0, [r5, #40]
	.loc	7 1108 53 is_stmt 0             @ ../Drivers/STM32L0xx_HAL_Driver/Src/stm32l0xx_hal_tim.c:1108:53
	ldr	r1, __arm_cp.22_2
	str	r1, [r0, #52]
.Ltmp356:
	.loc	7 1111 28 is_stmt 1             @ ../Drivers/STM32L0xx_HAL_Driver/Src/stm32l0xx_hal_tim.c:1111:28
	ldr	r0, [r5, #40]
	.loc	7 1111 90 is_stmt 0             @ ../Drivers/STM32L0xx_HAL_Driver/Src/stm32l0xx_hal_tim.c:1111:90
	ldr	r6, [r5]
	.loc	7 1111 100                      @ ../Drivers/STM32L0xx_HAL_Driver/Src/stm32l0xx_hal_tim.c:1111:100
	adds	r6, #60
	.loc	7 1111 11                       @ ../Drivers/STM32L0xx_HAL_Driver/Src/stm32l0xx_hal_tim.c:1111:11
	mov	r1, r2
	mov	r2, r6
.Ltmp357:
	@DEBUG_VALUE: HAL_TIM_OC_Start_DMA:pData <- [DW_OP_LLVM_entry_value 1] $r2
	bl	HAL_DMA_Start_IT
.Ltmp358:
	mov	r1, r0
	movs	r0, #1
.Ltmp359:
	.loc	7 1111 11                       @ ../Drivers/STM32L0xx_HAL_Driver/Src/stm32l0xx_hal_tim.c:1111:11
	cmp	r1, #0
	bne	.LBB22_44
.Ltmp360:
@ %bb.32:
	@DEBUG_VALUE: HAL_TIM_OC_Start_DMA:pData <- [DW_OP_LLVM_entry_value 1] $r2
	@DEBUG_VALUE: HAL_TIM_OC_Start_DMA:status <- 0
	@DEBUG_VALUE: HAL_TIM_OC_Start_DMA:htim <- $r5
	@DEBUG_VALUE: HAL_TIM_OC_Start_DMA:Channel <- $r4
	.loc	7 0 11                          @ ../Drivers/STM32L0xx_HAL_Driver/Src/stm32l0xx_hal_tim.c:0:11
	lsls	r1, r0, #11
	b	.LBB22_35
.Ltmp361:
.LBB22_33:
	@DEBUG_VALUE: HAL_TIM_OC_Start_DMA:status <- 0
	@DEBUG_VALUE: HAL_TIM_OC_Start_DMA:htim <- $r5
	@DEBUG_VALUE: HAL_TIM_OC_Start_DMA:Channel <- $r4
	@DEBUG_VALUE: HAL_TIM_OC_Start_DMA:Length <- $r3
	@DEBUG_VALUE: HAL_TIM_OC_Start_DMA:pData <- $r2
	.loc	7 1125 7 is_stmt 1              @ ../Drivers/STM32L0xx_HAL_Driver/Src/stm32l0xx_hal_tim.c:1125:7
	ldr	r0, [r5, #44]
	.loc	7 1125 52 is_stmt 0             @ ../Drivers/STM32L0xx_HAL_Driver/Src/stm32l0xx_hal_tim.c:1125:52
	ldr	r1, __arm_cp.22_0
	str	r1, [r0, #44]
	.loc	7 1126 7 is_stmt 1              @ ../Drivers/STM32L0xx_HAL_Driver/Src/stm32l0xx_hal_tim.c:1126:7
	ldr	r0, [r5, #44]
	.loc	7 1126 56 is_stmt 0             @ ../Drivers/STM32L0xx_HAL_Driver/Src/stm32l0xx_hal_tim.c:1126:56
	ldr	r1, __arm_cp.22_1
	str	r1, [r0, #48]
	.loc	7 1129 7 is_stmt 1              @ ../Drivers/STM32L0xx_HAL_Driver/Src/stm32l0xx_hal_tim.c:1129:7
	ldr	r0, [r5, #44]
	.loc	7 1129 53 is_stmt 0             @ ../Drivers/STM32L0xx_HAL_Driver/Src/stm32l0xx_hal_tim.c:1129:53
	ldr	r1, __arm_cp.22_2
	str	r1, [r0, #52]
.Ltmp362:
	.loc	7 1132 28 is_stmt 1             @ ../Drivers/STM32L0xx_HAL_Driver/Src/stm32l0xx_hal_tim.c:1132:28
	ldr	r0, [r5, #44]
	.loc	7 1132 90 is_stmt 0             @ ../Drivers/STM32L0xx_HAL_Driver/Src/stm32l0xx_hal_tim.c:1132:90
	ldr	r6, [r5]
	.loc	7 1132 100                      @ ../Drivers/STM32L0xx_HAL_Driver/Src/stm32l0xx_hal_tim.c:1132:100
	adds	r6, #64
	.loc	7 1132 11                       @ ../Drivers/STM32L0xx_HAL_Driver/Src/stm32l0xx_hal_tim.c:1132:11
	mov	r1, r2
	mov	r2, r6
.Ltmp363:
	@DEBUG_VALUE: HAL_TIM_OC_Start_DMA:pData <- [DW_OP_LLVM_entry_value 1] $r2
	bl	HAL_DMA_Start_IT
.Ltmp364:
	mov	r1, r0
	movs	r0, #1
.Ltmp365:
	.loc	7 1132 11                       @ ../Drivers/STM32L0xx_HAL_Driver/Src/stm32l0xx_hal_tim.c:1132:11
	cmp	r1, #0
	bne	.LBB22_44
.Ltmp366:
@ %bb.34:
	@DEBUG_VALUE: HAL_TIM_OC_Start_DMA:pData <- [DW_OP_LLVM_entry_value 1] $r2
	@DEBUG_VALUE: HAL_TIM_OC_Start_DMA:status <- 0
	@DEBUG_VALUE: HAL_TIM_OC_Start_DMA:htim <- $r5
	@DEBUG_VALUE: HAL_TIM_OC_Start_DMA:Channel <- $r4
	.loc	7 0 11                          @ ../Drivers/STM32L0xx_HAL_Driver/Src/stm32l0xx_hal_tim.c:0:11
	lsls	r1, r0, #12
.Ltmp367:
.LBB22_35:
	@DEBUG_VALUE: HAL_TIM_OC_Start_DMA:pData <- [DW_OP_LLVM_entry_value 1] $r2
	@DEBUG_VALUE: HAL_TIM_OC_Start_DMA:status <- 0
	@DEBUG_VALUE: HAL_TIM_OC_Start_DMA:htim <- $r5
	@DEBUG_VALUE: HAL_TIM_OC_Start_DMA:Channel <- $r4
	ldr	r0, [r5]
	ldr	r2, [r0, #12]
	orrs	r2, r1
	str	r2, [r0, #12]
	movs	r1, #31
.Ltmp368:
	@DEBUG_VALUE: TIM_CCxChannelCmd:ChannelState <- 1
	@DEBUG_VALUE: TIM_CCxChannelCmd:Channel <- $r4
	@DEBUG_VALUE: TIM_CCxChannelCmd:TIMx <- $r0
	@DEBUG_VALUE: HAL_TIM_OC_Start_DMA:status <- undef
	.loc	7 7130 35 is_stmt 1             @ ../Drivers/STM32L0xx_HAL_Driver/Src/stm32l0xx_hal_tim.c:7130:35
	ands	r4, r1
.Ltmp369:
	@DEBUG_VALUE: HAL_TIM_OC_Start_DMA:Channel <- [DW_OP_LLVM_entry_value 1] $r1
	.loc	7 0 35 is_stmt 0                @ ../Drivers/STM32L0xx_HAL_Driver/Src/stm32l0xx_hal_tim.c:0:35
	movs	r1, #1
	.loc	7 7130 23                       @ ../Drivers/STM32L0xx_HAL_Driver/Src/stm32l0xx_hal_tim.c:7130:23
	mov	r2, r1
	lsls	r2, r4
.Ltmp370:
	@DEBUG_VALUE: TIM_CCxChannelCmd:tmp <- $r2
	.loc	7 7133 14 is_stmt 1             @ ../Drivers/STM32L0xx_HAL_Driver/Src/stm32l0xx_hal_tim.c:7133:14
	ldr	r3, [r0, #32]
	bics	r3, r2
	str	r3, [r0, #32]
	.loc	7 7136 14                       @ ../Drivers/STM32L0xx_HAL_Driver/Src/stm32l0xx_hal_tim.c:7136:14
	ldr	r3, [r0, #32]
	orrs	r3, r2
	str	r3, [r0, #32]
	ldr	r2, __arm_cp.22_3
.Ltmp371:
	.loc	7 1154 9                        @ ../Drivers/STM32L0xx_HAL_Driver/Src/stm32l0xx_hal_tim.c:1154:9
	cmp	r0, r2
	bgt	.LBB22_38
.Ltmp372:
@ %bb.36:
	@DEBUG_VALUE: HAL_TIM_OC_Start_DMA:Channel <- [DW_OP_LLVM_entry_value 1] $r1
	@DEBUG_VALUE: HAL_TIM_OC_Start_DMA:pData <- [DW_OP_LLVM_entry_value 1] $r2
	@DEBUG_VALUE: HAL_TIM_OC_Start_DMA:htim <- $r5
	.loc	7 0 9 is_stmt 0                 @ ../Drivers/STM32L0xx_HAL_Driver/Src/stm32l0xx_hal_tim.c:0:9
	lsls	r2, r1, #30
	.loc	7 1154 9                        @ ../Drivers/STM32L0xx_HAL_Driver/Src/stm32l0xx_hal_tim.c:1154:9
	cmp	r0, r2
	beq	.LBB22_41
.Ltmp373:
@ %bb.37:
	@DEBUG_VALUE: HAL_TIM_OC_Start_DMA:Channel <- [DW_OP_LLVM_entry_value 1] $r1
	@DEBUG_VALUE: HAL_TIM_OC_Start_DMA:pData <- [DW_OP_LLVM_entry_value 1] $r2
	@DEBUG_VALUE: HAL_TIM_OC_Start_DMA:htim <- $r5
	.loc	7 0 9                           @ ../Drivers/STM32L0xx_HAL_Driver/Src/stm32l0xx_hal_tim.c:0:9
	ldr	r2, __arm_cp.22_6
	b	.LBB22_40
.Ltmp374:
.LBB22_38:
	@DEBUG_VALUE: HAL_TIM_OC_Start_DMA:Channel <- [DW_OP_LLVM_entry_value 1] $r1
	@DEBUG_VALUE: HAL_TIM_OC_Start_DMA:pData <- [DW_OP_LLVM_entry_value 1] $r2
	@DEBUG_VALUE: HAL_TIM_OC_Start_DMA:htim <- $r5
	ldr	r2, __arm_cp.22_4
	.loc	7 1154 9                        @ ../Drivers/STM32L0xx_HAL_Driver/Src/stm32l0xx_hal_tim.c:1154:9
	cmp	r0, r2
	beq	.LBB22_41
.Ltmp375:
@ %bb.39:
	@DEBUG_VALUE: HAL_TIM_OC_Start_DMA:Channel <- [DW_OP_LLVM_entry_value 1] $r1
	@DEBUG_VALUE: HAL_TIM_OC_Start_DMA:pData <- [DW_OP_LLVM_entry_value 1] $r2
	@DEBUG_VALUE: HAL_TIM_OC_Start_DMA:htim <- $r5
	.loc	7 0 9                           @ ../Drivers/STM32L0xx_HAL_Driver/Src/stm32l0xx_hal_tim.c:0:9
	ldr	r2, __arm_cp.22_5
.Ltmp376:
.LBB22_40:
	@DEBUG_VALUE: HAL_TIM_OC_Start_DMA:Channel <- [DW_OP_LLVM_entry_value 1] $r1
	@DEBUG_VALUE: HAL_TIM_OC_Start_DMA:pData <- [DW_OP_LLVM_entry_value 1] $r2
	@DEBUG_VALUE: HAL_TIM_OC_Start_DMA:htim <- $r5
	.loc	7 1154 9                        @ ../Drivers/STM32L0xx_HAL_Driver/Src/stm32l0xx_hal_tim.c:1154:9
	cmp	r0, r2
	bne	.LBB22_42
.Ltmp377:
.LBB22_41:
	@DEBUG_VALUE: HAL_TIM_OC_Start_DMA:Channel <- [DW_OP_LLVM_entry_value 1] $r1
	@DEBUG_VALUE: HAL_TIM_OC_Start_DMA:pData <- [DW_OP_LLVM_entry_value 1] $r2
	@DEBUG_VALUE: HAL_TIM_OC_Start_DMA:htim <- $r5
	.loc	7 1156 33 is_stmt 1             @ ../Drivers/STM32L0xx_HAL_Driver/Src/stm32l0xx_hal_tim.c:1156:33
	ldr	r2, [r0, #8]
	movs	r3, #7
	.loc	7 1156 38 is_stmt 0             @ ../Drivers/STM32L0xx_HAL_Driver/Src/stm32l0xx_hal_tim.c:1156:38
	ands	r3, r2
.Ltmp378:
	@DEBUG_VALUE: HAL_TIM_OC_Start_DMA:tmpsmcr <- $r3
	.loc	7 1157 11 is_stmt 1             @ ../Drivers/STM32L0xx_HAL_Driver/Src/stm32l0xx_hal_tim.c:1157:11
	cmp	r3, #6
	beq	.LBB22_43
.Ltmp379:
.LBB22_42:
	@DEBUG_VALUE: HAL_TIM_OC_Start_DMA:Channel <- [DW_OP_LLVM_entry_value 1] $r1
	@DEBUG_VALUE: HAL_TIM_OC_Start_DMA:pData <- [DW_OP_LLVM_entry_value 1] $r2
	@DEBUG_VALUE: HAL_TIM_OC_Start_DMA:htim <- $r5
	.loc	7 0 0 is_stmt 0                 @ ../Drivers/STM32L0xx_HAL_Driver/Src/stm32l0xx_hal_tim.c:0:0
	ldr	r2, [r0]
	orrs	r2, r1
	str	r2, [r0]
.Ltmp380:
.LBB22_43:
	@DEBUG_VALUE: HAL_TIM_OC_Start_DMA:Channel <- [DW_OP_LLVM_entry_value 1] $r1
	@DEBUG_VALUE: HAL_TIM_OC_Start_DMA:pData <- [DW_OP_LLVM_entry_value 1] $r2
	@DEBUG_VALUE: HAL_TIM_OC_Start_DMA:htim <- $r5
	movs	r0, #0
.Ltmp381:
.LBB22_44:
	@DEBUG_VALUE: HAL_TIM_OC_Start_DMA:htim <- $r5
	.loc	7 1170 1 is_stmt 1              @ ../Drivers/STM32L0xx_HAL_Driver/Src/stm32l0xx_hal_tim.c:1170:1
	pop	{r4, r5, r6, pc}
.Ltmp382:
	.p2align	2
@ %bb.45:
	.loc	7 0 1 is_stmt 0                 @ ../Drivers/STM32L0xx_HAL_Driver/Src/stm32l0xx_hal_tim.c:0:1
__arm_cp.22_0:
	.long	TIM_DMADelayPulseCplt
.Lcpi_end36:
	.size	__arm_cp.22_0, .Lcpi_end36-__arm_cp.22_0
__arm_cp.22_1:
	.long	TIM_DMADelayPulseHalfCplt
.Lcpi_end37:
	.size	__arm_cp.22_1, .Lcpi_end37-__arm_cp.22_1
__arm_cp.22_2:
	.long	TIM_DMAError
.Lcpi_end38:
	.size	__arm_cp.22_2, .Lcpi_end38-__arm_cp.22_2
__arm_cp.22_3:
	.long	1073809407                      @ 0x400107ff
.Lcpi_end39:
	.size	__arm_cp.22_3, .Lcpi_end39-__arm_cp.22_3
__arm_cp.22_4:
	.long	1073812480                      @ 0x40011400
.Lcpi_end40:
	.size	__arm_cp.22_4, .Lcpi_end40-__arm_cp.22_4
__arm_cp.22_5:
	.long	1073809408                      @ 0x40010800
.Lcpi_end41:
	.size	__arm_cp.22_5, .Lcpi_end41-__arm_cp.22_5
__arm_cp.22_6:
	.long	1073742848                      @ 0x40000400
.Lcpi_end42:
	.size	__arm_cp.22_6, .Lcpi_end42-__arm_cp.22_6
.Lfunc_end22:
	.size	HAL_TIM_OC_Start_DMA, .Lfunc_end22-HAL_TIM_OC_Start_DMA
	.cfi_endproc
	.cantunwind
	.fnend
                                        @ -- End function
	.section	.text.TIM_DMADelayPulseCplt,"ax",%progbits
	.p2align	1                               @ -- Begin function TIM_DMADelayPulseCplt
	.type	TIM_DMADelayPulseCplt,%function
	.code	16                              @ @TIM_DMADelayPulseCplt
	.thumb_func
TIM_DMADelayPulseCplt:
.Lfunc_begin23:
	.loc	7 6162 0 is_stmt 1              @ ../Drivers/STM32L0xx_HAL_Driver/Src/stm32l0xx_hal_tim.c:6162:0
	.fnstart
	.cfi_startproc
@ %bb.0:
	@DEBUG_VALUE: TIM_DMADelayPulseCplt:hdma <- $r0
	.save	{r4, lr}
	push	{r4, lr}
	.cfi_def_cfa_offset 8
	.cfi_offset lr, -4
	.cfi_offset r4, -8
.Ltmp383:
	.loc	7 6163 79 prologue_end          @ ../Drivers/STM32L0xx_HAL_Driver/Src/stm32l0xx_hal_tim.c:6163:79
	ldr	r4, [r0, #40]
	.loc	7 0 0 is_stmt 0                 @ ../Drivers/STM32L0xx_HAL_Driver/Src/stm32l0xx_hal_tim.c:0:0
	mov	r1, r4
	adds	r1, #58
.Ltmp384:
	@DEBUG_VALUE: TIM_DMADelayPulseCplt:htim <- $r4
	.loc	7 6165 15 is_stmt 1             @ ../Drivers/STM32L0xx_HAL_Driver/Src/stm32l0xx_hal_tim.c:6165:15
	ldr	r2, [r4, #32]
.Ltmp385:
	.loc	7 6165 7 is_stmt 0              @ ../Drivers/STM32L0xx_HAL_Driver/Src/stm32l0xx_hal_tim.c:6165:7
	cmp	r2, r0
	beq	.LBB23_6
.Ltmp386:
@ %bb.1:
	@DEBUG_VALUE: TIM_DMADelayPulseCplt:htim <- $r4
	@DEBUG_VALUE: TIM_DMADelayPulseCplt:hdma <- $r0
	.loc	7 6174 20 is_stmt 1             @ ../Drivers/STM32L0xx_HAL_Driver/Src/stm32l0xx_hal_tim.c:6174:20
	ldr	r2, [r4, #36]
.Ltmp387:
	.loc	7 6174 12 is_stmt 0             @ ../Drivers/STM32L0xx_HAL_Driver/Src/stm32l0xx_hal_tim.c:6174:12
	cmp	r2, r0
	beq	.LBB23_8
.Ltmp388:
@ %bb.2:
	@DEBUG_VALUE: TIM_DMADelayPulseCplt:htim <- $r4
	@DEBUG_VALUE: TIM_DMADelayPulseCplt:hdma <- $r0
	.loc	7 6183 20 is_stmt 1             @ ../Drivers/STM32L0xx_HAL_Driver/Src/stm32l0xx_hal_tim.c:6183:20
	ldr	r2, [r4, #40]
.Ltmp389:
	.loc	7 6183 12 is_stmt 0             @ ../Drivers/STM32L0xx_HAL_Driver/Src/stm32l0xx_hal_tim.c:6183:12
	cmp	r2, r0
	beq	.LBB23_10
.Ltmp390:
@ %bb.3:
	@DEBUG_VALUE: TIM_DMADelayPulseCplt:htim <- $r4
	@DEBUG_VALUE: TIM_DMADelayPulseCplt:hdma <- $r0
	.loc	7 6192 20 is_stmt 1             @ ../Drivers/STM32L0xx_HAL_Driver/Src/stm32l0xx_hal_tim.c:6192:20
	ldr	r2, [r4, #44]
.Ltmp391:
	.loc	7 6192 12 is_stmt 0             @ ../Drivers/STM32L0xx_HAL_Driver/Src/stm32l0xx_hal_tim.c:6192:12
	cmp	r2, r0
	bne	.LBB23_12
.Ltmp392:
@ %bb.4:
	@DEBUG_VALUE: TIM_DMADelayPulseCplt:htim <- $r4
	@DEBUG_VALUE: TIM_DMADelayPulseCplt:hdma <- $r0
	.loc	7 0 12                          @ ../Drivers/STM32L0xx_HAL_Driver/Src/stm32l0xx_hal_tim.c:0:12
	movs	r2, #8
.Ltmp393:
	.loc	7 6194 19 is_stmt 1             @ ../Drivers/STM32L0xx_HAL_Driver/Src/stm32l0xx_hal_tim.c:6194:19
	strb	r2, [r4, #24]
.Ltmp394:
	.loc	7 6196 20                       @ ../Drivers/STM32L0xx_HAL_Driver/Src/stm32l0xx_hal_tim.c:6196:20
	ldr	r0, [r0, #28]
.Ltmp395:
	@DEBUG_VALUE: TIM_DMADelayPulseCplt:hdma <- [DW_OP_LLVM_entry_value 1] $r0
	.loc	7 6196 9 is_stmt 0              @ ../Drivers/STM32L0xx_HAL_Driver/Src/stm32l0xx_hal_tim.c:6196:9
	cmp	r0, #0
	bne	.LBB23_12
.Ltmp396:
@ %bb.5:
	@DEBUG_VALUE: TIM_DMADelayPulseCplt:hdma <- [DW_OP_LLVM_entry_value 1] $r0
	@DEBUG_VALUE: TIM_DMADelayPulseCplt:htim <- $r4
	.loc	7 0 9                           @ ../Drivers/STM32L0xx_HAL_Driver/Src/stm32l0xx_hal_tim.c:0:9
	movs	r0, #1
.Ltmp397:
	.loc	7 6198 7 is_stmt 1              @ ../Drivers/STM32L0xx_HAL_Driver/Src/stm32l0xx_hal_tim.c:6198:7
	strb	r0, [r1, #3]
	b	.LBB23_12
.Ltmp398:
.LBB23_6:
	@DEBUG_VALUE: TIM_DMADelayPulseCplt:htim <- $r4
	@DEBUG_VALUE: TIM_DMADelayPulseCplt:hdma <- $r0
	.loc	7 0 7 is_stmt 0                 @ ../Drivers/STM32L0xx_HAL_Driver/Src/stm32l0xx_hal_tim.c:0:7
	movs	r2, #1
.Ltmp399:
	.loc	7 6167 19 is_stmt 1             @ ../Drivers/STM32L0xx_HAL_Driver/Src/stm32l0xx_hal_tim.c:6167:19
	strb	r2, [r4, #24]
.Ltmp400:
	.loc	7 6169 20                       @ ../Drivers/STM32L0xx_HAL_Driver/Src/stm32l0xx_hal_tim.c:6169:20
	ldr	r0, [r0, #28]
.Ltmp401:
	@DEBUG_VALUE: TIM_DMADelayPulseCplt:hdma <- [DW_OP_LLVM_entry_value 1] $r0
	.loc	7 6169 9 is_stmt 0              @ ../Drivers/STM32L0xx_HAL_Driver/Src/stm32l0xx_hal_tim.c:6169:9
	cmp	r0, #0
	bne	.LBB23_12
.Ltmp402:
@ %bb.7:
	@DEBUG_VALUE: TIM_DMADelayPulseCplt:hdma <- [DW_OP_LLVM_entry_value 1] $r0
	@DEBUG_VALUE: TIM_DMADelayPulseCplt:htim <- $r4
	.loc	7 6171 7 is_stmt 1              @ ../Drivers/STM32L0xx_HAL_Driver/Src/stm32l0xx_hal_tim.c:6171:7
	strb	r2, [r1]
	b	.LBB23_12
.Ltmp403:
.LBB23_8:
	@DEBUG_VALUE: TIM_DMADelayPulseCplt:htim <- $r4
	@DEBUG_VALUE: TIM_DMADelayPulseCplt:hdma <- $r0
	.loc	7 0 7 is_stmt 0                 @ ../Drivers/STM32L0xx_HAL_Driver/Src/stm32l0xx_hal_tim.c:0:7
	movs	r2, #2
.Ltmp404:
	.loc	7 6176 19 is_stmt 1             @ ../Drivers/STM32L0xx_HAL_Driver/Src/stm32l0xx_hal_tim.c:6176:19
	strb	r2, [r4, #24]
.Ltmp405:
	.loc	7 6178 20                       @ ../Drivers/STM32L0xx_HAL_Driver/Src/stm32l0xx_hal_tim.c:6178:20
	ldr	r0, [r0, #28]
.Ltmp406:
	@DEBUG_VALUE: TIM_DMADelayPulseCplt:hdma <- [DW_OP_LLVM_entry_value 1] $r0
	.loc	7 6178 9 is_stmt 0              @ ../Drivers/STM32L0xx_HAL_Driver/Src/stm32l0xx_hal_tim.c:6178:9
	cmp	r0, #0
	bne	.LBB23_12
.Ltmp407:
@ %bb.9:
	@DEBUG_VALUE: TIM_DMADelayPulseCplt:hdma <- [DW_OP_LLVM_entry_value 1] $r0
	@DEBUG_VALUE: TIM_DMADelayPulseCplt:htim <- $r4
	.loc	7 0 9                           @ ../Drivers/STM32L0xx_HAL_Driver/Src/stm32l0xx_hal_tim.c:0:9
	movs	r0, #1
.Ltmp408:
	.loc	7 6180 7 is_stmt 1              @ ../Drivers/STM32L0xx_HAL_Driver/Src/stm32l0xx_hal_tim.c:6180:7
	strb	r0, [r1, #1]
	b	.LBB23_12
.Ltmp409:
.LBB23_10:
	@DEBUG_VALUE: TIM_DMADelayPulseCplt:htim <- $r4
	@DEBUG_VALUE: TIM_DMADelayPulseCplt:hdma <- $r0
	.loc	7 0 7 is_stmt 0                 @ ../Drivers/STM32L0xx_HAL_Driver/Src/stm32l0xx_hal_tim.c:0:7
	movs	r2, #4
.Ltmp410:
	.loc	7 6185 19 is_stmt 1             @ ../Drivers/STM32L0xx_HAL_Driver/Src/stm32l0xx_hal_tim.c:6185:19
	strb	r2, [r4, #24]
.Ltmp411:
	.loc	7 6187 20                       @ ../Drivers/STM32L0xx_HAL_Driver/Src/stm32l0xx_hal_tim.c:6187:20
	ldr	r0, [r0, #28]
.Ltmp412:
	@DEBUG_VALUE: TIM_DMADelayPulseCplt:hdma <- [DW_OP_LLVM_entry_value 1] $r0
	.loc	7 6187 9 is_stmt 0              @ ../Drivers/STM32L0xx_HAL_Driver/Src/stm32l0xx_hal_tim.c:6187:9
	cmp	r0, #0
	bne	.LBB23_12
.Ltmp413:
@ %bb.11:
	@DEBUG_VALUE: TIM_DMADelayPulseCplt:hdma <- [DW_OP_LLVM_entry_value 1] $r0
	@DEBUG_VALUE: TIM_DMADelayPulseCplt:htim <- $r4
	.loc	7 0 9                           @ ../Drivers/STM32L0xx_HAL_Driver/Src/stm32l0xx_hal_tim.c:0:9
	movs	r0, #1
.Ltmp414:
	.loc	7 6189 7 is_stmt 1              @ ../Drivers/STM32L0xx_HAL_Driver/Src/stm32l0xx_hal_tim.c:6189:7
	strb	r0, [r1, #2]
.Ltmp415:
.LBB23_12:
	@DEBUG_VALUE: TIM_DMADelayPulseCplt:htim <- $r4
	.loc	7 6209 3                        @ ../Drivers/STM32L0xx_HAL_Driver/Src/stm32l0xx_hal_tim.c:6209:3
	mov	r0, r4
	bl	HAL_TIM_PWM_PulseFinishedCallback
.Ltmp416:
	.loc	7 0 3 is_stmt 0                 @ ../Drivers/STM32L0xx_HAL_Driver/Src/stm32l0xx_hal_tim.c:0:3
	movs	r0, #0
	.loc	7 6212 17 is_stmt 1             @ ../Drivers/STM32L0xx_HAL_Driver/Src/stm32l0xx_hal_tim.c:6212:17
	strb	r0, [r4, #24]
	.loc	7 6213 1                        @ ../Drivers/STM32L0xx_HAL_Driver/Src/stm32l0xx_hal_tim.c:6213:1
	pop	{r4, pc}
.Ltmp417:
.Lfunc_end23:
	.size	TIM_DMADelayPulseCplt, .Lfunc_end23-TIM_DMADelayPulseCplt
	.cfi_endproc
	.cantunwind
	.fnend
                                        @ -- End function
	.section	.text.TIM_DMADelayPulseHalfCplt,"ax",%progbits
	.p2align	1                               @ -- Begin function TIM_DMADelayPulseHalfCplt
	.type	TIM_DMADelayPulseHalfCplt,%function
	.code	16                              @ @TIM_DMADelayPulseHalfCplt
	.thumb_func
TIM_DMADelayPulseHalfCplt:
.Lfunc_begin24:
	.loc	7 6221 0                        @ ../Drivers/STM32L0xx_HAL_Driver/Src/stm32l0xx_hal_tim.c:6221:0
	.fnstart
	.cfi_startproc
@ %bb.0:
	@DEBUG_VALUE: TIM_DMADelayPulseHalfCplt:hdma <- $r0
	.save	{r4, lr}
	push	{r4, lr}
	.cfi_def_cfa_offset 8
	.cfi_offset lr, -4
	.cfi_offset r4, -8
.Ltmp418:
	.loc	7 6222 79 prologue_end          @ ../Drivers/STM32L0xx_HAL_Driver/Src/stm32l0xx_hal_tim.c:6222:79
	ldr	r4, [r0, #40]
.Ltmp419:
	@DEBUG_VALUE: TIM_DMADelayPulseHalfCplt:htim <- $r4
	.loc	7 6224 15                       @ ../Drivers/STM32L0xx_HAL_Driver/Src/stm32l0xx_hal_tim.c:6224:15
	ldr	r1, [r4, #32]
.Ltmp420:
	.loc	7 6224 7 is_stmt 0              @ ../Drivers/STM32L0xx_HAL_Driver/Src/stm32l0xx_hal_tim.c:6224:7
	cmp	r1, r0
	beq	.LBB24_5
.Ltmp421:
@ %bb.1:
	@DEBUG_VALUE: TIM_DMADelayPulseHalfCplt:htim <- $r4
	@DEBUG_VALUE: TIM_DMADelayPulseHalfCplt:hdma <- $r0
	.loc	7 6228 20 is_stmt 1             @ ../Drivers/STM32L0xx_HAL_Driver/Src/stm32l0xx_hal_tim.c:6228:20
	ldr	r1, [r4, #36]
.Ltmp422:
	.loc	7 6228 12 is_stmt 0             @ ../Drivers/STM32L0xx_HAL_Driver/Src/stm32l0xx_hal_tim.c:6228:12
	cmp	r1, r0
	beq	.LBB24_6
.Ltmp423:
@ %bb.2:
	@DEBUG_VALUE: TIM_DMADelayPulseHalfCplt:htim <- $r4
	@DEBUG_VALUE: TIM_DMADelayPulseHalfCplt:hdma <- $r0
	.loc	7 6232 20 is_stmt 1             @ ../Drivers/STM32L0xx_HAL_Driver/Src/stm32l0xx_hal_tim.c:6232:20
	ldr	r1, [r4, #40]
.Ltmp424:
	.loc	7 6232 12 is_stmt 0             @ ../Drivers/STM32L0xx_HAL_Driver/Src/stm32l0xx_hal_tim.c:6232:12
	cmp	r1, r0
	beq	.LBB24_7
.Ltmp425:
@ %bb.3:
	@DEBUG_VALUE: TIM_DMADelayPulseHalfCplt:htim <- $r4
	@DEBUG_VALUE: TIM_DMADelayPulseHalfCplt:hdma <- $r0
	.loc	7 6236 20 is_stmt 1             @ ../Drivers/STM32L0xx_HAL_Driver/Src/stm32l0xx_hal_tim.c:6236:20
	ldr	r1, [r4, #44]
.Ltmp426:
	.loc	7 6236 12 is_stmt 0             @ ../Drivers/STM32L0xx_HAL_Driver/Src/stm32l0xx_hal_tim.c:6236:12
	cmp	r1, r0
	bne	.LBB24_9
.Ltmp427:
@ %bb.4:
	@DEBUG_VALUE: TIM_DMADelayPulseHalfCplt:htim <- $r4
	@DEBUG_VALUE: TIM_DMADelayPulseHalfCplt:hdma <- $r0
	.loc	7 0 12                          @ ../Drivers/STM32L0xx_HAL_Driver/Src/stm32l0xx_hal_tim.c:0:12
	movs	r0, #8
.Ltmp428:
	@DEBUG_VALUE: TIM_DMADelayPulseHalfCplt:hdma <- [DW_OP_LLVM_entry_value 1] $r0
	b	.LBB24_8
.Ltmp429:
.LBB24_5:
	@DEBUG_VALUE: TIM_DMADelayPulseHalfCplt:htim <- $r4
	@DEBUG_VALUE: TIM_DMADelayPulseHalfCplt:hdma <- $r0
	movs	r0, #1
.Ltmp430:
	@DEBUG_VALUE: TIM_DMADelayPulseHalfCplt:hdma <- [DW_OP_LLVM_entry_value 1] $r0
	b	.LBB24_8
.Ltmp431:
.LBB24_6:
	@DEBUG_VALUE: TIM_DMADelayPulseHalfCplt:htim <- $r4
	@DEBUG_VALUE: TIM_DMADelayPulseHalfCplt:hdma <- $r0
	movs	r0, #2
.Ltmp432:
	@DEBUG_VALUE: TIM_DMADelayPulseHalfCplt:hdma <- [DW_OP_LLVM_entry_value 1] $r0
	b	.LBB24_8
.Ltmp433:
.LBB24_7:
	@DEBUG_VALUE: TIM_DMADelayPulseHalfCplt:htim <- $r4
	@DEBUG_VALUE: TIM_DMADelayPulseHalfCplt:hdma <- $r0
	movs	r0, #4
.Ltmp434:
	@DEBUG_VALUE: TIM_DMADelayPulseHalfCplt:hdma <- [DW_OP_LLVM_entry_value 1] $r0
.LBB24_8:
	@DEBUG_VALUE: TIM_DMADelayPulseHalfCplt:hdma <- [DW_OP_LLVM_entry_value 1] $r0
	@DEBUG_VALUE: TIM_DMADelayPulseHalfCplt:htim <- $r4
	strb	r0, [r4, #24]
.Ltmp435:
.LBB24_9:
	@DEBUG_VALUE: TIM_DMADelayPulseHalfCplt:htim <- $r4
	.loc	7 6248 3 is_stmt 1              @ ../Drivers/STM32L0xx_HAL_Driver/Src/stm32l0xx_hal_tim.c:6248:3
	mov	r0, r4
	bl	HAL_TIM_PWM_PulseFinishedHalfCpltCallback
.Ltmp436:
	.loc	7 0 3 is_stmt 0                 @ ../Drivers/STM32L0xx_HAL_Driver/Src/stm32l0xx_hal_tim.c:0:3
	movs	r0, #0
	.loc	7 6251 17 is_stmt 1             @ ../Drivers/STM32L0xx_HAL_Driver/Src/stm32l0xx_hal_tim.c:6251:17
	strb	r0, [r4, #24]
	.loc	7 6252 1                        @ ../Drivers/STM32L0xx_HAL_Driver/Src/stm32l0xx_hal_tim.c:6252:1
	pop	{r4, pc}
.Ltmp437:
.Lfunc_end24:
	.size	TIM_DMADelayPulseHalfCplt, .Lfunc_end24-TIM_DMADelayPulseHalfCplt
	.cfi_endproc
	.cantunwind
	.fnend
                                        @ -- End function
	.section	.text.HAL_TIM_OC_Stop_DMA,"ax",%progbits
	.hidden	HAL_TIM_OC_Stop_DMA             @ -- Begin function HAL_TIM_OC_Stop_DMA
	.globl	HAL_TIM_OC_Stop_DMA
	.p2align	2
	.type	HAL_TIM_OC_Stop_DMA,%function
	.code	16                              @ @HAL_TIM_OC_Stop_DMA
	.thumb_func
HAL_TIM_OC_Stop_DMA:
.Lfunc_begin25:
	.loc	7 1184 0                        @ ../Drivers/STM32L0xx_HAL_Driver/Src/stm32l0xx_hal_tim.c:1184:0
	.fnstart
	.cfi_startproc
@ %bb.0:
	@DEBUG_VALUE: HAL_TIM_OC_Stop_DMA:htim <- $r0
	@DEBUG_VALUE: HAL_TIM_OC_Stop_DMA:Channel <- $r1
	.save	{r4, r5, r7, lr}
	push	{r4, r5, r7, lr}
	.cfi_def_cfa_offset 16
	.cfi_offset lr, -4
	.cfi_offset r7, -8
	.cfi_offset r5, -12
	.cfi_offset r4, -16
	mov	r5, r1
.Ltmp438:
	@DEBUG_VALUE: HAL_TIM_OC_Stop_DMA:Channel <- $r5
	mov	r4, r0
.Ltmp439:
	@DEBUG_VALUE: HAL_TIM_OC_Stop_DMA:htim <- $r4
	movs	r1, #2
.Ltmp440:
	@DEBUG_VALUE: HAL_TIM_OC_Stop_DMA:status <- 0
	.loc	7 1190 3 prologue_end           @ ../Drivers/STM32L0xx_HAL_Driver/Src/stm32l0xx_hal_tim.c:1190:3
	mov	r0, r5
	rors	r0, r1
	cmp	r0, #3
	bhi	.LBB25_4
.Ltmp441:
@ %bb.1:
	@DEBUG_VALUE: HAL_TIM_OC_Stop_DMA:status <- 0
	@DEBUG_VALUE: HAL_TIM_OC_Stop_DMA:htim <- $r4
	@DEBUG_VALUE: HAL_TIM_OC_Stop_DMA:Channel <- $r5
	.loc	7 0 3 is_stmt 0                 @ ../Drivers/STM32L0xx_HAL_Driver/Src/stm32l0xx_hal_tim.c:0:3
	.p2align	2
	add	r0, pc
	ldrb	r0, [r0, #4]
	lsls	r0, r0, #1
.LCPI25_1:
	add	pc, r0
.Ltmp442:
@ %bb.2:
	.p2align	2
.LJTI25_0:
	.byte	(.LBB25_3-(.LCPI25_1+4))/2
	.byte	(.LBB25_5-(.LCPI25_1+4))/2
	.byte	(.LBB25_6-(.LCPI25_1+4))/2
	.byte	(.LBB25_7-(.LCPI25_1+4))/2
	.p2align	1
.LBB25_3:
.Ltmp443:
	@DEBUG_VALUE: HAL_TIM_OC_Stop_DMA:status <- 0
	@DEBUG_VALUE: HAL_TIM_OC_Stop_DMA:htim <- $r4
	@DEBUG_VALUE: HAL_TIM_OC_Stop_DMA:Channel <- $r5
	movs	r0, #1
	lsls	r0, r0, #9
.Ltmp444:
	.loc	7 1195 7 is_stmt 1              @ ../Drivers/STM32L0xx_HAL_Driver/Src/stm32l0xx_hal_tim.c:1195:7
	ldr	r1, [r4]
	ldr	r2, [r1, #12]
	bics	r2, r0
	str	r2, [r1, #12]
	.loc	7 1196 30                       @ ../Drivers/STM32L0xx_HAL_Driver/Src/stm32l0xx_hal_tim.c:1196:30
	mov	r0, r4
	adds	r0, #32
	b	.LBB25_8
.Ltmp445:
.LBB25_4:
	@DEBUG_VALUE: HAL_TIM_OC_Stop_DMA:status <- 0
	@DEBUG_VALUE: HAL_TIM_OC_Stop_DMA:htim <- $r4
	@DEBUG_VALUE: HAL_TIM_OC_Stop_DMA:Channel <- $r5
	.loc	7 0 30 is_stmt 0                @ ../Drivers/STM32L0xx_HAL_Driver/Src/stm32l0xx_hal_tim.c:0:30
	movs	r0, #1
	.loc	7 1242 3 is_stmt 1              @ ../Drivers/STM32L0xx_HAL_Driver/Src/stm32l0xx_hal_tim.c:1242:3
	pop	{r4, r5, r7, pc}
.Ltmp446:
.LBB25_5:
	@DEBUG_VALUE: HAL_TIM_OC_Stop_DMA:status <- 0
	@DEBUG_VALUE: HAL_TIM_OC_Stop_DMA:htim <- $r4
	@DEBUG_VALUE: HAL_TIM_OC_Stop_DMA:Channel <- $r5
	.loc	7 0 3 is_stmt 0                 @ ../Drivers/STM32L0xx_HAL_Driver/Src/stm32l0xx_hal_tim.c:0:3
	movs	r0, #1
	lsls	r0, r0, #10
.Ltmp447:
	.loc	7 1203 7 is_stmt 1              @ ../Drivers/STM32L0xx_HAL_Driver/Src/stm32l0xx_hal_tim.c:1203:7
	ldr	r1, [r4]
	ldr	r2, [r1, #12]
	bics	r2, r0
	str	r2, [r1, #12]
	.loc	7 1204 30                       @ ../Drivers/STM32L0xx_HAL_Driver/Src/stm32l0xx_hal_tim.c:1204:30
	mov	r0, r4
	adds	r0, #36
	b	.LBB25_8
.Ltmp448:
.LBB25_6:
	@DEBUG_VALUE: HAL_TIM_OC_Stop_DMA:status <- 0
	@DEBUG_VALUE: HAL_TIM_OC_Stop_DMA:htim <- $r4
	@DEBUG_VALUE: HAL_TIM_OC_Stop_DMA:Channel <- $r5
	.loc	7 0 30 is_stmt 0                @ ../Drivers/STM32L0xx_HAL_Driver/Src/stm32l0xx_hal_tim.c:0:30
	movs	r0, #1
	lsls	r0, r0, #11
.Ltmp449:
	.loc	7 1211 7 is_stmt 1              @ ../Drivers/STM32L0xx_HAL_Driver/Src/stm32l0xx_hal_tim.c:1211:7
	ldr	r1, [r4]
	ldr	r2, [r1, #12]
	bics	r2, r0
	str	r2, [r1, #12]
	.loc	7 1212 30                       @ ../Drivers/STM32L0xx_HAL_Driver/Src/stm32l0xx_hal_tim.c:1212:30
	mov	r0, r4
	adds	r0, #40
	b	.LBB25_8
.Ltmp450:
.LBB25_7:
	@DEBUG_VALUE: HAL_TIM_OC_Stop_DMA:status <- 0
	@DEBUG_VALUE: HAL_TIM_OC_Stop_DMA:htim <- $r4
	@DEBUG_VALUE: HAL_TIM_OC_Stop_DMA:Channel <- $r5
	.loc	7 0 30 is_stmt 0                @ ../Drivers/STM32L0xx_HAL_Driver/Src/stm32l0xx_hal_tim.c:0:30
	movs	r0, #1
	lsls	r0, r0, #12
.Ltmp451:
	.loc	7 1219 7 is_stmt 1              @ ../Drivers/STM32L0xx_HAL_Driver/Src/stm32l0xx_hal_tim.c:1219:7
	ldr	r1, [r4]
	ldr	r2, [r1, #12]
	bics	r2, r0
	str	r2, [r1, #12]
	.loc	7 1220 30                       @ ../Drivers/STM32L0xx_HAL_Driver/Src/stm32l0xx_hal_tim.c:1220:30
	mov	r0, r4
	adds	r0, #44
.Ltmp452:
.LBB25_8:
	@DEBUG_VALUE: HAL_TIM_OC_Stop_DMA:status <- 0
	@DEBUG_VALUE: HAL_TIM_OC_Stop_DMA:htim <- $r4
	@DEBUG_VALUE: HAL_TIM_OC_Stop_DMA:Channel <- $r5
	.loc	7 0 0 is_stmt 0                 @ ../Drivers/STM32L0xx_HAL_Driver/Src/stm32l0xx_hal_tim.c:0:0
	ldr	r0, [r0]
	bl	HAL_DMA_Abort_IT
.Ltmp453:
	movs	r1, #31
.Ltmp454:
	@DEBUG_VALUE: TIM_CCxChannelCmd:ChannelState <- 0
	@DEBUG_VALUE: TIM_CCxChannelCmd:Channel <- $r5
	.loc	7 7130 35 is_stmt 1             @ ../Drivers/STM32L0xx_HAL_Driver/Src/stm32l0xx_hal_tim.c:7130:35
	ands	r1, r5
	movs	r0, #1
	.loc	7 7130 23 is_stmt 0             @ ../Drivers/STM32L0xx_HAL_Driver/Src/stm32l0xx_hal_tim.c:7130:23
	mov	r2, r0
	lsls	r2, r1
.Ltmp455:
	@DEBUG_VALUE: TIM_CCxChannelCmd:tmp <- $r2
	@DEBUG_VALUE: HAL_TIM_OC_Stop_DMA:status <- undef
	.loc	7 1232 29 is_stmt 1             @ ../Drivers/STM32L0xx_HAL_Driver/Src/stm32l0xx_hal_tim.c:1232:29
	ldr	r1, [r4]
.Ltmp456:
	@DEBUG_VALUE: TIM_CCxChannelCmd:TIMx <- $r1
	.loc	7 7133 14                       @ ../Drivers/STM32L0xx_HAL_Driver/Src/stm32l0xx_hal_tim.c:7133:14
	ldr	r3, [r1, #32]
	@DEBUG_VALUE: TIM_CCxChannelCmd:ChannelState <- 0
	bics	r3, r2
	str	r3, [r1, #32]
	.loc	7 7136 14                       @ ../Drivers/STM32L0xx_HAL_Driver/Src/stm32l0xx_hal_tim.c:7136:14
	ldr	r2, [r1, #32]
.Ltmp457:
	str	r2, [r1, #32]
.Ltmp458:
	.loc	7 1235 5                        @ ../Drivers/STM32L0xx_HAL_Driver/Src/stm32l0xx_hal_tim.c:1235:5
	ldr	r2, [r1, #32]
	ldr	r3, __arm_cp.25_0
.Ltmp459:
	.loc	7 1235 5 is_stmt 0              @ ../Drivers/STM32L0xx_HAL_Driver/Src/stm32l0xx_hal_tim.c:1235:5
	tst	r2, r3
	bne	.LBB25_10
.Ltmp460:
@ %bb.9:
	@DEBUG_VALUE: HAL_TIM_OC_Stop_DMA:htim <- $r4
	@DEBUG_VALUE: HAL_TIM_OC_Stop_DMA:Channel <- $r5
	.loc	7 1235 5                        @ ../Drivers/STM32L0xx_HAL_Driver/Src/stm32l0xx_hal_tim.c:1235:5
	ldr	r2, [r1]
	bics	r2, r0
	str	r2, [r1]
.Ltmp461:
.LBB25_10:
	@DEBUG_VALUE: HAL_TIM_OC_Stop_DMA:htim <- $r4
	@DEBUG_VALUE: HAL_TIM_OC_Stop_DMA:Channel <- $r5
	.loc	7 0 5                           @ ../Drivers/STM32L0xx_HAL_Driver/Src/stm32l0xx_hal_tim.c:0:5
	adds	r4, #58
.Ltmp462:
	@DEBUG_VALUE: HAL_TIM_OC_Stop_DMA:htim <- [DW_OP_LLVM_entry_value 1] $r0
	.loc	7 1238 5 is_stmt 1              @ ../Drivers/STM32L0xx_HAL_Driver/Src/stm32l0xx_hal_tim.c:1238:5
	cmp	r5, #8
	beq	.LBB25_14
.Ltmp463:
@ %bb.11:
	@DEBUG_VALUE: HAL_TIM_OC_Stop_DMA:htim <- [DW_OP_LLVM_entry_value 1] $r0
	@DEBUG_VALUE: HAL_TIM_OC_Stop_DMA:Channel <- $r5
	cmp	r5, #4
	beq	.LBB25_15
.Ltmp464:
@ %bb.12:
	@DEBUG_VALUE: HAL_TIM_OC_Stop_DMA:htim <- [DW_OP_LLVM_entry_value 1] $r0
	@DEBUG_VALUE: HAL_TIM_OC_Stop_DMA:Channel <- $r5
	cmp	r5, #0
	bne	.LBB25_16
.Ltmp465:
@ %bb.13:
	@DEBUG_VALUE: HAL_TIM_OC_Stop_DMA:htim <- [DW_OP_LLVM_entry_value 1] $r0
	@DEBUG_VALUE: HAL_TIM_OC_Stop_DMA:Channel <- $r5
	strb	r0, [r4]
	b	.LBB25_17
.Ltmp466:
.LBB25_14:
	@DEBUG_VALUE: HAL_TIM_OC_Stop_DMA:htim <- [DW_OP_LLVM_entry_value 1] $r0
	@DEBUG_VALUE: HAL_TIM_OC_Stop_DMA:Channel <- $r5
	strb	r0, [r4, #2]
	b	.LBB25_17
.Ltmp467:
.LBB25_15:
	@DEBUG_VALUE: HAL_TIM_OC_Stop_DMA:htim <- [DW_OP_LLVM_entry_value 1] $r0
	@DEBUG_VALUE: HAL_TIM_OC_Stop_DMA:Channel <- $r5
	strb	r0, [r4, #1]
	b	.LBB25_17
.Ltmp468:
.LBB25_16:
	@DEBUG_VALUE: HAL_TIM_OC_Stop_DMA:htim <- [DW_OP_LLVM_entry_value 1] $r0
	@DEBUG_VALUE: HAL_TIM_OC_Stop_DMA:Channel <- $r5
	strb	r0, [r4, #3]
.Ltmp469:
.LBB25_17:
	@DEBUG_VALUE: HAL_TIM_OC_Stop_DMA:htim <- [DW_OP_LLVM_entry_value 1] $r0
	@DEBUG_VALUE: HAL_TIM_OC_Stop_DMA:Channel <- $r5
	.loc	7 0 5 is_stmt 0                 @ ../Drivers/STM32L0xx_HAL_Driver/Src/stm32l0xx_hal_tim.c:0:5
	movs	r0, #0
	.loc	7 1242 3 is_stmt 1              @ ../Drivers/STM32L0xx_HAL_Driver/Src/stm32l0xx_hal_tim.c:1242:3
	pop	{r4, r5, r7, pc}
.Ltmp470:
	.p2align	2
@ %bb.18:
	.loc	7 0 3 is_stmt 0                 @ ../Drivers/STM32L0xx_HAL_Driver/Src/stm32l0xx_hal_tim.c:0:3
__arm_cp.25_0:
	.long	4369                            @ 0x1111
.Lcpi_end43:
	.size	__arm_cp.25_0, .Lcpi_end43-__arm_cp.25_0
.Lfunc_end25:
	.size	HAL_TIM_OC_Stop_DMA, .Lfunc_end25-HAL_TIM_OC_Stop_DMA
	.cfi_endproc
	.cantunwind
	.fnend
                                        @ -- End function
	.section	.text.HAL_TIM_PWM_Init,"ax",%progbits
	.hidden	HAL_TIM_PWM_Init                @ -- Begin function HAL_TIM_PWM_Init
	.globl	HAL_TIM_PWM_Init
	.p2align	1
	.type	HAL_TIM_PWM_Init,%function
	.code	16                              @ @HAL_TIM_PWM_Init
	.thumb_func
HAL_TIM_PWM_Init:
.Lfunc_begin26:
	.loc	7 1281 0 is_stmt 1              @ ../Drivers/STM32L0xx_HAL_Driver/Src/stm32l0xx_hal_tim.c:1281:0
	.fnstart
	.cfi_startproc
@ %bb.0:
	@DEBUG_VALUE: HAL_TIM_PWM_Init:htim <- $r0
	@DEBUG_VALUE: HAL_TIM_PWM_Init:htim <- $r0
	.save	{r4, r5, r6, lr}
	push	{r4, r5, r6, lr}
	.cfi_def_cfa_offset 16
	.cfi_offset lr, -4
	.cfi_offset r6, -8
	.cfi_offset r5, -12
	.cfi_offset r4, -16
.Ltmp471:
	.loc	7 1283 7 prologue_end           @ ../Drivers/STM32L0xx_HAL_Driver/Src/stm32l0xx_hal_tim.c:1283:7
	cmp	r0, #0
	beq	.LBB26_4
.Ltmp472:
@ %bb.1:
	@DEBUG_VALUE: HAL_TIM_PWM_Init:htim <- $r0
	.loc	7 0 7 is_stmt 0                 @ ../Drivers/STM32L0xx_HAL_Driver/Src/stm32l0xx_hal_tim.c:0:7
	mov	r4, r0
.Ltmp473:
	@DEBUG_VALUE: HAL_TIM_PWM_Init:htim <- $r4
	mov	r5, r0
	adds	r5, #56
	mov	r6, r0
	adds	r6, #58
.Ltmp474:
	.loc	7 1296 13 is_stmt 1             @ ../Drivers/STM32L0xx_HAL_Driver/Src/stm32l0xx_hal_tim.c:1296:13
	ldrb	r0, [r5, #1]
.Ltmp475:
	.loc	7 1296 7 is_stmt 0              @ ../Drivers/STM32L0xx_HAL_Driver/Src/stm32l0xx_hal_tim.c:1296:7
	cmp	r0, #0
	bne	.LBB26_3
.Ltmp476:
@ %bb.2:
	@DEBUG_VALUE: HAL_TIM_PWM_Init:htim <- $r4
	.loc	7 0 7                           @ ../Drivers/STM32L0xx_HAL_Driver/Src/stm32l0xx_hal_tim.c:0:7
	movs	r0, #0
.Ltmp477:
	.loc	7 1299 16 is_stmt 1             @ ../Drivers/STM32L0xx_HAL_Driver/Src/stm32l0xx_hal_tim.c:1299:16
	strb	r0, [r5]
	.loc	7 1313 5                        @ ../Drivers/STM32L0xx_HAL_Driver/Src/stm32l0xx_hal_tim.c:1313:5
	mov	r0, r4
	bl	HAL_TIM_PWM_MspInit
.Ltmp478:
.LBB26_3:
	@DEBUG_VALUE: HAL_TIM_PWM_Init:htim <- $r4
	.loc	7 0 5 is_stmt 0                 @ ../Drivers/STM32L0xx_HAL_Driver/Src/stm32l0xx_hal_tim.c:0:5
	movs	r0, #2
	.loc	7 1318 15 is_stmt 1             @ ../Drivers/STM32L0xx_HAL_Driver/Src/stm32l0xx_hal_tim.c:1318:15
	strb	r0, [r5, #1]
	.loc	7 1321 28                       @ ../Drivers/STM32L0xx_HAL_Driver/Src/stm32l0xx_hal_tim.c:1321:28
	ldm	r4!, {r0}
.Ltmp479:
	@DEBUG_VALUE: HAL_TIM_PWM_Init:htim <- [DW_OP_LLVM_entry_value 1] $r0
	.loc	7 1321 3 is_stmt 0              @ ../Drivers/STM32L0xx_HAL_Driver/Src/stm32l0xx_hal_tim.c:1321:3
	mov	r1, r4
	bl	TIM_Base_SetConfig
.Ltmp480:
	.loc	7 0 3                           @ ../Drivers/STM32L0xx_HAL_Driver/Src/stm32l0xx_hal_tim.c:0:3
	movs	r0, #1
	.loc	7 1324 23 is_stmt 1             @ ../Drivers/STM32L0xx_HAL_Driver/Src/stm32l0xx_hal_tim.c:1324:23
	strb	r0, [r6, #4]
.Ltmp481:
	.loc	7 1327 3                        @ ../Drivers/STM32L0xx_HAL_Driver/Src/stm32l0xx_hal_tim.c:1327:3
	strb	r0, [r6]
	strb	r0, [r6, #1]
	strb	r0, [r6, #2]
	strb	r0, [r6, #3]
.Ltmp482:
	.loc	7 1330 15                       @ ../Drivers/STM32L0xx_HAL_Driver/Src/stm32l0xx_hal_tim.c:1330:15
	strb	r0, [r5, #1]
	movs	r0, #0
	.loc	7 1333 1                        @ ../Drivers/STM32L0xx_HAL_Driver/Src/stm32l0xx_hal_tim.c:1333:1
	pop	{r4, r5, r6, pc}
.Ltmp483:
.LBB26_4:
	@DEBUG_VALUE: HAL_TIM_PWM_Init:htim <- $r0
	.loc	7 0 1 is_stmt 0                 @ ../Drivers/STM32L0xx_HAL_Driver/Src/stm32l0xx_hal_tim.c:0:1
	movs	r0, #1
.Ltmp484:
	@DEBUG_VALUE: HAL_TIM_PWM_Init:htim <- [DW_OP_LLVM_entry_value 1] $r0
	.loc	7 1333 1                        @ ../Drivers/STM32L0xx_HAL_Driver/Src/stm32l0xx_hal_tim.c:1333:1
	pop	{r4, r5, r6, pc}
.Ltmp485:
.Lfunc_end26:
	.size	HAL_TIM_PWM_Init, .Lfunc_end26-HAL_TIM_PWM_Init
	.cfi_endproc
	.cantunwind
	.fnend
                                        @ -- End function
	.section	.text.HAL_TIM_PWM_MspInit,"ax",%progbits
	.hidden	HAL_TIM_PWM_MspInit             @ -- Begin function HAL_TIM_PWM_MspInit
	.weak	HAL_TIM_PWM_MspInit
	.p2align	1
	.type	HAL_TIM_PWM_MspInit,%function
	.code	16                              @ @HAL_TIM_PWM_MspInit
	.thumb_func
HAL_TIM_PWM_MspInit:
.Lfunc_begin27:
	.loc	7 1383 0 is_stmt 1              @ ../Drivers/STM32L0xx_HAL_Driver/Src/stm32l0xx_hal_tim.c:1383:0
	.fnstart
	.cfi_startproc
@ %bb.0:
	@DEBUG_VALUE: HAL_TIM_PWM_MspInit:htim <- $r0
	.loc	7 1390 1 prologue_end           @ ../Drivers/STM32L0xx_HAL_Driver/Src/stm32l0xx_hal_tim.c:1390:1
	bx	lr
.Ltmp486:
.Lfunc_end27:
	.size	HAL_TIM_PWM_MspInit, .Lfunc_end27-HAL_TIM_PWM_MspInit
	.cfi_endproc
	.cantunwind
	.fnend
                                        @ -- End function
	.section	.text.HAL_TIM_PWM_DeInit,"ax",%progbits
	.hidden	HAL_TIM_PWM_DeInit              @ -- Begin function HAL_TIM_PWM_DeInit
	.globl	HAL_TIM_PWM_DeInit
	.p2align	2
	.type	HAL_TIM_PWM_DeInit,%function
	.code	16                              @ @HAL_TIM_PWM_DeInit
	.thumb_func
HAL_TIM_PWM_DeInit:
.Lfunc_begin28:
	.loc	7 1341 0                        @ ../Drivers/STM32L0xx_HAL_Driver/Src/stm32l0xx_hal_tim.c:1341:0
	.fnstart
	.cfi_startproc
@ %bb.0:
	@DEBUG_VALUE: HAL_TIM_PWM_DeInit:htim <- $r0
	.save	{r4, r5, r7, lr}
	push	{r4, r5, r7, lr}
	.cfi_def_cfa_offset 16
	.cfi_offset lr, -4
	.cfi_offset r7, -8
	.cfi_offset r5, -12
	.cfi_offset r4, -16
.Ltmp487:
	.loc	7 0 0 is_stmt 0                 @ ../Drivers/STM32L0xx_HAL_Driver/Src/stm32l0xx_hal_tim.c:0:0
	mov	r4, r0
	adds	r4, #56
	movs	r1, #2
	.loc	7 1345 15 prologue_end is_stmt 1 @ ../Drivers/STM32L0xx_HAL_Driver/Src/stm32l0xx_hal_tim.c:1345:15
	strb	r1, [r4, #1]
	.loc	7 0 0 is_stmt 0                 @ ../Drivers/STM32L0xx_HAL_Driver/Src/stm32l0xx_hal_tim.c:0:0
	mov	r5, r0
	adds	r5, #58
.Ltmp488:
	.loc	7 1348 3 is_stmt 1              @ ../Drivers/STM32L0xx_HAL_Driver/Src/stm32l0xx_hal_tim.c:1348:3
	ldr	r1, [r0]
	ldr	r2, [r1, #32]
	ldr	r3, __arm_cp.28_0
.Ltmp489:
	.loc	7 1348 3 is_stmt 0              @ ../Drivers/STM32L0xx_HAL_Driver/Src/stm32l0xx_hal_tim.c:1348:3
	tst	r2, r3
	bne	.LBB28_2
.Ltmp490:
@ %bb.1:
	@DEBUG_VALUE: HAL_TIM_PWM_DeInit:htim <- $r0
	.loc	7 1348 3                        @ ../Drivers/STM32L0xx_HAL_Driver/Src/stm32l0xx_hal_tim.c:1348:3
	ldr	r2, [r1]
	movs	r3, #1
	bics	r2, r3
	str	r2, [r1]
.Ltmp491:
.LBB28_2:
	@DEBUG_VALUE: HAL_TIM_PWM_DeInit:htim <- $r0
	.loc	7 1359 3 is_stmt 1              @ ../Drivers/STM32L0xx_HAL_Driver/Src/stm32l0xx_hal_tim.c:1359:3
	bl	HAL_TIM_PWM_MspDeInit
.Ltmp492:
	@DEBUG_VALUE: HAL_TIM_PWM_DeInit:htim <- [DW_OP_LLVM_entry_value 1] $r0
	.loc	7 0 3 is_stmt 0                 @ ../Drivers/STM32L0xx_HAL_Driver/Src/stm32l0xx_hal_tim.c:0:3
	movs	r0, #0
	.loc	7 1363 23 is_stmt 1             @ ../Drivers/STM32L0xx_HAL_Driver/Src/stm32l0xx_hal_tim.c:1363:23
	strb	r0, [r5, #4]
.Ltmp493:
	.loc	7 1366 3                        @ ../Drivers/STM32L0xx_HAL_Driver/Src/stm32l0xx_hal_tim.c:1366:3
	strb	r0, [r5]
	strb	r0, [r5, #1]
	strb	r0, [r5, #2]
	strb	r0, [r5, #3]
.Ltmp494:
	.loc	7 1372 3                        @ ../Drivers/STM32L0xx_HAL_Driver/Src/stm32l0xx_hal_tim.c:1372:3
	strb	r0, [r4]
.Ltmp495:
	.loc	7 1369 15                       @ ../Drivers/STM32L0xx_HAL_Driver/Src/stm32l0xx_hal_tim.c:1369:15
	strb	r0, [r4, #1]
	.loc	7 1374 3                        @ ../Drivers/STM32L0xx_HAL_Driver/Src/stm32l0xx_hal_tim.c:1374:3
	pop	{r4, r5, r7, pc}
.Ltmp496:
	.p2align	2
@ %bb.3:
	.loc	7 0 3 is_stmt 0                 @ ../Drivers/STM32L0xx_HAL_Driver/Src/stm32l0xx_hal_tim.c:0:3
__arm_cp.28_0:
	.long	4369                            @ 0x1111
.Lcpi_end44:
	.size	__arm_cp.28_0, .Lcpi_end44-__arm_cp.28_0
.Lfunc_end28:
	.size	HAL_TIM_PWM_DeInit, .Lfunc_end28-HAL_TIM_PWM_DeInit
	.cfi_endproc
	.cantunwind
	.fnend
                                        @ -- End function
	.section	.text.HAL_TIM_PWM_MspDeInit,"ax",%progbits
	.hidden	HAL_TIM_PWM_MspDeInit           @ -- Begin function HAL_TIM_PWM_MspDeInit
	.weak	HAL_TIM_PWM_MspDeInit
	.p2align	1
	.type	HAL_TIM_PWM_MspDeInit,%function
	.code	16                              @ @HAL_TIM_PWM_MspDeInit
	.thumb_func
HAL_TIM_PWM_MspDeInit:
.Lfunc_begin29:
	.loc	7 1398 0 is_stmt 1              @ ../Drivers/STM32L0xx_HAL_Driver/Src/stm32l0xx_hal_tim.c:1398:0
	.fnstart
	.cfi_startproc
@ %bb.0:
	@DEBUG_VALUE: HAL_TIM_PWM_MspDeInit:htim <- $r0
	.loc	7 1405 1 prologue_end           @ ../Drivers/STM32L0xx_HAL_Driver/Src/stm32l0xx_hal_tim.c:1405:1
	bx	lr
.Ltmp497:
.Lfunc_end29:
	.size	HAL_TIM_PWM_MspDeInit, .Lfunc_end29-HAL_TIM_PWM_MspDeInit
	.cfi_endproc
	.cantunwind
	.fnend
                                        @ -- End function
	.section	.text.HAL_TIM_PWM_Start,"ax",%progbits
	.hidden	HAL_TIM_PWM_Start               @ -- Begin function HAL_TIM_PWM_Start
	.globl	HAL_TIM_PWM_Start
	.p2align	2
	.type	HAL_TIM_PWM_Start,%function
	.code	16                              @ @HAL_TIM_PWM_Start
	.thumb_func
HAL_TIM_PWM_Start:
.Lfunc_begin30:
	.loc	7 1419 0                        @ ../Drivers/STM32L0xx_HAL_Driver/Src/stm32l0xx_hal_tim.c:1419:0
	.fnstart
	.cfi_startproc
@ %bb.0:
	@DEBUG_VALUE: HAL_TIM_PWM_Start:htim <- $r0
	@DEBUG_VALUE: HAL_TIM_PWM_Start:Channel <- $r1
	.loc	7 0 0 is_stmt 0                 @ ../Drivers/STM32L0xx_HAL_Driver/Src/stm32l0xx_hal_tim.c:0:0
	mov	r2, r0
	adds	r2, #58
.Ltmp498:
	.loc	7 1426 7 prologue_end is_stmt 1 @ ../Drivers/STM32L0xx_HAL_Driver/Src/stm32l0xx_hal_tim.c:1426:7
	cmp	r1, #0
	beq	.LBB30_4
.Ltmp499:
@ %bb.1:
	@DEBUG_VALUE: HAL_TIM_PWM_Start:Channel <- $r1
	@DEBUG_VALUE: HAL_TIM_PWM_Start:htim <- $r0
	cmp	r1, #8
	beq	.LBB30_6
.Ltmp500:
@ %bb.2:
	@DEBUG_VALUE: HAL_TIM_PWM_Start:Channel <- $r1
	@DEBUG_VALUE: HAL_TIM_PWM_Start:htim <- $r0
	cmp	r1, #4
	bne	.LBB30_7
.Ltmp501:
@ %bb.3:
	@DEBUG_VALUE: HAL_TIM_PWM_Start:Channel <- $r1
	@DEBUG_VALUE: HAL_TIM_PWM_Start:htim <- $r0
	adds	r3, r2, #1
	b	.LBB30_8
.Ltmp502:
.LBB30_4:
	@DEBUG_VALUE: HAL_TIM_PWM_Start:Channel <- $r1
	@DEBUG_VALUE: HAL_TIM_PWM_Start:htim <- $r0
	ldrb	r3, [r2]
.Ltmp503:
	.loc	7 1426 7 is_stmt 0              @ ../Drivers/STM32L0xx_HAL_Driver/Src/stm32l0xx_hal_tim.c:1426:7
	cmp	r3, #1
	bne	.LBB30_12
.Ltmp504:
@ %bb.5:
	@DEBUG_VALUE: HAL_TIM_PWM_Start:Channel <- $r1
	@DEBUG_VALUE: HAL_TIM_PWM_Start:htim <- $r0
	.loc	7 0 7                           @ ../Drivers/STM32L0xx_HAL_Driver/Src/stm32l0xx_hal_tim.c:0:7
	movs	r3, #2
	.loc	7 1432 3 is_stmt 1              @ ../Drivers/STM32L0xx_HAL_Driver/Src/stm32l0xx_hal_tim.c:1432:3
	strb	r3, [r2]
	b	.LBB30_15
.Ltmp505:
.LBB30_6:
	@DEBUG_VALUE: HAL_TIM_PWM_Start:Channel <- $r1
	@DEBUG_VALUE: HAL_TIM_PWM_Start:htim <- $r0
	.loc	7 1426 7                        @ ../Drivers/STM32L0xx_HAL_Driver/Src/stm32l0xx_hal_tim.c:1426:7
	adds	r3, r2, #2
	b	.LBB30_8
.Ltmp506:
.LBB30_7:
	@DEBUG_VALUE: HAL_TIM_PWM_Start:Channel <- $r1
	@DEBUG_VALUE: HAL_TIM_PWM_Start:htim <- $r0
	adds	r3, r2, #3
.Ltmp507:
.LBB30_8:
	@DEBUG_VALUE: HAL_TIM_PWM_Start:Channel <- $r1
	@DEBUG_VALUE: HAL_TIM_PWM_Start:htim <- $r0
	ldrb	r3, [r3]
.Ltmp508:
	.loc	7 1426 7 is_stmt 0              @ ../Drivers/STM32L0xx_HAL_Driver/Src/stm32l0xx_hal_tim.c:1426:7
	cmp	r3, #1
	bne	.LBB30_12
.Ltmp509:
@ %bb.9:
	@DEBUG_VALUE: HAL_TIM_PWM_Start:Channel <- $r1
	@DEBUG_VALUE: HAL_TIM_PWM_Start:htim <- $r0
	.loc	7 0 7                           @ ../Drivers/STM32L0xx_HAL_Driver/Src/stm32l0xx_hal_tim.c:0:7
	movs	r3, #2
	.loc	7 1432 3 is_stmt 1              @ ../Drivers/STM32L0xx_HAL_Driver/Src/stm32l0xx_hal_tim.c:1432:3
	cmp	r1, #8
	beq	.LBB30_13
.Ltmp510:
@ %bb.10:
	@DEBUG_VALUE: HAL_TIM_PWM_Start:Channel <- $r1
	@DEBUG_VALUE: HAL_TIM_PWM_Start:htim <- $r0
	cmp	r1, #4
	bne	.LBB30_14
.Ltmp511:
@ %bb.11:
	@DEBUG_VALUE: HAL_TIM_PWM_Start:Channel <- $r1
	@DEBUG_VALUE: HAL_TIM_PWM_Start:htim <- $r0
	strb	r3, [r2, #1]
	b	.LBB30_15
.Ltmp512:
.LBB30_12:
	@DEBUG_VALUE: HAL_TIM_PWM_Start:Channel <- $r1
	@DEBUG_VALUE: HAL_TIM_PWM_Start:htim <- $r0
	.loc	7 0 3 is_stmt 0                 @ ../Drivers/STM32L0xx_HAL_Driver/Src/stm32l0xx_hal_tim.c:0:3
	movs	r0, #1
.Ltmp513:
	@DEBUG_VALUE: HAL_TIM_PWM_Start:htim <- [DW_OP_LLVM_entry_value 1] $r0
	.loc	7 1453 1 is_stmt 1              @ ../Drivers/STM32L0xx_HAL_Driver/Src/stm32l0xx_hal_tim.c:1453:1
	bx	lr
.Ltmp514:
.LBB30_13:
	@DEBUG_VALUE: HAL_TIM_PWM_Start:Channel <- $r1
	@DEBUG_VALUE: HAL_TIM_PWM_Start:htim <- $r0
	.loc	7 1432 3                        @ ../Drivers/STM32L0xx_HAL_Driver/Src/stm32l0xx_hal_tim.c:1432:3
	strb	r3, [r2, #2]
	b	.LBB30_15
.Ltmp515:
.LBB30_14:
	@DEBUG_VALUE: HAL_TIM_PWM_Start:Channel <- $r1
	@DEBUG_VALUE: HAL_TIM_PWM_Start:htim <- $r0
	strb	r3, [r2, #3]
.Ltmp516:
.LBB30_15:
	@DEBUG_VALUE: HAL_TIM_PWM_Start:Channel <- $r1
	@DEBUG_VALUE: HAL_TIM_PWM_Start:htim <- $r0
	.loc	7 0 3 is_stmt 0                 @ ../Drivers/STM32L0xx_HAL_Driver/Src/stm32l0xx_hal_tim.c:0:3
	movs	r2, #31
.Ltmp517:
	@DEBUG_VALUE: TIM_CCxChannelCmd:ChannelState <- 1
	@DEBUG_VALUE: TIM_CCxChannelCmd:Channel <- $r1
	.loc	7 7130 35 is_stmt 1             @ ../Drivers/STM32L0xx_HAL_Driver/Src/stm32l0xx_hal_tim.c:7130:35
	ands	r1, r2
.Ltmp518:
	@DEBUG_VALUE: HAL_TIM_PWM_Start:Channel <- [DW_OP_LLVM_entry_value 1] $r1
	.loc	7 0 35 is_stmt 0                @ ../Drivers/STM32L0xx_HAL_Driver/Src/stm32l0xx_hal_tim.c:0:35
	movs	r2, #1
	.loc	7 7130 23                       @ ../Drivers/STM32L0xx_HAL_Driver/Src/stm32l0xx_hal_tim.c:7130:23
	mov	r3, r2
	lsls	r3, r1
.Ltmp519:
	@DEBUG_VALUE: TIM_CCxChannelCmd:tmp <- $r3
	.loc	7 1435 27 is_stmt 1             @ ../Drivers/STM32L0xx_HAL_Driver/Src/stm32l0xx_hal_tim.c:1435:27
	ldr	r0, [r0]
.Ltmp520:
	@DEBUG_VALUE: HAL_TIM_PWM_Start:htim <- [DW_OP_LLVM_entry_value 1] $r0
	@DEBUG_VALUE: TIM_CCxChannelCmd:TIMx <- $r0
	.loc	7 7133 14                       @ ../Drivers/STM32L0xx_HAL_Driver/Src/stm32l0xx_hal_tim.c:7133:14
	ldr	r1, [r0, #32]
	@DEBUG_VALUE: TIM_CCxChannelCmd:ChannelState <- 1
	bics	r1, r3
	str	r1, [r0, #32]
	.loc	7 7136 14                       @ ../Drivers/STM32L0xx_HAL_Driver/Src/stm32l0xx_hal_tim.c:7136:14
	ldr	r1, [r0, #32]
	orrs	r1, r3
	str	r1, [r0, #32]
	ldr	r1, __arm_cp.30_0
.Ltmp521:
	.loc	7 1438 7                        @ ../Drivers/STM32L0xx_HAL_Driver/Src/stm32l0xx_hal_tim.c:1438:7
	cmp	r0, r1
	bgt	.LBB30_18
.Ltmp522:
@ %bb.16:
	@DEBUG_VALUE: HAL_TIM_PWM_Start:Channel <- [DW_OP_LLVM_entry_value 1] $r1
	@DEBUG_VALUE: HAL_TIM_PWM_Start:htim <- [DW_OP_LLVM_entry_value 1] $r0
	.loc	7 0 7 is_stmt 0                 @ ../Drivers/STM32L0xx_HAL_Driver/Src/stm32l0xx_hal_tim.c:0:7
	lsls	r1, r2, #30
	.loc	7 1438 7                        @ ../Drivers/STM32L0xx_HAL_Driver/Src/stm32l0xx_hal_tim.c:1438:7
	cmp	r0, r1
	beq	.LBB30_21
.Ltmp523:
@ %bb.17:
	@DEBUG_VALUE: HAL_TIM_PWM_Start:Channel <- [DW_OP_LLVM_entry_value 1] $r1
	@DEBUG_VALUE: HAL_TIM_PWM_Start:htim <- [DW_OP_LLVM_entry_value 1] $r0
	.loc	7 0 7                           @ ../Drivers/STM32L0xx_HAL_Driver/Src/stm32l0xx_hal_tim.c:0:7
	ldr	r1, __arm_cp.30_3
	b	.LBB30_20
.Ltmp524:
.LBB30_18:
	@DEBUG_VALUE: HAL_TIM_PWM_Start:Channel <- [DW_OP_LLVM_entry_value 1] $r1
	@DEBUG_VALUE: HAL_TIM_PWM_Start:htim <- [DW_OP_LLVM_entry_value 1] $r0
	ldr	r1, __arm_cp.30_1
	.loc	7 1438 7                        @ ../Drivers/STM32L0xx_HAL_Driver/Src/stm32l0xx_hal_tim.c:1438:7
	cmp	r0, r1
	beq	.LBB30_21
.Ltmp525:
@ %bb.19:
	@DEBUG_VALUE: HAL_TIM_PWM_Start:Channel <- [DW_OP_LLVM_entry_value 1] $r1
	@DEBUG_VALUE: HAL_TIM_PWM_Start:htim <- [DW_OP_LLVM_entry_value 1] $r0
	.loc	7 0 7                           @ ../Drivers/STM32L0xx_HAL_Driver/Src/stm32l0xx_hal_tim.c:0:7
	ldr	r1, __arm_cp.30_2
.Ltmp526:
.LBB30_20:
	@DEBUG_VALUE: HAL_TIM_PWM_Start:Channel <- [DW_OP_LLVM_entry_value 1] $r1
	@DEBUG_VALUE: HAL_TIM_PWM_Start:htim <- [DW_OP_LLVM_entry_value 1] $r0
	.loc	7 1438 7                        @ ../Drivers/STM32L0xx_HAL_Driver/Src/stm32l0xx_hal_tim.c:1438:7
	cmp	r0, r1
	bne	.LBB30_22
.Ltmp527:
.LBB30_21:
	@DEBUG_VALUE: HAL_TIM_PWM_Start:Channel <- [DW_OP_LLVM_entry_value 1] $r1
	@DEBUG_VALUE: HAL_TIM_PWM_Start:htim <- [DW_OP_LLVM_entry_value 1] $r0
	.loc	7 1440 31 is_stmt 1             @ ../Drivers/STM32L0xx_HAL_Driver/Src/stm32l0xx_hal_tim.c:1440:31
	ldr	r1, [r0, #8]
	movs	r3, #7
	.loc	7 1440 36 is_stmt 0             @ ../Drivers/STM32L0xx_HAL_Driver/Src/stm32l0xx_hal_tim.c:1440:36
	ands	r3, r1
.Ltmp528:
	@DEBUG_VALUE: HAL_TIM_PWM_Start:tmpsmcr <- $r3
	.loc	7 1441 9 is_stmt 1              @ ../Drivers/STM32L0xx_HAL_Driver/Src/stm32l0xx_hal_tim.c:1441:9
	cmp	r3, #6
	beq	.LBB30_23
.Ltmp529:
.LBB30_22:
	@DEBUG_VALUE: HAL_TIM_PWM_Start:Channel <- [DW_OP_LLVM_entry_value 1] $r1
	@DEBUG_VALUE: HAL_TIM_PWM_Start:htim <- [DW_OP_LLVM_entry_value 1] $r0
	.loc	7 0 0 is_stmt 0                 @ ../Drivers/STM32L0xx_HAL_Driver/Src/stm32l0xx_hal_tim.c:0:0
	ldr	r1, [r0]
	orrs	r1, r2
	str	r1, [r0]
.Ltmp530:
.LBB30_23:
	@DEBUG_VALUE: HAL_TIM_PWM_Start:Channel <- [DW_OP_LLVM_entry_value 1] $r1
	@DEBUG_VALUE: HAL_TIM_PWM_Start:htim <- [DW_OP_LLVM_entry_value 1] $r0
	movs	r0, #0
	.loc	7 1453 1 is_stmt 1              @ ../Drivers/STM32L0xx_HAL_Driver/Src/stm32l0xx_hal_tim.c:1453:1
	bx	lr
.Ltmp531:
	.p2align	2
@ %bb.24:
	.loc	7 0 1 is_stmt 0                 @ ../Drivers/STM32L0xx_HAL_Driver/Src/stm32l0xx_hal_tim.c:0:1
__arm_cp.30_0:
	.long	1073809407                      @ 0x400107ff
.Lcpi_end45:
	.size	__arm_cp.30_0, .Lcpi_end45-__arm_cp.30_0
__arm_cp.30_1:
	.long	1073812480                      @ 0x40011400
.Lcpi_end46:
	.size	__arm_cp.30_1, .Lcpi_end46-__arm_cp.30_1
__arm_cp.30_2:
	.long	1073809408                      @ 0x40010800
.Lcpi_end47:
	.size	__arm_cp.30_2, .Lcpi_end47-__arm_cp.30_2
__arm_cp.30_3:
	.long	1073742848                      @ 0x40000400
.Lcpi_end48:
	.size	__arm_cp.30_3, .Lcpi_end48-__arm_cp.30_3
.Lfunc_end30:
	.size	HAL_TIM_PWM_Start, .Lfunc_end30-HAL_TIM_PWM_Start
	.cfi_endproc
	.cantunwind
	.fnend
                                        @ -- End function
	.section	.text.HAL_TIM_PWM_Stop,"ax",%progbits
	.hidden	HAL_TIM_PWM_Stop                @ -- Begin function HAL_TIM_PWM_Stop
	.globl	HAL_TIM_PWM_Stop
	.p2align	2
	.type	HAL_TIM_PWM_Stop,%function
	.code	16                              @ @HAL_TIM_PWM_Stop
	.thumb_func
HAL_TIM_PWM_Stop:
.Lfunc_begin31:
	.loc	7 1467 0 is_stmt 1              @ ../Drivers/STM32L0xx_HAL_Driver/Src/stm32l0xx_hal_tim.c:1467:0
	.fnstart
	.cfi_startproc
@ %bb.0:
	@DEBUG_VALUE: HAL_TIM_PWM_Stop:htim <- $r0
	@DEBUG_VALUE: HAL_TIM_PWM_Stop:Channel <- $r1
	.save	{r4, r5, r7, lr}
	push	{r4, r5, r7, lr}
	.cfi_def_cfa_offset 16
	.cfi_offset lr, -4
	.cfi_offset r7, -8
	.cfi_offset r5, -12
	.cfi_offset r4, -16
	movs	r3, #31
.Ltmp532:
	@DEBUG_VALUE: TIM_CCxChannelCmd:ChannelState <- 0
	@DEBUG_VALUE: TIM_CCxChannelCmd:Channel <- $r1
	.loc	7 7130 35 prologue_end          @ ../Drivers/STM32L0xx_HAL_Driver/Src/stm32l0xx_hal_tim.c:7130:35
	ands	r3, r1
	movs	r2, #1
	.loc	7 7130 23 is_stmt 0             @ ../Drivers/STM32L0xx_HAL_Driver/Src/stm32l0xx_hal_tim.c:7130:23
	mov	r4, r2
	lsls	r4, r3
.Ltmp533:
	@DEBUG_VALUE: TIM_CCxChannelCmd:tmp <- $r4
	.loc	7 1472 27 is_stmt 1             @ ../Drivers/STM32L0xx_HAL_Driver/Src/stm32l0xx_hal_tim.c:1472:27
	ldr	r3, [r0]
.Ltmp534:
	@DEBUG_VALUE: TIM_CCxChannelCmd:TIMx <- $r3
	.loc	7 7133 14                       @ ../Drivers/STM32L0xx_HAL_Driver/Src/stm32l0xx_hal_tim.c:7133:14
	ldr	r5, [r3, #32]
	@DEBUG_VALUE: TIM_CCxChannelCmd:ChannelState <- 0
	bics	r5, r4
	str	r5, [r3, #32]
	.loc	7 7136 14                       @ ../Drivers/STM32L0xx_HAL_Driver/Src/stm32l0xx_hal_tim.c:7136:14
	ldr	r4, [r3, #32]
.Ltmp535:
	str	r4, [r3, #32]
.Ltmp536:
	.loc	7 1475 3                        @ ../Drivers/STM32L0xx_HAL_Driver/Src/stm32l0xx_hal_tim.c:1475:3
	ldr	r4, [r3, #32]
	ldr	r5, __arm_cp.31_0
.Ltmp537:
	.loc	7 1475 3 is_stmt 0              @ ../Drivers/STM32L0xx_HAL_Driver/Src/stm32l0xx_hal_tim.c:1475:3
	tst	r4, r5
	bne	.LBB31_2
.Ltmp538:
@ %bb.1:
	@DEBUG_VALUE: HAL_TIM_PWM_Stop:Channel <- $r1
	@DEBUG_VALUE: HAL_TIM_PWM_Stop:htim <- $r0
	.loc	7 1475 3                        @ ../Drivers/STM32L0xx_HAL_Driver/Src/stm32l0xx_hal_tim.c:1475:3
	ldr	r4, [r3]
	bics	r4, r2
	str	r4, [r3]
.Ltmp539:
.LBB31_2:
	@DEBUG_VALUE: HAL_TIM_PWM_Stop:Channel <- $r1
	@DEBUG_VALUE: HAL_TIM_PWM_Stop:htim <- $r0
	.loc	7 0 0                           @ ../Drivers/STM32L0xx_HAL_Driver/Src/stm32l0xx_hal_tim.c:0:0
	adds	r0, #58
.Ltmp540:
	@DEBUG_VALUE: HAL_TIM_PWM_Stop:htim <- [DW_OP_LLVM_entry_value 1] $r0
	.loc	7 1478 3 is_stmt 1              @ ../Drivers/STM32L0xx_HAL_Driver/Src/stm32l0xx_hal_tim.c:1478:3
	cmp	r1, #8
	beq	.LBB31_6
.Ltmp541:
@ %bb.3:
	@DEBUG_VALUE: HAL_TIM_PWM_Stop:htim <- [DW_OP_LLVM_entry_value 1] $r0
	@DEBUG_VALUE: HAL_TIM_PWM_Stop:Channel <- $r1
	cmp	r1, #4
	beq	.LBB31_7
.Ltmp542:
@ %bb.4:
	@DEBUG_VALUE: HAL_TIM_PWM_Stop:htim <- [DW_OP_LLVM_entry_value 1] $r0
	@DEBUG_VALUE: HAL_TIM_PWM_Stop:Channel <- $r1
	cmp	r1, #0
	bne	.LBB31_8
.Ltmp543:
@ %bb.5:
	@DEBUG_VALUE: HAL_TIM_PWM_Stop:htim <- [DW_OP_LLVM_entry_value 1] $r0
	@DEBUG_VALUE: HAL_TIM_PWM_Stop:Channel <- $r1
	strb	r2, [r0]
	b	.LBB31_9
.Ltmp544:
.LBB31_6:
	@DEBUG_VALUE: HAL_TIM_PWM_Stop:htim <- [DW_OP_LLVM_entry_value 1] $r0
	@DEBUG_VALUE: HAL_TIM_PWM_Stop:Channel <- $r1
	strb	r2, [r0, #2]
	b	.LBB31_9
.Ltmp545:
.LBB31_7:
	@DEBUG_VALUE: HAL_TIM_PWM_Stop:htim <- [DW_OP_LLVM_entry_value 1] $r0
	@DEBUG_VALUE: HAL_TIM_PWM_Stop:Channel <- $r1
	strb	r2, [r0, #1]
	b	.LBB31_9
.Ltmp546:
.LBB31_8:
	@DEBUG_VALUE: HAL_TIM_PWM_Stop:htim <- [DW_OP_LLVM_entry_value 1] $r0
	@DEBUG_VALUE: HAL_TIM_PWM_Stop:Channel <- $r1
	strb	r2, [r0, #3]
.Ltmp547:
.LBB31_9:
	@DEBUG_VALUE: HAL_TIM_PWM_Stop:htim <- [DW_OP_LLVM_entry_value 1] $r0
	@DEBUG_VALUE: HAL_TIM_PWM_Stop:Channel <- $r1
	.loc	7 0 3 is_stmt 0                 @ ../Drivers/STM32L0xx_HAL_Driver/Src/stm32l0xx_hal_tim.c:0:3
	movs	r0, #0
	.loc	7 1481 3 is_stmt 1              @ ../Drivers/STM32L0xx_HAL_Driver/Src/stm32l0xx_hal_tim.c:1481:3
	pop	{r4, r5, r7, pc}
.Ltmp548:
	.p2align	2
@ %bb.10:
	.loc	7 0 3 is_stmt 0                 @ ../Drivers/STM32L0xx_HAL_Driver/Src/stm32l0xx_hal_tim.c:0:3
__arm_cp.31_0:
	.long	4369                            @ 0x1111
.Lcpi_end49:
	.size	__arm_cp.31_0, .Lcpi_end49-__arm_cp.31_0
.Lfunc_end31:
	.size	HAL_TIM_PWM_Stop, .Lfunc_end31-HAL_TIM_PWM_Stop
	.cfi_endproc
	.cantunwind
	.fnend
                                        @ -- End function
	.section	.text.HAL_TIM_PWM_Start_IT,"ax",%progbits
	.hidden	HAL_TIM_PWM_Start_IT            @ -- Begin function HAL_TIM_PWM_Start_IT
	.globl	HAL_TIM_PWM_Start_IT
	.p2align	2
	.type	HAL_TIM_PWM_Start_IT,%function
	.code	16                              @ @HAL_TIM_PWM_Start_IT
	.thumb_func
HAL_TIM_PWM_Start_IT:
.Lfunc_begin32:
	.loc	7 1496 0 is_stmt 1              @ ../Drivers/STM32L0xx_HAL_Driver/Src/stm32l0xx_hal_tim.c:1496:0
	.fnstart
	.cfi_startproc
@ %bb.0:
	@DEBUG_VALUE: HAL_TIM_PWM_Start_IT:htim <- $r0
	@DEBUG_VALUE: HAL_TIM_PWM_Start_IT:Channel <- $r1
	.loc	7 0 0 is_stmt 0                 @ ../Drivers/STM32L0xx_HAL_Driver/Src/stm32l0xx_hal_tim.c:0:0
	mov	r2, r0
	adds	r2, #58
.Ltmp549:
	@DEBUG_VALUE: HAL_TIM_PWM_Start_IT:status <- 0
	.loc	7 1504 7 prologue_end is_stmt 1 @ ../Drivers/STM32L0xx_HAL_Driver/Src/stm32l0xx_hal_tim.c:1504:7
	cmp	r1, #0
	beq	.LBB32_4
.Ltmp550:
@ %bb.1:
	@DEBUG_VALUE: HAL_TIM_PWM_Start_IT:status <- 0
	@DEBUG_VALUE: HAL_TIM_PWM_Start_IT:Channel <- $r1
	@DEBUG_VALUE: HAL_TIM_PWM_Start_IT:htim <- $r0
	cmp	r1, #8
	beq	.LBB32_6
.Ltmp551:
@ %bb.2:
	@DEBUG_VALUE: HAL_TIM_PWM_Start_IT:status <- 0
	@DEBUG_VALUE: HAL_TIM_PWM_Start_IT:Channel <- $r1
	@DEBUG_VALUE: HAL_TIM_PWM_Start_IT:htim <- $r0
	cmp	r1, #4
	bne	.LBB32_7
.Ltmp552:
@ %bb.3:
	@DEBUG_VALUE: HAL_TIM_PWM_Start_IT:status <- 0
	@DEBUG_VALUE: HAL_TIM_PWM_Start_IT:Channel <- $r1
	@DEBUG_VALUE: HAL_TIM_PWM_Start_IT:htim <- $r0
	adds	r3, r2, #1
	b	.LBB32_8
.Ltmp553:
.LBB32_4:
	@DEBUG_VALUE: HAL_TIM_PWM_Start_IT:status <- 0
	@DEBUG_VALUE: HAL_TIM_PWM_Start_IT:Channel <- $r1
	@DEBUG_VALUE: HAL_TIM_PWM_Start_IT:htim <- $r0
	ldrb	r3, [r2]
.Ltmp554:
	.loc	7 1504 7 is_stmt 0              @ ../Drivers/STM32L0xx_HAL_Driver/Src/stm32l0xx_hal_tim.c:1504:7
	cmp	r3, #1
	bne	.LBB32_18
.Ltmp555:
@ %bb.5:
	@DEBUG_VALUE: HAL_TIM_PWM_Start_IT:status <- 0
	@DEBUG_VALUE: HAL_TIM_PWM_Start_IT:Channel <- $r1
	@DEBUG_VALUE: HAL_TIM_PWM_Start_IT:htim <- $r0
	.loc	7 0 7                           @ ../Drivers/STM32L0xx_HAL_Driver/Src/stm32l0xx_hal_tim.c:0:7
	movs	r3, #2
	.loc	7 1510 3 is_stmt 1              @ ../Drivers/STM32L0xx_HAL_Driver/Src/stm32l0xx_hal_tim.c:1510:3
	strb	r3, [r2]
	b	.LBB32_14
.Ltmp556:
.LBB32_6:
	@DEBUG_VALUE: HAL_TIM_PWM_Start_IT:status <- 0
	@DEBUG_VALUE: HAL_TIM_PWM_Start_IT:Channel <- $r1
	@DEBUG_VALUE: HAL_TIM_PWM_Start_IT:htim <- $r0
	.loc	7 1504 7                        @ ../Drivers/STM32L0xx_HAL_Driver/Src/stm32l0xx_hal_tim.c:1504:7
	adds	r3, r2, #2
	b	.LBB32_8
.Ltmp557:
.LBB32_7:
	@DEBUG_VALUE: HAL_TIM_PWM_Start_IT:status <- 0
	@DEBUG_VALUE: HAL_TIM_PWM_Start_IT:Channel <- $r1
	@DEBUG_VALUE: HAL_TIM_PWM_Start_IT:htim <- $r0
	adds	r3, r2, #3
.Ltmp558:
.LBB32_8:
	@DEBUG_VALUE: HAL_TIM_PWM_Start_IT:status <- 0
	@DEBUG_VALUE: HAL_TIM_PWM_Start_IT:Channel <- $r1
	@DEBUG_VALUE: HAL_TIM_PWM_Start_IT:htim <- $r0
	ldrb	r3, [r3]
.Ltmp559:
	.loc	7 1504 7 is_stmt 0              @ ../Drivers/STM32L0xx_HAL_Driver/Src/stm32l0xx_hal_tim.c:1504:7
	cmp	r3, #1
	bne	.LBB32_18
.Ltmp560:
@ %bb.9:
	@DEBUG_VALUE: HAL_TIM_PWM_Start_IT:status <- 0
	@DEBUG_VALUE: HAL_TIM_PWM_Start_IT:Channel <- $r1
	@DEBUG_VALUE: HAL_TIM_PWM_Start_IT:htim <- $r0
	.loc	7 0 7                           @ ../Drivers/STM32L0xx_HAL_Driver/Src/stm32l0xx_hal_tim.c:0:7
	movs	r3, #2
	.loc	7 1510 3 is_stmt 1              @ ../Drivers/STM32L0xx_HAL_Driver/Src/stm32l0xx_hal_tim.c:1510:3
	cmp	r1, #8
	beq	.LBB32_12
.Ltmp561:
@ %bb.10:
	@DEBUG_VALUE: HAL_TIM_PWM_Start_IT:status <- 0
	@DEBUG_VALUE: HAL_TIM_PWM_Start_IT:Channel <- $r1
	@DEBUG_VALUE: HAL_TIM_PWM_Start_IT:htim <- $r0
	cmp	r1, #4
	bne	.LBB32_13
.Ltmp562:
@ %bb.11:
	@DEBUG_VALUE: HAL_TIM_PWM_Start_IT:status <- 0
	@DEBUG_VALUE: HAL_TIM_PWM_Start_IT:Channel <- $r1
	@DEBUG_VALUE: HAL_TIM_PWM_Start_IT:htim <- $r0
	strb	r3, [r2, #1]
	b	.LBB32_14
.Ltmp563:
.LBB32_12:
	@DEBUG_VALUE: HAL_TIM_PWM_Start_IT:status <- 0
	@DEBUG_VALUE: HAL_TIM_PWM_Start_IT:Channel <- $r1
	@DEBUG_VALUE: HAL_TIM_PWM_Start_IT:htim <- $r0
	strb	r3, [r2, #2]
	b	.LBB32_14
.Ltmp564:
.LBB32_13:
	@DEBUG_VALUE: HAL_TIM_PWM_Start_IT:status <- 0
	@DEBUG_VALUE: HAL_TIM_PWM_Start_IT:Channel <- $r1
	@DEBUG_VALUE: HAL_TIM_PWM_Start_IT:htim <- $r0
	strb	r3, [r2, #3]
.Ltmp565:
.LBB32_14:
	@DEBUG_VALUE: HAL_TIM_PWM_Start_IT:status <- 0
	@DEBUG_VALUE: HAL_TIM_PWM_Start_IT:Channel <- $r1
	@DEBUG_VALUE: HAL_TIM_PWM_Start_IT:htim <- $r0
	.loc	7 0 3 is_stmt 0                 @ ../Drivers/STM32L0xx_HAL_Driver/Src/stm32l0xx_hal_tim.c:0:3
	movs	r3, #2
	.loc	7 1512 3 is_stmt 1              @ ../Drivers/STM32L0xx_HAL_Driver/Src/stm32l0xx_hal_tim.c:1512:3
	mov	r2, r1
	rors	r2, r3
	cmp	r2, #3
	bhi	.LBB32_18
.Ltmp566:
@ %bb.15:
	@DEBUG_VALUE: HAL_TIM_PWM_Start_IT:status <- 0
	@DEBUG_VALUE: HAL_TIM_PWM_Start_IT:Channel <- $r1
	@DEBUG_VALUE: HAL_TIM_PWM_Start_IT:htim <- $r0
	lsls	r2, r2, #2
	ldr	r3, __arm_cp.32_0
	ldr	r2, [r3, r2]
.Ltmp567:
	.loc	7 0 0 is_stmt 0                 @ ../Drivers/STM32L0xx_HAL_Driver/Src/stm32l0xx_hal_tim.c:0:0
	ldr	r0, [r0]
.Ltmp568:
	@DEBUG_VALUE: HAL_TIM_PWM_Start_IT:htim <- [DW_OP_LLVM_entry_value 1] $r0
	ldr	r3, [r0, #12]
	orrs	r3, r2
	str	r3, [r0, #12]
	movs	r2, #31
.Ltmp569:
	@DEBUG_VALUE: TIM_CCxChannelCmd:ChannelState <- 1
	@DEBUG_VALUE: TIM_CCxChannelCmd:Channel <- $r1
	@DEBUG_VALUE: TIM_CCxChannelCmd:TIMx <- $r0
	@DEBUG_VALUE: HAL_TIM_PWM_Start_IT:status <- undef
	.loc	7 7130 35 is_stmt 1             @ ../Drivers/STM32L0xx_HAL_Driver/Src/stm32l0xx_hal_tim.c:7130:35
	ands	r1, r2
.Ltmp570:
	@DEBUG_VALUE: HAL_TIM_PWM_Start_IT:Channel <- [DW_OP_LLVM_entry_value 1] $r1
	.loc	7 0 35 is_stmt 0                @ ../Drivers/STM32L0xx_HAL_Driver/Src/stm32l0xx_hal_tim.c:0:35
	movs	r2, #1
	.loc	7 7130 23                       @ ../Drivers/STM32L0xx_HAL_Driver/Src/stm32l0xx_hal_tim.c:7130:23
	mov	r3, r2
	lsls	r3, r1
.Ltmp571:
	@DEBUG_VALUE: TIM_CCxChannelCmd:tmp <- $r3
	.loc	7 7133 14 is_stmt 1             @ ../Drivers/STM32L0xx_HAL_Driver/Src/stm32l0xx_hal_tim.c:7133:14
	ldr	r1, [r0, #32]
	bics	r1, r3
	str	r1, [r0, #32]
	.loc	7 7136 14                       @ ../Drivers/STM32L0xx_HAL_Driver/Src/stm32l0xx_hal_tim.c:7136:14
	ldr	r1, [r0, #32]
	orrs	r1, r3
	str	r1, [r0, #32]
	ldr	r1, __arm_cp.32_1
.Ltmp572:
	.loc	7 1553 9                        @ ../Drivers/STM32L0xx_HAL_Driver/Src/stm32l0xx_hal_tim.c:1553:9
	cmp	r0, r1
	bgt	.LBB32_19
.Ltmp573:
@ %bb.16:
	@DEBUG_VALUE: HAL_TIM_PWM_Start_IT:Channel <- [DW_OP_LLVM_entry_value 1] $r1
	@DEBUG_VALUE: HAL_TIM_PWM_Start_IT:htim <- [DW_OP_LLVM_entry_value 1] $r0
	.loc	7 0 9 is_stmt 0                 @ ../Drivers/STM32L0xx_HAL_Driver/Src/stm32l0xx_hal_tim.c:0:9
	lsls	r1, r2, #30
	.loc	7 1553 9                        @ ../Drivers/STM32L0xx_HAL_Driver/Src/stm32l0xx_hal_tim.c:1553:9
	cmp	r0, r1
	beq	.LBB32_22
.Ltmp574:
@ %bb.17:
	@DEBUG_VALUE: HAL_TIM_PWM_Start_IT:Channel <- [DW_OP_LLVM_entry_value 1] $r1
	@DEBUG_VALUE: HAL_TIM_PWM_Start_IT:htim <- [DW_OP_LLVM_entry_value 1] $r0
	.loc	7 0 9                           @ ../Drivers/STM32L0xx_HAL_Driver/Src/stm32l0xx_hal_tim.c:0:9
	ldr	r1, __arm_cp.32_4
	b	.LBB32_21
.Ltmp575:
.LBB32_18:
	@DEBUG_VALUE: HAL_TIM_PWM_Start_IT:status <- 0
	@DEBUG_VALUE: HAL_TIM_PWM_Start_IT:Channel <- $r1
	@DEBUG_VALUE: HAL_TIM_PWM_Start_IT:htim <- $r0
	movs	r0, #1
.Ltmp576:
	@DEBUG_VALUE: HAL_TIM_PWM_Start_IT:htim <- [DW_OP_LLVM_entry_value 1] $r0
	.loc	7 1569 1 is_stmt 1              @ ../Drivers/STM32L0xx_HAL_Driver/Src/stm32l0xx_hal_tim.c:1569:1
	bx	lr
.Ltmp577:
.LBB32_19:
	@DEBUG_VALUE: HAL_TIM_PWM_Start_IT:Channel <- [DW_OP_LLVM_entry_value 1] $r1
	@DEBUG_VALUE: HAL_TIM_PWM_Start_IT:htim <- [DW_OP_LLVM_entry_value 1] $r0
	.loc	7 0 1 is_stmt 0                 @ ../Drivers/STM32L0xx_HAL_Driver/Src/stm32l0xx_hal_tim.c:0:1
	ldr	r1, __arm_cp.32_2
.Ltmp578:
	.loc	7 1553 9 is_stmt 1              @ ../Drivers/STM32L0xx_HAL_Driver/Src/stm32l0xx_hal_tim.c:1553:9
	cmp	r0, r1
	beq	.LBB32_22
.Ltmp579:
@ %bb.20:
	@DEBUG_VALUE: HAL_TIM_PWM_Start_IT:Channel <- [DW_OP_LLVM_entry_value 1] $r1
	@DEBUG_VALUE: HAL_TIM_PWM_Start_IT:htim <- [DW_OP_LLVM_entry_value 1] $r0
	.loc	7 0 9 is_stmt 0                 @ ../Drivers/STM32L0xx_HAL_Driver/Src/stm32l0xx_hal_tim.c:0:9
	ldr	r1, __arm_cp.32_3
.Ltmp580:
.LBB32_21:
	@DEBUG_VALUE: HAL_TIM_PWM_Start_IT:Channel <- [DW_OP_LLVM_entry_value 1] $r1
	@DEBUG_VALUE: HAL_TIM_PWM_Start_IT:htim <- [DW_OP_LLVM_entry_value 1] $r0
	.loc	7 1553 9                        @ ../Drivers/STM32L0xx_HAL_Driver/Src/stm32l0xx_hal_tim.c:1553:9
	cmp	r0, r1
	bne	.LBB32_23
.Ltmp581:
.LBB32_22:
	@DEBUG_VALUE: HAL_TIM_PWM_Start_IT:Channel <- [DW_OP_LLVM_entry_value 1] $r1
	@DEBUG_VALUE: HAL_TIM_PWM_Start_IT:htim <- [DW_OP_LLVM_entry_value 1] $r0
	.loc	7 1555 33 is_stmt 1             @ ../Drivers/STM32L0xx_HAL_Driver/Src/stm32l0xx_hal_tim.c:1555:33
	ldr	r1, [r0, #8]
	movs	r3, #7
	.loc	7 1555 38 is_stmt 0             @ ../Drivers/STM32L0xx_HAL_Driver/Src/stm32l0xx_hal_tim.c:1555:38
	ands	r3, r1
.Ltmp582:
	@DEBUG_VALUE: HAL_TIM_PWM_Start_IT:tmpsmcr <- $r3
	.loc	7 1556 11 is_stmt 1             @ ../Drivers/STM32L0xx_HAL_Driver/Src/stm32l0xx_hal_tim.c:1556:11
	cmp	r3, #6
	beq	.LBB32_24
.Ltmp583:
.LBB32_23:
	@DEBUG_VALUE: HAL_TIM_PWM_Start_IT:Channel <- [DW_OP_LLVM_entry_value 1] $r1
	@DEBUG_VALUE: HAL_TIM_PWM_Start_IT:htim <- [DW_OP_LLVM_entry_value 1] $r0
	.loc	7 0 0 is_stmt 0                 @ ../Drivers/STM32L0xx_HAL_Driver/Src/stm32l0xx_hal_tim.c:0:0
	ldr	r1, [r0]
	orrs	r1, r2
	str	r1, [r0]
.Ltmp584:
.LBB32_24:
	@DEBUG_VALUE: HAL_TIM_PWM_Start_IT:Channel <- [DW_OP_LLVM_entry_value 1] $r1
	@DEBUG_VALUE: HAL_TIM_PWM_Start_IT:htim <- [DW_OP_LLVM_entry_value 1] $r0
	movs	r0, #0
	.loc	7 1569 1 is_stmt 1              @ ../Drivers/STM32L0xx_HAL_Driver/Src/stm32l0xx_hal_tim.c:1569:1
	bx	lr
.Ltmp585:
	.p2align	2
@ %bb.25:
	.loc	7 0 1 is_stmt 0                 @ ../Drivers/STM32L0xx_HAL_Driver/Src/stm32l0xx_hal_tim.c:0:1
__arm_cp.32_0:
	.long	.Lswitch.table.HAL_TIM_IC_Start_IT
.Lcpi_end50:
	.size	__arm_cp.32_0, .Lcpi_end50-__arm_cp.32_0
__arm_cp.32_1:
	.long	1073809407                      @ 0x400107ff
.Lcpi_end51:
	.size	__arm_cp.32_1, .Lcpi_end51-__arm_cp.32_1
__arm_cp.32_2:
	.long	1073812480                      @ 0x40011400
.Lcpi_end52:
	.size	__arm_cp.32_2, .Lcpi_end52-__arm_cp.32_2
__arm_cp.32_3:
	.long	1073809408                      @ 0x40010800
.Lcpi_end53:
	.size	__arm_cp.32_3, .Lcpi_end53-__arm_cp.32_3
__arm_cp.32_4:
	.long	1073742848                      @ 0x40000400
.Lcpi_end54:
	.size	__arm_cp.32_4, .Lcpi_end54-__arm_cp.32_4
.Lfunc_end32:
	.size	HAL_TIM_PWM_Start_IT, .Lfunc_end32-HAL_TIM_PWM_Start_IT
	.cfi_endproc
	.cantunwind
	.fnend
                                        @ -- End function
	.section	.text.HAL_TIM_PWM_Stop_IT,"ax",%progbits
	.hidden	HAL_TIM_PWM_Stop_IT             @ -- Begin function HAL_TIM_PWM_Stop_IT
	.globl	HAL_TIM_PWM_Stop_IT
	.p2align	2
	.type	HAL_TIM_PWM_Stop_IT,%function
	.code	16                              @ @HAL_TIM_PWM_Stop_IT
	.thumb_func
HAL_TIM_PWM_Stop_IT:
.Lfunc_begin33:
	.loc	7 1583 0 is_stmt 1              @ ../Drivers/STM32L0xx_HAL_Driver/Src/stm32l0xx_hal_tim.c:1583:0
	.fnstart
	.cfi_startproc
@ %bb.0:
	@DEBUG_VALUE: HAL_TIM_PWM_Stop_IT:htim <- $r0
	@DEBUG_VALUE: HAL_TIM_PWM_Stop_IT:Channel <- $r1
	.save	{r4, r5, r7, lr}
	push	{r4, r5, r7, lr}
	.cfi_def_cfa_offset 16
	.cfi_offset lr, -4
	.cfi_offset r7, -8
	.cfi_offset r5, -12
	.cfi_offset r4, -16
	movs	r3, #2
.Ltmp586:
	@DEBUG_VALUE: HAL_TIM_PWM_Stop_IT:status <- 0
	.loc	7 1589 3 prologue_end           @ ../Drivers/STM32L0xx_HAL_Driver/Src/stm32l0xx_hal_tim.c:1589:3
	mov	r2, r1
	rors	r2, r3
	cmp	r2, #3
	bhi	.LBB33_7
.Ltmp587:
@ %bb.1:
	@DEBUG_VALUE: HAL_TIM_PWM_Stop_IT:status <- 0
	@DEBUG_VALUE: HAL_TIM_PWM_Stop_IT:Channel <- $r1
	@DEBUG_VALUE: HAL_TIM_PWM_Stop_IT:htim <- $r0
	lsls	r2, r2, #2
	ldr	r3, __arm_cp.33_0
	ldr	r2, [r3, r2]
.Ltmp588:
	.loc	7 0 0 is_stmt 0                 @ ../Drivers/STM32L0xx_HAL_Driver/Src/stm32l0xx_hal_tim.c:0:0
	ldr	r3, [r0]
	ldr	r4, [r3, #12]
	ands	r4, r2
	str	r4, [r3, #12]
	movs	r4, #31
.Ltmp589:
	@DEBUG_VALUE: TIM_CCxChannelCmd:ChannelState <- 0
	@DEBUG_VALUE: TIM_CCxChannelCmd:Channel <- $r1
	@DEBUG_VALUE: TIM_CCxChannelCmd:TIMx <- $r3
	@DEBUG_VALUE: HAL_TIM_PWM_Stop_IT:status <- undef
	.loc	7 7130 35 is_stmt 1             @ ../Drivers/STM32L0xx_HAL_Driver/Src/stm32l0xx_hal_tim.c:7130:35
	ands	r4, r1
	movs	r2, #1
	.loc	7 7130 23 is_stmt 0             @ ../Drivers/STM32L0xx_HAL_Driver/Src/stm32l0xx_hal_tim.c:7130:23
	mov	r5, r2
	lsls	r5, r4
.Ltmp590:
	@DEBUG_VALUE: TIM_CCxChannelCmd:tmp <- $r5
	.loc	7 7133 14 is_stmt 1             @ ../Drivers/STM32L0xx_HAL_Driver/Src/stm32l0xx_hal_tim.c:7133:14
	ldr	r4, [r3, #32]
	bics	r4, r5
	str	r4, [r3, #32]
	.loc	7 7136 14                       @ ../Drivers/STM32L0xx_HAL_Driver/Src/stm32l0xx_hal_tim.c:7136:14
	ldr	r4, [r3, #32]
	str	r4, [r3, #32]
.Ltmp591:
	.loc	7 1630 5                        @ ../Drivers/STM32L0xx_HAL_Driver/Src/stm32l0xx_hal_tim.c:1630:5
	ldr	r4, [r3, #32]
	ldr	r5, __arm_cp.33_1
.Ltmp592:
	.loc	7 1630 5 is_stmt 0              @ ../Drivers/STM32L0xx_HAL_Driver/Src/stm32l0xx_hal_tim.c:1630:5
	tst	r4, r5
	bne	.LBB33_3
.Ltmp593:
@ %bb.2:
	@DEBUG_VALUE: HAL_TIM_PWM_Stop_IT:Channel <- $r1
	@DEBUG_VALUE: HAL_TIM_PWM_Stop_IT:htim <- $r0
	.loc	7 1630 5                        @ ../Drivers/STM32L0xx_HAL_Driver/Src/stm32l0xx_hal_tim.c:1630:5
	ldr	r4, [r3]
	bics	r4, r2
	str	r4, [r3]
.Ltmp594:
.LBB33_3:
	@DEBUG_VALUE: HAL_TIM_PWM_Stop_IT:Channel <- $r1
	@DEBUG_VALUE: HAL_TIM_PWM_Stop_IT:htim <- $r0
	.loc	7 0 0                           @ ../Drivers/STM32L0xx_HAL_Driver/Src/stm32l0xx_hal_tim.c:0:0
	adds	r0, #58
.Ltmp595:
	@DEBUG_VALUE: HAL_TIM_PWM_Stop_IT:htim <- [DW_OP_LLVM_entry_value 1] $r0
	.loc	7 1633 5 is_stmt 1              @ ../Drivers/STM32L0xx_HAL_Driver/Src/stm32l0xx_hal_tim.c:1633:5
	cmp	r1, #8
	beq	.LBB33_8
.Ltmp596:
@ %bb.4:
	@DEBUG_VALUE: HAL_TIM_PWM_Stop_IT:htim <- [DW_OP_LLVM_entry_value 1] $r0
	@DEBUG_VALUE: HAL_TIM_PWM_Stop_IT:Channel <- $r1
	cmp	r1, #4
	beq	.LBB33_9
.Ltmp597:
@ %bb.5:
	@DEBUG_VALUE: HAL_TIM_PWM_Stop_IT:htim <- [DW_OP_LLVM_entry_value 1] $r0
	@DEBUG_VALUE: HAL_TIM_PWM_Stop_IT:Channel <- $r1
	cmp	r1, #0
	bne	.LBB33_10
.Ltmp598:
@ %bb.6:
	@DEBUG_VALUE: HAL_TIM_PWM_Stop_IT:htim <- [DW_OP_LLVM_entry_value 1] $r0
	@DEBUG_VALUE: HAL_TIM_PWM_Stop_IT:Channel <- $r1
	strb	r2, [r0]
	b	.LBB33_11
.Ltmp599:
.LBB33_7:
	@DEBUG_VALUE: HAL_TIM_PWM_Stop_IT:status <- 0
	@DEBUG_VALUE: HAL_TIM_PWM_Stop_IT:Channel <- $r1
	@DEBUG_VALUE: HAL_TIM_PWM_Stop_IT:htim <- $r0
	.loc	7 0 5 is_stmt 0                 @ ../Drivers/STM32L0xx_HAL_Driver/Src/stm32l0xx_hal_tim.c:0:5
	movs	r0, #1
.Ltmp600:
	@DEBUG_VALUE: HAL_TIM_PWM_Stop_IT:htim <- [DW_OP_LLVM_entry_value 1] $r0
	.loc	7 1637 3 is_stmt 1              @ ../Drivers/STM32L0xx_HAL_Driver/Src/stm32l0xx_hal_tim.c:1637:3
	pop	{r4, r5, r7, pc}
.Ltmp601:
.LBB33_8:
	@DEBUG_VALUE: HAL_TIM_PWM_Stop_IT:htim <- [DW_OP_LLVM_entry_value 1] $r0
	@DEBUG_VALUE: HAL_TIM_PWM_Stop_IT:Channel <- $r1
	.loc	7 1633 5                        @ ../Drivers/STM32L0xx_HAL_Driver/Src/stm32l0xx_hal_tim.c:1633:5
	strb	r2, [r0, #2]
	b	.LBB33_11
.Ltmp602:
.LBB33_9:
	@DEBUG_VALUE: HAL_TIM_PWM_Stop_IT:htim <- [DW_OP_LLVM_entry_value 1] $r0
	@DEBUG_VALUE: HAL_TIM_PWM_Stop_IT:Channel <- $r1
	strb	r2, [r0, #1]
	b	.LBB33_11
.Ltmp603:
.LBB33_10:
	@DEBUG_VALUE: HAL_TIM_PWM_Stop_IT:htim <- [DW_OP_LLVM_entry_value 1] $r0
	@DEBUG_VALUE: HAL_TIM_PWM_Stop_IT:Channel <- $r1
	strb	r2, [r0, #3]
.Ltmp604:
.LBB33_11:
	@DEBUG_VALUE: HAL_TIM_PWM_Stop_IT:htim <- [DW_OP_LLVM_entry_value 1] $r0
	@DEBUG_VALUE: HAL_TIM_PWM_Stop_IT:Channel <- $r1
	.loc	7 0 5 is_stmt 0                 @ ../Drivers/STM32L0xx_HAL_Driver/Src/stm32l0xx_hal_tim.c:0:5
	movs	r0, #0
	.loc	7 1637 3 is_stmt 1              @ ../Drivers/STM32L0xx_HAL_Driver/Src/stm32l0xx_hal_tim.c:1637:3
	pop	{r4, r5, r7, pc}
.Ltmp605:
	.p2align	2
@ %bb.12:
	.loc	7 0 3 is_stmt 0                 @ ../Drivers/STM32L0xx_HAL_Driver/Src/stm32l0xx_hal_tim.c:0:3
__arm_cp.33_0:
	.long	.Lswitch.table.HAL_TIM_IC_Stop_IT
.Lcpi_end55:
	.size	__arm_cp.33_0, .Lcpi_end55-__arm_cp.33_0
__arm_cp.33_1:
	.long	4369                            @ 0x1111
.Lcpi_end56:
	.size	__arm_cp.33_1, .Lcpi_end56-__arm_cp.33_1
.Lfunc_end33:
	.size	HAL_TIM_PWM_Stop_IT, .Lfunc_end33-HAL_TIM_PWM_Stop_IT
	.cfi_endproc
	.cantunwind
	.fnend
                                        @ -- End function
	.section	.text.HAL_TIM_PWM_Start_DMA,"ax",%progbits
	.hidden	HAL_TIM_PWM_Start_DMA           @ -- Begin function HAL_TIM_PWM_Start_DMA
	.globl	HAL_TIM_PWM_Start_DMA
	.p2align	2
	.type	HAL_TIM_PWM_Start_DMA,%function
	.code	16                              @ @HAL_TIM_PWM_Start_DMA
	.thumb_func
HAL_TIM_PWM_Start_DMA:
.Lfunc_begin34:
	.loc	7 1655 0 is_stmt 1              @ ../Drivers/STM32L0xx_HAL_Driver/Src/stm32l0xx_hal_tim.c:1655:0
	.fnstart
	.cfi_startproc
@ %bb.0:
	@DEBUG_VALUE: HAL_TIM_PWM_Start_DMA:htim <- $r0
	@DEBUG_VALUE: HAL_TIM_PWM_Start_DMA:Channel <- $r1
	@DEBUG_VALUE: HAL_TIM_PWM_Start_DMA:pData <- $r2
	@DEBUG_VALUE: HAL_TIM_PWM_Start_DMA:Length <- $r3
	.save	{r4, r5, r6, lr}
	push	{r4, r5, r6, lr}
	.cfi_def_cfa_offset 16
	.cfi_offset lr, -4
	.cfi_offset r6, -8
	.cfi_offset r5, -12
	.cfi_offset r4, -16
	mov	r4, r1
.Ltmp606:
	@DEBUG_VALUE: HAL_TIM_PWM_Start_DMA:Channel <- $r4
	mov	r5, r0
.Ltmp607:
	@DEBUG_VALUE: HAL_TIM_PWM_Start_DMA:htim <- $r5
	.loc	7 0 0 is_stmt 0                 @ ../Drivers/STM32L0xx_HAL_Driver/Src/stm32l0xx_hal_tim.c:0:0
	mov	r1, r0
	adds	r1, #58
.Ltmp608:
	@DEBUG_VALUE: HAL_TIM_PWM_Start_DMA:status <- 0
	.loc	7 1663 7 prologue_end is_stmt 1 @ ../Drivers/STM32L0xx_HAL_Driver/Src/stm32l0xx_hal_tim.c:1663:7
	cmp	r4, #0
	beq	.LBB34_4
.Ltmp609:
@ %bb.1:
	@DEBUG_VALUE: HAL_TIM_PWM_Start_DMA:status <- 0
	@DEBUG_VALUE: HAL_TIM_PWM_Start_DMA:htim <- $r5
	@DEBUG_VALUE: HAL_TIM_PWM_Start_DMA:Channel <- $r4
	@DEBUG_VALUE: HAL_TIM_PWM_Start_DMA:Length <- $r3
	@DEBUG_VALUE: HAL_TIM_PWM_Start_DMA:pData <- $r2
	cmp	r4, #8
	beq	.LBB34_5
.Ltmp610:
@ %bb.2:
	@DEBUG_VALUE: HAL_TIM_PWM_Start_DMA:status <- 0
	@DEBUG_VALUE: HAL_TIM_PWM_Start_DMA:htim <- $r5
	@DEBUG_VALUE: HAL_TIM_PWM_Start_DMA:Channel <- $r4
	@DEBUG_VALUE: HAL_TIM_PWM_Start_DMA:Length <- $r3
	@DEBUG_VALUE: HAL_TIM_PWM_Start_DMA:pData <- $r2
	cmp	r4, #4
	bne	.LBB34_6
.Ltmp611:
@ %bb.3:
	@DEBUG_VALUE: HAL_TIM_PWM_Start_DMA:status <- 0
	@DEBUG_VALUE: HAL_TIM_PWM_Start_DMA:htim <- $r5
	@DEBUG_VALUE: HAL_TIM_PWM_Start_DMA:Channel <- $r4
	@DEBUG_VALUE: HAL_TIM_PWM_Start_DMA:Length <- $r3
	@DEBUG_VALUE: HAL_TIM_PWM_Start_DMA:pData <- $r2
	adds	r0, r1, #1
	b	.LBB34_7
.Ltmp612:
.LBB34_4:
	@DEBUG_VALUE: HAL_TIM_PWM_Start_DMA:status <- 0
	@DEBUG_VALUE: HAL_TIM_PWM_Start_DMA:htim <- $r5
	@DEBUG_VALUE: HAL_TIM_PWM_Start_DMA:Channel <- $r4
	@DEBUG_VALUE: HAL_TIM_PWM_Start_DMA:Length <- $r3
	@DEBUG_VALUE: HAL_TIM_PWM_Start_DMA:pData <- $r2
	ldrb	r0, [r1]
.Ltmp613:
	.loc	7 1663 7 is_stmt 0              @ ../Drivers/STM32L0xx_HAL_Driver/Src/stm32l0xx_hal_tim.c:1663:7
	cmp	r0, #2
	mov	r0, r1
	beq	.LBB34_8
	b	.LBB34_14
.Ltmp614:
.LBB34_5:
	@DEBUG_VALUE: HAL_TIM_PWM_Start_DMA:status <- 0
	@DEBUG_VALUE: HAL_TIM_PWM_Start_DMA:htim <- $r5
	@DEBUG_VALUE: HAL_TIM_PWM_Start_DMA:Channel <- $r4
	@DEBUG_VALUE: HAL_TIM_PWM_Start_DMA:Length <- $r3
	@DEBUG_VALUE: HAL_TIM_PWM_Start_DMA:pData <- $r2
	.loc	7 1663 7                        @ ../Drivers/STM32L0xx_HAL_Driver/Src/stm32l0xx_hal_tim.c:1663:7
	adds	r0, r1, #2
	b	.LBB34_7
.Ltmp615:
.LBB34_6:
	@DEBUG_VALUE: HAL_TIM_PWM_Start_DMA:status <- 0
	@DEBUG_VALUE: HAL_TIM_PWM_Start_DMA:htim <- $r5
	@DEBUG_VALUE: HAL_TIM_PWM_Start_DMA:Channel <- $r4
	@DEBUG_VALUE: HAL_TIM_PWM_Start_DMA:Length <- $r3
	@DEBUG_VALUE: HAL_TIM_PWM_Start_DMA:pData <- $r2
	adds	r0, r1, #3
.Ltmp616:
.LBB34_7:
	@DEBUG_VALUE: HAL_TIM_PWM_Start_DMA:status <- 0
	@DEBUG_VALUE: HAL_TIM_PWM_Start_DMA:htim <- $r5
	@DEBUG_VALUE: HAL_TIM_PWM_Start_DMA:Channel <- $r4
	@DEBUG_VALUE: HAL_TIM_PWM_Start_DMA:Length <- $r3
	@DEBUG_VALUE: HAL_TIM_PWM_Start_DMA:pData <- $r2
	ldrb	r0, [r0]
.Ltmp617:
	.loc	7 1663 7                        @ ../Drivers/STM32L0xx_HAL_Driver/Src/stm32l0xx_hal_tim.c:1663:7
	cmp	r0, #2
	bne	.LBB34_9
.Ltmp618:
.LBB34_8:
	@DEBUG_VALUE: HAL_TIM_PWM_Start_DMA:status <- 0
	@DEBUG_VALUE: HAL_TIM_PWM_Start_DMA:htim <- $r5
	@DEBUG_VALUE: HAL_TIM_PWM_Start_DMA:Channel <- $r4
	@DEBUG_VALUE: HAL_TIM_PWM_Start_DMA:Length <- $r3
	@DEBUG_VALUE: HAL_TIM_PWM_Start_DMA:pData <- $r2
	.loc	7 0 7                           @ ../Drivers/STM32L0xx_HAL_Driver/Src/stm32l0xx_hal_tim.c:0:7
	movs	r0, #2
	.loc	7 1797 1 is_stmt 1              @ ../Drivers/STM32L0xx_HAL_Driver/Src/stm32l0xx_hal_tim.c:1797:1
	pop	{r4, r5, r6, pc}
.Ltmp619:
.LBB34_9:
	@DEBUG_VALUE: HAL_TIM_PWM_Start_DMA:status <- 0
	@DEBUG_VALUE: HAL_TIM_PWM_Start_DMA:htim <- $r5
	@DEBUG_VALUE: HAL_TIM_PWM_Start_DMA:Channel <- $r4
	@DEBUG_VALUE: HAL_TIM_PWM_Start_DMA:Length <- $r3
	@DEBUG_VALUE: HAL_TIM_PWM_Start_DMA:pData <- $r2
	.loc	7 1667 12                       @ ../Drivers/STM32L0xx_HAL_Driver/Src/stm32l0xx_hal_tim.c:1667:12
	cmp	r4, #8
	beq	.LBB34_12
.Ltmp620:
@ %bb.10:
	@DEBUG_VALUE: HAL_TIM_PWM_Start_DMA:status <- 0
	@DEBUG_VALUE: HAL_TIM_PWM_Start_DMA:htim <- $r5
	@DEBUG_VALUE: HAL_TIM_PWM_Start_DMA:Channel <- $r4
	@DEBUG_VALUE: HAL_TIM_PWM_Start_DMA:Length <- $r3
	@DEBUG_VALUE: HAL_TIM_PWM_Start_DMA:pData <- $r2
	cmp	r4, #4
	bne	.LBB34_13
.Ltmp621:
@ %bb.11:
	@DEBUG_VALUE: HAL_TIM_PWM_Start_DMA:status <- 0
	@DEBUG_VALUE: HAL_TIM_PWM_Start_DMA:htim <- $r5
	@DEBUG_VALUE: HAL_TIM_PWM_Start_DMA:Channel <- $r4
	@DEBUG_VALUE: HAL_TIM_PWM_Start_DMA:Length <- $r3
	@DEBUG_VALUE: HAL_TIM_PWM_Start_DMA:pData <- $r2
	adds	r0, r1, #1
	b	.LBB34_14
.Ltmp622:
.LBB34_12:
	@DEBUG_VALUE: HAL_TIM_PWM_Start_DMA:status <- 0
	@DEBUG_VALUE: HAL_TIM_PWM_Start_DMA:htim <- $r5
	@DEBUG_VALUE: HAL_TIM_PWM_Start_DMA:Channel <- $r4
	@DEBUG_VALUE: HAL_TIM_PWM_Start_DMA:Length <- $r3
	@DEBUG_VALUE: HAL_TIM_PWM_Start_DMA:pData <- $r2
	adds	r0, r1, #2
	b	.LBB34_14
.Ltmp623:
.LBB34_13:
	@DEBUG_VALUE: HAL_TIM_PWM_Start_DMA:status <- 0
	@DEBUG_VALUE: HAL_TIM_PWM_Start_DMA:htim <- $r5
	@DEBUG_VALUE: HAL_TIM_PWM_Start_DMA:Channel <- $r4
	@DEBUG_VALUE: HAL_TIM_PWM_Start_DMA:Length <- $r3
	@DEBUG_VALUE: HAL_TIM_PWM_Start_DMA:pData <- $r2
	adds	r0, r1, #3
.Ltmp624:
.LBB34_14:
	@DEBUG_VALUE: HAL_TIM_PWM_Start_DMA:status <- 0
	@DEBUG_VALUE: HAL_TIM_PWM_Start_DMA:htim <- $r5
	@DEBUG_VALUE: HAL_TIM_PWM_Start_DMA:Channel <- $r4
	@DEBUG_VALUE: HAL_TIM_PWM_Start_DMA:Length <- $r3
	@DEBUG_VALUE: HAL_TIM_PWM_Start_DMA:pData <- $r2
	@DEBUG_VALUE: HAL_TIM_PWM_Start_DMA:Length <- $r3
	ldrb	r6, [r0]
	movs	r0, #1
.Ltmp625:
	.loc	7 1667 12 is_stmt 0             @ ../Drivers/STM32L0xx_HAL_Driver/Src/stm32l0xx_hal_tim.c:1667:12
	cmp	r6, #1
	beq	.LBB34_15
	b	.LBB34_44
.Ltmp626:
.LBB34_15:
	@DEBUG_VALUE: HAL_TIM_PWM_Start_DMA:status <- 0
	@DEBUG_VALUE: HAL_TIM_PWM_Start_DMA:htim <- $r5
	@DEBUG_VALUE: HAL_TIM_PWM_Start_DMA:Channel <- $r4
	@DEBUG_VALUE: HAL_TIM_PWM_Start_DMA:Length <- $r3
	@DEBUG_VALUE: HAL_TIM_PWM_Start_DMA:pData <- $r2
	@DEBUG_VALUE: HAL_TIM_PWM_Start_DMA:Length <- $r3
	.loc	7 1669 25 is_stmt 1             @ ../Drivers/STM32L0xx_HAL_Driver/Src/stm32l0xx_hal_tim.c:1669:25
	cmp	r2, #0
	bne	.LBB34_16
	b	.LBB34_44
.Ltmp627:
.LBB34_16:
	@DEBUG_VALUE: HAL_TIM_PWM_Start_DMA:status <- 0
	@DEBUG_VALUE: HAL_TIM_PWM_Start_DMA:htim <- $r5
	@DEBUG_VALUE: HAL_TIM_PWM_Start_DMA:Channel <- $r4
	@DEBUG_VALUE: HAL_TIM_PWM_Start_DMA:Length <- $r3
	@DEBUG_VALUE: HAL_TIM_PWM_Start_DMA:pData <- $r2
	@DEBUG_VALUE: HAL_TIM_PWM_Start_DMA:Length <- $r3
	cmp	r3, #0
	bne	.LBB34_17
	b	.LBB34_44
.Ltmp628:
.LBB34_17:
	@DEBUG_VALUE: HAL_TIM_PWM_Start_DMA:status <- 0
	@DEBUG_VALUE: HAL_TIM_PWM_Start_DMA:htim <- $r5
	@DEBUG_VALUE: HAL_TIM_PWM_Start_DMA:Channel <- $r4
	@DEBUG_VALUE: HAL_TIM_PWM_Start_DMA:Length <- $r3
	@DEBUG_VALUE: HAL_TIM_PWM_Start_DMA:pData <- $r2
	@DEBUG_VALUE: HAL_TIM_PWM_Start_DMA:Length <- $r3
	.loc	7 0 25 is_stmt 0                @ ../Drivers/STM32L0xx_HAL_Driver/Src/stm32l0xx_hal_tim.c:0:25
	movs	r6, #2
.Ltmp629:
	.loc	7 1675 7 is_stmt 1              @ ../Drivers/STM32L0xx_HAL_Driver/Src/stm32l0xx_hal_tim.c:1675:7
	cmp	r4, #0
	beq	.LBB34_21
.Ltmp630:
@ %bb.18:
	@DEBUG_VALUE: HAL_TIM_PWM_Start_DMA:status <- 0
	@DEBUG_VALUE: HAL_TIM_PWM_Start_DMA:htim <- $r5
	@DEBUG_VALUE: HAL_TIM_PWM_Start_DMA:Channel <- $r4
	@DEBUG_VALUE: HAL_TIM_PWM_Start_DMA:Length <- $r3
	@DEBUG_VALUE: HAL_TIM_PWM_Start_DMA:pData <- $r2
	cmp	r4, #8
	beq	.LBB34_22
.Ltmp631:
@ %bb.19:
	@DEBUG_VALUE: HAL_TIM_PWM_Start_DMA:status <- 0
	@DEBUG_VALUE: HAL_TIM_PWM_Start_DMA:htim <- $r5
	@DEBUG_VALUE: HAL_TIM_PWM_Start_DMA:Channel <- $r4
	@DEBUG_VALUE: HAL_TIM_PWM_Start_DMA:Length <- $r3
	@DEBUG_VALUE: HAL_TIM_PWM_Start_DMA:pData <- $r2
	cmp	r4, #4
	bne	.LBB34_23
.Ltmp632:
@ %bb.20:
	@DEBUG_VALUE: HAL_TIM_PWM_Start_DMA:status <- 0
	@DEBUG_VALUE: HAL_TIM_PWM_Start_DMA:htim <- $r5
	@DEBUG_VALUE: HAL_TIM_PWM_Start_DMA:Channel <- $r4
	@DEBUG_VALUE: HAL_TIM_PWM_Start_DMA:Length <- $r3
	@DEBUG_VALUE: HAL_TIM_PWM_Start_DMA:pData <- $r2
	strb	r6, [r1, #1]
	b	.LBB34_24
.Ltmp633:
.LBB34_21:
	@DEBUG_VALUE: HAL_TIM_PWM_Start_DMA:status <- 0
	@DEBUG_VALUE: HAL_TIM_PWM_Start_DMA:htim <- $r5
	@DEBUG_VALUE: HAL_TIM_PWM_Start_DMA:Channel <- $r4
	@DEBUG_VALUE: HAL_TIM_PWM_Start_DMA:Length <- $r3
	@DEBUG_VALUE: HAL_TIM_PWM_Start_DMA:pData <- $r2
	strb	r6, [r1]
	b	.LBB34_24
.Ltmp634:
.LBB34_22:
	@DEBUG_VALUE: HAL_TIM_PWM_Start_DMA:status <- 0
	@DEBUG_VALUE: HAL_TIM_PWM_Start_DMA:htim <- $r5
	@DEBUG_VALUE: HAL_TIM_PWM_Start_DMA:Channel <- $r4
	@DEBUG_VALUE: HAL_TIM_PWM_Start_DMA:Length <- $r3
	@DEBUG_VALUE: HAL_TIM_PWM_Start_DMA:pData <- $r2
	strb	r6, [r1, #2]
	b	.LBB34_24
.Ltmp635:
.LBB34_23:
	@DEBUG_VALUE: HAL_TIM_PWM_Start_DMA:status <- 0
	@DEBUG_VALUE: HAL_TIM_PWM_Start_DMA:htim <- $r5
	@DEBUG_VALUE: HAL_TIM_PWM_Start_DMA:Channel <- $r4
	@DEBUG_VALUE: HAL_TIM_PWM_Start_DMA:Length <- $r3
	@DEBUG_VALUE: HAL_TIM_PWM_Start_DMA:pData <- $r2
	strb	r6, [r1, #3]
.Ltmp636:
.LBB34_24:
	@DEBUG_VALUE: HAL_TIM_PWM_Start_DMA:status <- 0
	@DEBUG_VALUE: HAL_TIM_PWM_Start_DMA:htim <- $r5
	@DEBUG_VALUE: HAL_TIM_PWM_Start_DMA:Channel <- $r4
	@DEBUG_VALUE: HAL_TIM_PWM_Start_DMA:Length <- $r3
	@DEBUG_VALUE: HAL_TIM_PWM_Start_DMA:pData <- $r2
	@DEBUG_VALUE: HAL_TIM_PWM_Start_DMA:Length <- $r3
	.loc	7 0 7 is_stmt 0                 @ ../Drivers/STM32L0xx_HAL_Driver/Src/stm32l0xx_hal_tim.c:0:7
	movs	r6, #2
	.loc	7 1683 3 is_stmt 1              @ ../Drivers/STM32L0xx_HAL_Driver/Src/stm32l0xx_hal_tim.c:1683:3
	mov	r1, r4
	rors	r1, r6
	cmp	r1, #3
	bls	.LBB34_25
	b	.LBB34_44
.Ltmp637:
.LBB34_25:
	@DEBUG_VALUE: HAL_TIM_PWM_Start_DMA:status <- 0
	@DEBUG_VALUE: HAL_TIM_PWM_Start_DMA:htim <- $r5
	@DEBUG_VALUE: HAL_TIM_PWM_Start_DMA:Channel <- $r4
	@DEBUG_VALUE: HAL_TIM_PWM_Start_DMA:Length <- $r3
	@DEBUG_VALUE: HAL_TIM_PWM_Start_DMA:pData <- $r2
	@DEBUG_VALUE: HAL_TIM_PWM_Start_DMA:Length <- $r3
	.loc	7 0 3 is_stmt 0                 @ ../Drivers/STM32L0xx_HAL_Driver/Src/stm32l0xx_hal_tim.c:0:3
	.p2align	2
	add	r1, pc
	ldrb	r1, [r1, #4]
	lsls	r1, r1, #1
.LCPI34_7:
	add	pc, r1
.Ltmp638:
@ %bb.26:
	.p2align	2
.LJTI34_0:
	.byte	(.LBB34_27-(.LCPI34_7+4))/2
	.byte	(.LBB34_29-(.LCPI34_7+4))/2
	.byte	(.LBB34_31-(.LCPI34_7+4))/2
	.byte	(.LBB34_33-(.LCPI34_7+4))/2
	.p2align	1
.LBB34_27:
.Ltmp639:
	@DEBUG_VALUE: HAL_TIM_PWM_Start_DMA:status <- 0
	@DEBUG_VALUE: HAL_TIM_PWM_Start_DMA:htim <- $r5
	@DEBUG_VALUE: HAL_TIM_PWM_Start_DMA:Channel <- $r4
	@DEBUG_VALUE: HAL_TIM_PWM_Start_DMA:Length <- $r3
	@DEBUG_VALUE: HAL_TIM_PWM_Start_DMA:pData <- $r2
	.loc	7 1688 7 is_stmt 1              @ ../Drivers/STM32L0xx_HAL_Driver/Src/stm32l0xx_hal_tim.c:1688:7
	ldr	r0, [r5, #32]
	.loc	7 1688 52 is_stmt 0             @ ../Drivers/STM32L0xx_HAL_Driver/Src/stm32l0xx_hal_tim.c:1688:52
	ldr	r1, __arm_cp.34_0
	str	r1, [r0, #44]
	.loc	7 1689 7 is_stmt 1              @ ../Drivers/STM32L0xx_HAL_Driver/Src/stm32l0xx_hal_tim.c:1689:7
	ldr	r0, [r5, #32]
	.loc	7 1689 56 is_stmt 0             @ ../Drivers/STM32L0xx_HAL_Driver/Src/stm32l0xx_hal_tim.c:1689:56
	ldr	r1, __arm_cp.34_1
	str	r1, [r0, #48]
	.loc	7 1692 7 is_stmt 1              @ ../Drivers/STM32L0xx_HAL_Driver/Src/stm32l0xx_hal_tim.c:1692:7
	ldr	r0, [r5, #32]
	.loc	7 1692 53 is_stmt 0             @ ../Drivers/STM32L0xx_HAL_Driver/Src/stm32l0xx_hal_tim.c:1692:53
	ldr	r1, __arm_cp.34_2
	str	r1, [r0, #52]
.Ltmp640:
	.loc	7 1695 28 is_stmt 1             @ ../Drivers/STM32L0xx_HAL_Driver/Src/stm32l0xx_hal_tim.c:1695:28
	ldr	r0, [r5, #32]
	.loc	7 1695 90 is_stmt 0             @ ../Drivers/STM32L0xx_HAL_Driver/Src/stm32l0xx_hal_tim.c:1695:90
	ldr	r6, [r5]
	.loc	7 1695 100                      @ ../Drivers/STM32L0xx_HAL_Driver/Src/stm32l0xx_hal_tim.c:1695:100
	adds	r6, #52
	.loc	7 1695 11                       @ ../Drivers/STM32L0xx_HAL_Driver/Src/stm32l0xx_hal_tim.c:1695:11
	mov	r1, r2
	mov	r2, r6
.Ltmp641:
	@DEBUG_VALUE: HAL_TIM_PWM_Start_DMA:pData <- [DW_OP_LLVM_entry_value 1] $r2
	bl	HAL_DMA_Start_IT
.Ltmp642:
	mov	r1, r0
	movs	r0, #1
.Ltmp643:
	.loc	7 1695 11                       @ ../Drivers/STM32L0xx_HAL_Driver/Src/stm32l0xx_hal_tim.c:1695:11
	cmp	r1, #0
	bne	.LBB34_44
.Ltmp644:
@ %bb.28:
	@DEBUG_VALUE: HAL_TIM_PWM_Start_DMA:pData <- [DW_OP_LLVM_entry_value 1] $r2
	@DEBUG_VALUE: HAL_TIM_PWM_Start_DMA:status <- 0
	@DEBUG_VALUE: HAL_TIM_PWM_Start_DMA:htim <- $r5
	@DEBUG_VALUE: HAL_TIM_PWM_Start_DMA:Channel <- $r4
	.loc	7 0 11                          @ ../Drivers/STM32L0xx_HAL_Driver/Src/stm32l0xx_hal_tim.c:0:11
	lsls	r1, r0, #9
	b	.LBB34_35
.Ltmp645:
.LBB34_29:
	@DEBUG_VALUE: HAL_TIM_PWM_Start_DMA:status <- 0
	@DEBUG_VALUE: HAL_TIM_PWM_Start_DMA:htim <- $r5
	@DEBUG_VALUE: HAL_TIM_PWM_Start_DMA:Channel <- $r4
	@DEBUG_VALUE: HAL_TIM_PWM_Start_DMA:Length <- $r3
	@DEBUG_VALUE: HAL_TIM_PWM_Start_DMA:pData <- $r2
	.loc	7 1710 7 is_stmt 1              @ ../Drivers/STM32L0xx_HAL_Driver/Src/stm32l0xx_hal_tim.c:1710:7
	ldr	r0, [r5, #36]
	.loc	7 1710 52 is_stmt 0             @ ../Drivers/STM32L0xx_HAL_Driver/Src/stm32l0xx_hal_tim.c:1710:52
	ldr	r1, __arm_cp.34_0
	str	r1, [r0, #44]
	.loc	7 1711 7 is_stmt 1              @ ../Drivers/STM32L0xx_HAL_Driver/Src/stm32l0xx_hal_tim.c:1711:7
	ldr	r0, [r5, #36]
	.loc	7 1711 56 is_stmt 0             @ ../Drivers/STM32L0xx_HAL_Driver/Src/stm32l0xx_hal_tim.c:1711:56
	ldr	r1, __arm_cp.34_1
	str	r1, [r0, #48]
	.loc	7 1714 7 is_stmt 1              @ ../Drivers/STM32L0xx_HAL_Driver/Src/stm32l0xx_hal_tim.c:1714:7
	ldr	r0, [r5, #36]
	.loc	7 1714 53 is_stmt 0             @ ../Drivers/STM32L0xx_HAL_Driver/Src/stm32l0xx_hal_tim.c:1714:53
	ldr	r1, __arm_cp.34_2
	str	r1, [r0, #52]
.Ltmp646:
	.loc	7 1717 28 is_stmt 1             @ ../Drivers/STM32L0xx_HAL_Driver/Src/stm32l0xx_hal_tim.c:1717:28
	ldr	r0, [r5, #36]
	.loc	7 1717 90 is_stmt 0             @ ../Drivers/STM32L0xx_HAL_Driver/Src/stm32l0xx_hal_tim.c:1717:90
	ldr	r6, [r5]
	.loc	7 1717 100                      @ ../Drivers/STM32L0xx_HAL_Driver/Src/stm32l0xx_hal_tim.c:1717:100
	adds	r6, #56
	.loc	7 1717 11                       @ ../Drivers/STM32L0xx_HAL_Driver/Src/stm32l0xx_hal_tim.c:1717:11
	mov	r1, r2
	mov	r2, r6
.Ltmp647:
	@DEBUG_VALUE: HAL_TIM_PWM_Start_DMA:pData <- [DW_OP_LLVM_entry_value 1] $r2
	bl	HAL_DMA_Start_IT
.Ltmp648:
	mov	r1, r0
	movs	r0, #1
.Ltmp649:
	.loc	7 1717 11                       @ ../Drivers/STM32L0xx_HAL_Driver/Src/stm32l0xx_hal_tim.c:1717:11
	cmp	r1, #0
	bne	.LBB34_44
.Ltmp650:
@ %bb.30:
	@DEBUG_VALUE: HAL_TIM_PWM_Start_DMA:pData <- [DW_OP_LLVM_entry_value 1] $r2
	@DEBUG_VALUE: HAL_TIM_PWM_Start_DMA:status <- 0
	@DEBUG_VALUE: HAL_TIM_PWM_Start_DMA:htim <- $r5
	@DEBUG_VALUE: HAL_TIM_PWM_Start_DMA:Channel <- $r4
	.loc	7 0 11                          @ ../Drivers/STM32L0xx_HAL_Driver/Src/stm32l0xx_hal_tim.c:0:11
	lsls	r1, r0, #10
	b	.LBB34_35
.Ltmp651:
.LBB34_31:
	@DEBUG_VALUE: HAL_TIM_PWM_Start_DMA:status <- 0
	@DEBUG_VALUE: HAL_TIM_PWM_Start_DMA:htim <- $r5
	@DEBUG_VALUE: HAL_TIM_PWM_Start_DMA:Channel <- $r4
	@DEBUG_VALUE: HAL_TIM_PWM_Start_DMA:Length <- $r3
	@DEBUG_VALUE: HAL_TIM_PWM_Start_DMA:pData <- $r2
	.loc	7 1731 7 is_stmt 1              @ ../Drivers/STM32L0xx_HAL_Driver/Src/stm32l0xx_hal_tim.c:1731:7
	ldr	r0, [r5, #40]
	.loc	7 1731 52 is_stmt 0             @ ../Drivers/STM32L0xx_HAL_Driver/Src/stm32l0xx_hal_tim.c:1731:52
	ldr	r1, __arm_cp.34_0
	str	r1, [r0, #44]
	.loc	7 1732 7 is_stmt 1              @ ../Drivers/STM32L0xx_HAL_Driver/Src/stm32l0xx_hal_tim.c:1732:7
	ldr	r0, [r5, #40]
	.loc	7 1732 56 is_stmt 0             @ ../Drivers/STM32L0xx_HAL_Driver/Src/stm32l0xx_hal_tim.c:1732:56
	ldr	r1, __arm_cp.34_1
	str	r1, [r0, #48]
	.loc	7 1735 7 is_stmt 1              @ ../Drivers/STM32L0xx_HAL_Driver/Src/stm32l0xx_hal_tim.c:1735:7
	ldr	r0, [r5, #40]
	.loc	7 1735 53 is_stmt 0             @ ../Drivers/STM32L0xx_HAL_Driver/Src/stm32l0xx_hal_tim.c:1735:53
	ldr	r1, __arm_cp.34_2
	str	r1, [r0, #52]
.Ltmp652:
	.loc	7 1738 28 is_stmt 1             @ ../Drivers/STM32L0xx_HAL_Driver/Src/stm32l0xx_hal_tim.c:1738:28
	ldr	r0, [r5, #40]
	.loc	7 1738 90 is_stmt 0             @ ../Drivers/STM32L0xx_HAL_Driver/Src/stm32l0xx_hal_tim.c:1738:90
	ldr	r6, [r5]
	.loc	7 1738 100                      @ ../Drivers/STM32L0xx_HAL_Driver/Src/stm32l0xx_hal_tim.c:1738:100
	adds	r6, #60
	.loc	7 1738 11                       @ ../Drivers/STM32L0xx_HAL_Driver/Src/stm32l0xx_hal_tim.c:1738:11
	mov	r1, r2
	mov	r2, r6
.Ltmp653:
	@DEBUG_VALUE: HAL_TIM_PWM_Start_DMA:pData <- [DW_OP_LLVM_entry_value 1] $r2
	bl	HAL_DMA_Start_IT
.Ltmp654:
	mov	r1, r0
	movs	r0, #1
.Ltmp655:
	.loc	7 1738 11                       @ ../Drivers/STM32L0xx_HAL_Driver/Src/stm32l0xx_hal_tim.c:1738:11
	cmp	r1, #0
	bne	.LBB34_44
.Ltmp656:
@ %bb.32:
	@DEBUG_VALUE: HAL_TIM_PWM_Start_DMA:pData <- [DW_OP_LLVM_entry_value 1] $r2
	@DEBUG_VALUE: HAL_TIM_PWM_Start_DMA:status <- 0
	@DEBUG_VALUE: HAL_TIM_PWM_Start_DMA:htim <- $r5
	@DEBUG_VALUE: HAL_TIM_PWM_Start_DMA:Channel <- $r4
	.loc	7 0 11                          @ ../Drivers/STM32L0xx_HAL_Driver/Src/stm32l0xx_hal_tim.c:0:11
	lsls	r1, r0, #11
	b	.LBB34_35
.Ltmp657:
.LBB34_33:
	@DEBUG_VALUE: HAL_TIM_PWM_Start_DMA:status <- 0
	@DEBUG_VALUE: HAL_TIM_PWM_Start_DMA:htim <- $r5
	@DEBUG_VALUE: HAL_TIM_PWM_Start_DMA:Channel <- $r4
	@DEBUG_VALUE: HAL_TIM_PWM_Start_DMA:Length <- $r3
	@DEBUG_VALUE: HAL_TIM_PWM_Start_DMA:pData <- $r2
	.loc	7 1752 7 is_stmt 1              @ ../Drivers/STM32L0xx_HAL_Driver/Src/stm32l0xx_hal_tim.c:1752:7
	ldr	r0, [r5, #44]
	.loc	7 1752 52 is_stmt 0             @ ../Drivers/STM32L0xx_HAL_Driver/Src/stm32l0xx_hal_tim.c:1752:52
	ldr	r1, __arm_cp.34_0
	str	r1, [r0, #44]
	.loc	7 1753 7 is_stmt 1              @ ../Drivers/STM32L0xx_HAL_Driver/Src/stm32l0xx_hal_tim.c:1753:7
	ldr	r0, [r5, #44]
	.loc	7 1753 56 is_stmt 0             @ ../Drivers/STM32L0xx_HAL_Driver/Src/stm32l0xx_hal_tim.c:1753:56
	ldr	r1, __arm_cp.34_1
	str	r1, [r0, #48]
	.loc	7 1756 7 is_stmt 1              @ ../Drivers/STM32L0xx_HAL_Driver/Src/stm32l0xx_hal_tim.c:1756:7
	ldr	r0, [r5, #44]
	.loc	7 1756 53 is_stmt 0             @ ../Drivers/STM32L0xx_HAL_Driver/Src/stm32l0xx_hal_tim.c:1756:53
	ldr	r1, __arm_cp.34_2
	str	r1, [r0, #52]
.Ltmp658:
	.loc	7 1759 28 is_stmt 1             @ ../Drivers/STM32L0xx_HAL_Driver/Src/stm32l0xx_hal_tim.c:1759:28
	ldr	r0, [r5, #44]
	.loc	7 1759 90 is_stmt 0             @ ../Drivers/STM32L0xx_HAL_Driver/Src/stm32l0xx_hal_tim.c:1759:90
	ldr	r6, [r5]
	.loc	7 1759 100                      @ ../Drivers/STM32L0xx_HAL_Driver/Src/stm32l0xx_hal_tim.c:1759:100
	adds	r6, #64
	.loc	7 1759 11                       @ ../Drivers/STM32L0xx_HAL_Driver/Src/stm32l0xx_hal_tim.c:1759:11
	mov	r1, r2
	mov	r2, r6
.Ltmp659:
	@DEBUG_VALUE: HAL_TIM_PWM_Start_DMA:pData <- [DW_OP_LLVM_entry_value 1] $r2
	bl	HAL_DMA_Start_IT
.Ltmp660:
	mov	r1, r0
	movs	r0, #1
.Ltmp661:
	.loc	7 1759 11                       @ ../Drivers/STM32L0xx_HAL_Driver/Src/stm32l0xx_hal_tim.c:1759:11
	cmp	r1, #0
	bne	.LBB34_44
.Ltmp662:
@ %bb.34:
	@DEBUG_VALUE: HAL_TIM_PWM_Start_DMA:pData <- [DW_OP_LLVM_entry_value 1] $r2
	@DEBUG_VALUE: HAL_TIM_PWM_Start_DMA:status <- 0
	@DEBUG_VALUE: HAL_TIM_PWM_Start_DMA:htim <- $r5
	@DEBUG_VALUE: HAL_TIM_PWM_Start_DMA:Channel <- $r4
	.loc	7 0 11                          @ ../Drivers/STM32L0xx_HAL_Driver/Src/stm32l0xx_hal_tim.c:0:11
	lsls	r1, r0, #12
.Ltmp663:
.LBB34_35:
	@DEBUG_VALUE: HAL_TIM_PWM_Start_DMA:pData <- [DW_OP_LLVM_entry_value 1] $r2
	@DEBUG_VALUE: HAL_TIM_PWM_Start_DMA:status <- 0
	@DEBUG_VALUE: HAL_TIM_PWM_Start_DMA:htim <- $r5
	@DEBUG_VALUE: HAL_TIM_PWM_Start_DMA:Channel <- $r4
	ldr	r0, [r5]
	ldr	r2, [r0, #12]
	orrs	r2, r1
	str	r2, [r0, #12]
	movs	r1, #31
.Ltmp664:
	@DEBUG_VALUE: TIM_CCxChannelCmd:ChannelState <- 1
	@DEBUG_VALUE: TIM_CCxChannelCmd:Channel <- $r4
	@DEBUG_VALUE: TIM_CCxChannelCmd:TIMx <- $r0
	@DEBUG_VALUE: HAL_TIM_PWM_Start_DMA:status <- undef
	.loc	7 7130 35 is_stmt 1             @ ../Drivers/STM32L0xx_HAL_Driver/Src/stm32l0xx_hal_tim.c:7130:35
	ands	r4, r1
.Ltmp665:
	@DEBUG_VALUE: HAL_TIM_PWM_Start_DMA:Channel <- [DW_OP_LLVM_entry_value 1] $r1
	.loc	7 0 35 is_stmt 0                @ ../Drivers/STM32L0xx_HAL_Driver/Src/stm32l0xx_hal_tim.c:0:35
	movs	r1, #1
	.loc	7 7130 23                       @ ../Drivers/STM32L0xx_HAL_Driver/Src/stm32l0xx_hal_tim.c:7130:23
	mov	r2, r1
	lsls	r2, r4
.Ltmp666:
	@DEBUG_VALUE: TIM_CCxChannelCmd:tmp <- $r2
	.loc	7 7133 14 is_stmt 1             @ ../Drivers/STM32L0xx_HAL_Driver/Src/stm32l0xx_hal_tim.c:7133:14
	ldr	r3, [r0, #32]
	bics	r3, r2
	str	r3, [r0, #32]
	.loc	7 7136 14                       @ ../Drivers/STM32L0xx_HAL_Driver/Src/stm32l0xx_hal_tim.c:7136:14
	ldr	r3, [r0, #32]
	orrs	r3, r2
	str	r3, [r0, #32]
	ldr	r2, __arm_cp.34_3
.Ltmp667:
	.loc	7 1781 9                        @ ../Drivers/STM32L0xx_HAL_Driver/Src/stm32l0xx_hal_tim.c:1781:9
	cmp	r0, r2
	bgt	.LBB34_38
.Ltmp668:
@ %bb.36:
	@DEBUG_VALUE: HAL_TIM_PWM_Start_DMA:Channel <- [DW_OP_LLVM_entry_value 1] $r1
	@DEBUG_VALUE: HAL_TIM_PWM_Start_DMA:pData <- [DW_OP_LLVM_entry_value 1] $r2
	@DEBUG_VALUE: HAL_TIM_PWM_Start_DMA:htim <- $r5
	.loc	7 0 9 is_stmt 0                 @ ../Drivers/STM32L0xx_HAL_Driver/Src/stm32l0xx_hal_tim.c:0:9
	lsls	r2, r1, #30
	.loc	7 1781 9                        @ ../Drivers/STM32L0xx_HAL_Driver/Src/stm32l0xx_hal_tim.c:1781:9
	cmp	r0, r2
	beq	.LBB34_41
.Ltmp669:
@ %bb.37:
	@DEBUG_VALUE: HAL_TIM_PWM_Start_DMA:Channel <- [DW_OP_LLVM_entry_value 1] $r1
	@DEBUG_VALUE: HAL_TIM_PWM_Start_DMA:pData <- [DW_OP_LLVM_entry_value 1] $r2
	@DEBUG_VALUE: HAL_TIM_PWM_Start_DMA:htim <- $r5
	.loc	7 0 9                           @ ../Drivers/STM32L0xx_HAL_Driver/Src/stm32l0xx_hal_tim.c:0:9
	ldr	r2, __arm_cp.34_6
	b	.LBB34_40
.Ltmp670:
.LBB34_38:
	@DEBUG_VALUE: HAL_TIM_PWM_Start_DMA:Channel <- [DW_OP_LLVM_entry_value 1] $r1
	@DEBUG_VALUE: HAL_TIM_PWM_Start_DMA:pData <- [DW_OP_LLVM_entry_value 1] $r2
	@DEBUG_VALUE: HAL_TIM_PWM_Start_DMA:htim <- $r5
	ldr	r2, __arm_cp.34_4
	.loc	7 1781 9                        @ ../Drivers/STM32L0xx_HAL_Driver/Src/stm32l0xx_hal_tim.c:1781:9
	cmp	r0, r2
	beq	.LBB34_41
.Ltmp671:
@ %bb.39:
	@DEBUG_VALUE: HAL_TIM_PWM_Start_DMA:Channel <- [DW_OP_LLVM_entry_value 1] $r1
	@DEBUG_VALUE: HAL_TIM_PWM_Start_DMA:pData <- [DW_OP_LLVM_entry_value 1] $r2
	@DEBUG_VALUE: HAL_TIM_PWM_Start_DMA:htim <- $r5
	.loc	7 0 9                           @ ../Drivers/STM32L0xx_HAL_Driver/Src/stm32l0xx_hal_tim.c:0:9
	ldr	r2, __arm_cp.34_5
.Ltmp672:
.LBB34_40:
	@DEBUG_VALUE: HAL_TIM_PWM_Start_DMA:Channel <- [DW_OP_LLVM_entry_value 1] $r1
	@DEBUG_VALUE: HAL_TIM_PWM_Start_DMA:pData <- [DW_OP_LLVM_entry_value 1] $r2
	@DEBUG_VALUE: HAL_TIM_PWM_Start_DMA:htim <- $r5
	.loc	7 1781 9                        @ ../Drivers/STM32L0xx_HAL_Driver/Src/stm32l0xx_hal_tim.c:1781:9
	cmp	r0, r2
	bne	.LBB34_42
.Ltmp673:
.LBB34_41:
	@DEBUG_VALUE: HAL_TIM_PWM_Start_DMA:Channel <- [DW_OP_LLVM_entry_value 1] $r1
	@DEBUG_VALUE: HAL_TIM_PWM_Start_DMA:pData <- [DW_OP_LLVM_entry_value 1] $r2
	@DEBUG_VALUE: HAL_TIM_PWM_Start_DMA:htim <- $r5
	.loc	7 1783 33 is_stmt 1             @ ../Drivers/STM32L0xx_HAL_Driver/Src/stm32l0xx_hal_tim.c:1783:33
	ldr	r2, [r0, #8]
	movs	r3, #7
	.loc	7 1783 38 is_stmt 0             @ ../Drivers/STM32L0xx_HAL_Driver/Src/stm32l0xx_hal_tim.c:1783:38
	ands	r3, r2
.Ltmp674:
	@DEBUG_VALUE: HAL_TIM_PWM_Start_DMA:tmpsmcr <- $r3
	.loc	7 1784 11 is_stmt 1             @ ../Drivers/STM32L0xx_HAL_Driver/Src/stm32l0xx_hal_tim.c:1784:11
	cmp	r3, #6
	beq	.LBB34_43
.Ltmp675:
.LBB34_42:
	@DEBUG_VALUE: HAL_TIM_PWM_Start_DMA:Channel <- [DW_OP_LLVM_entry_value 1] $r1
	@DEBUG_VALUE: HAL_TIM_PWM_Start_DMA:pData <- [DW_OP_LLVM_entry_value 1] $r2
	@DEBUG_VALUE: HAL_TIM_PWM_Start_DMA:htim <- $r5
	.loc	7 0 0 is_stmt 0                 @ ../Drivers/STM32L0xx_HAL_Driver/Src/stm32l0xx_hal_tim.c:0:0
	ldr	r2, [r0]
	orrs	r2, r1
	str	r2, [r0]
.Ltmp676:
.LBB34_43:
	@DEBUG_VALUE: HAL_TIM_PWM_Start_DMA:Channel <- [DW_OP_LLVM_entry_value 1] $r1
	@DEBUG_VALUE: HAL_TIM_PWM_Start_DMA:pData <- [DW_OP_LLVM_entry_value 1] $r2
	@DEBUG_VALUE: HAL_TIM_PWM_Start_DMA:htim <- $r5
	movs	r0, #0
.Ltmp677:
.LBB34_44:
	@DEBUG_VALUE: HAL_TIM_PWM_Start_DMA:htim <- $r5
	.loc	7 1797 1 is_stmt 1              @ ../Drivers/STM32L0xx_HAL_Driver/Src/stm32l0xx_hal_tim.c:1797:1
	pop	{r4, r5, r6, pc}
.Ltmp678:
	.p2align	2
@ %bb.45:
	.loc	7 0 1 is_stmt 0                 @ ../Drivers/STM32L0xx_HAL_Driver/Src/stm32l0xx_hal_tim.c:0:1
__arm_cp.34_0:
	.long	TIM_DMADelayPulseCplt
.Lcpi_end57:
	.size	__arm_cp.34_0, .Lcpi_end57-__arm_cp.34_0
__arm_cp.34_1:
	.long	TIM_DMADelayPulseHalfCplt
.Lcpi_end58:
	.size	__arm_cp.34_1, .Lcpi_end58-__arm_cp.34_1
__arm_cp.34_2:
	.long	TIM_DMAError
.Lcpi_end59:
	.size	__arm_cp.34_2, .Lcpi_end59-__arm_cp.34_2
__arm_cp.34_3:
	.long	1073809407                      @ 0x400107ff
.Lcpi_end60:
	.size	__arm_cp.34_3, .Lcpi_end60-__arm_cp.34_3
__arm_cp.34_4:
	.long	1073812480                      @ 0x40011400
.Lcpi_end61:
	.size	__arm_cp.34_4, .Lcpi_end61-__arm_cp.34_4
__arm_cp.34_5:
	.long	1073809408                      @ 0x40010800
.Lcpi_end62:
	.size	__arm_cp.34_5, .Lcpi_end62-__arm_cp.34_5
__arm_cp.34_6:
	.long	1073742848                      @ 0x40000400
.Lcpi_end63:
	.size	__arm_cp.34_6, .Lcpi_end63-__arm_cp.34_6
.Lfunc_end34:
	.size	HAL_TIM_PWM_Start_DMA, .Lfunc_end34-HAL_TIM_PWM_Start_DMA
	.cfi_endproc
	.cantunwind
	.fnend
                                        @ -- End function
	.section	.text.HAL_TIM_PWM_Stop_DMA,"ax",%progbits
	.hidden	HAL_TIM_PWM_Stop_DMA            @ -- Begin function HAL_TIM_PWM_Stop_DMA
	.globl	HAL_TIM_PWM_Stop_DMA
	.p2align	2
	.type	HAL_TIM_PWM_Stop_DMA,%function
	.code	16                              @ @HAL_TIM_PWM_Stop_DMA
	.thumb_func
HAL_TIM_PWM_Stop_DMA:
.Lfunc_begin35:
	.loc	7 1811 0 is_stmt 1              @ ../Drivers/STM32L0xx_HAL_Driver/Src/stm32l0xx_hal_tim.c:1811:0
	.fnstart
	.cfi_startproc
@ %bb.0:
	@DEBUG_VALUE: HAL_TIM_PWM_Stop_DMA:htim <- $r0
	@DEBUG_VALUE: HAL_TIM_PWM_Stop_DMA:Channel <- $r1
	.save	{r4, r5, r7, lr}
	push	{r4, r5, r7, lr}
	.cfi_def_cfa_offset 16
	.cfi_offset lr, -4
	.cfi_offset r7, -8
	.cfi_offset r5, -12
	.cfi_offset r4, -16
	mov	r5, r1
.Ltmp679:
	@DEBUG_VALUE: HAL_TIM_PWM_Stop_DMA:Channel <- $r5
	mov	r4, r0
.Ltmp680:
	@DEBUG_VALUE: HAL_TIM_PWM_Stop_DMA:htim <- $r4
	movs	r1, #2
.Ltmp681:
	@DEBUG_VALUE: HAL_TIM_PWM_Stop_DMA:status <- 0
	.loc	7 1817 3 prologue_end           @ ../Drivers/STM32L0xx_HAL_Driver/Src/stm32l0xx_hal_tim.c:1817:3
	mov	r0, r5
	rors	r0, r1
	cmp	r0, #3
	bhi	.LBB35_4
.Ltmp682:
@ %bb.1:
	@DEBUG_VALUE: HAL_TIM_PWM_Stop_DMA:status <- 0
	@DEBUG_VALUE: HAL_TIM_PWM_Stop_DMA:htim <- $r4
	@DEBUG_VALUE: HAL_TIM_PWM_Stop_DMA:Channel <- $r5
	.loc	7 0 3 is_stmt 0                 @ ../Drivers/STM32L0xx_HAL_Driver/Src/stm32l0xx_hal_tim.c:0:3
	.p2align	2
	add	r0, pc
	ldrb	r0, [r0, #4]
	lsls	r0, r0, #1
.LCPI35_1:
	add	pc, r0
.Ltmp683:
@ %bb.2:
	.p2align	2
.LJTI35_0:
	.byte	(.LBB35_3-(.LCPI35_1+4))/2
	.byte	(.LBB35_5-(.LCPI35_1+4))/2
	.byte	(.LBB35_6-(.LCPI35_1+4))/2
	.byte	(.LBB35_7-(.LCPI35_1+4))/2
	.p2align	1
.LBB35_3:
.Ltmp684:
	@DEBUG_VALUE: HAL_TIM_PWM_Stop_DMA:status <- 0
	@DEBUG_VALUE: HAL_TIM_PWM_Stop_DMA:htim <- $r4
	@DEBUG_VALUE: HAL_TIM_PWM_Stop_DMA:Channel <- $r5
	movs	r0, #1
	lsls	r0, r0, #9
.Ltmp685:
	.loc	7 1822 7 is_stmt 1              @ ../Drivers/STM32L0xx_HAL_Driver/Src/stm32l0xx_hal_tim.c:1822:7
	ldr	r1, [r4]
	ldr	r2, [r1, #12]
	bics	r2, r0
	str	r2, [r1, #12]
	.loc	7 1823 30                       @ ../Drivers/STM32L0xx_HAL_Driver/Src/stm32l0xx_hal_tim.c:1823:30
	mov	r0, r4
	adds	r0, #32
	b	.LBB35_8
.Ltmp686:
.LBB35_4:
	@DEBUG_VALUE: HAL_TIM_PWM_Stop_DMA:status <- 0
	@DEBUG_VALUE: HAL_TIM_PWM_Stop_DMA:htim <- $r4
	@DEBUG_VALUE: HAL_TIM_PWM_Stop_DMA:Channel <- $r5
	.loc	7 0 30 is_stmt 0                @ ../Drivers/STM32L0xx_HAL_Driver/Src/stm32l0xx_hal_tim.c:0:30
	movs	r0, #1
	.loc	7 1869 3 is_stmt 1              @ ../Drivers/STM32L0xx_HAL_Driver/Src/stm32l0xx_hal_tim.c:1869:3
	pop	{r4, r5, r7, pc}
.Ltmp687:
.LBB35_5:
	@DEBUG_VALUE: HAL_TIM_PWM_Stop_DMA:status <- 0
	@DEBUG_VALUE: HAL_TIM_PWM_Stop_DMA:htim <- $r4
	@DEBUG_VALUE: HAL_TIM_PWM_Stop_DMA:Channel <- $r5
	.loc	7 0 3 is_stmt 0                 @ ../Drivers/STM32L0xx_HAL_Driver/Src/stm32l0xx_hal_tim.c:0:3
	movs	r0, #1
	lsls	r0, r0, #10
.Ltmp688:
	.loc	7 1830 7 is_stmt 1              @ ../Drivers/STM32L0xx_HAL_Driver/Src/stm32l0xx_hal_tim.c:1830:7
	ldr	r1, [r4]
	ldr	r2, [r1, #12]
	bics	r2, r0
	str	r2, [r1, #12]
	.loc	7 1831 30                       @ ../Drivers/STM32L0xx_HAL_Driver/Src/stm32l0xx_hal_tim.c:1831:30
	mov	r0, r4
	adds	r0, #36
	b	.LBB35_8
.Ltmp689:
.LBB35_6:
	@DEBUG_VALUE: HAL_TIM_PWM_Stop_DMA:status <- 0
	@DEBUG_VALUE: HAL_TIM_PWM_Stop_DMA:htim <- $r4
	@DEBUG_VALUE: HAL_TIM_PWM_Stop_DMA:Channel <- $r5
	.loc	7 0 30 is_stmt 0                @ ../Drivers/STM32L0xx_HAL_Driver/Src/stm32l0xx_hal_tim.c:0:30
	movs	r0, #1
	lsls	r0, r0, #11
.Ltmp690:
	.loc	7 1838 7 is_stmt 1              @ ../Drivers/STM32L0xx_HAL_Driver/Src/stm32l0xx_hal_tim.c:1838:7
	ldr	r1, [r4]
	ldr	r2, [r1, #12]
	bics	r2, r0
	str	r2, [r1, #12]
	.loc	7 1839 30                       @ ../Drivers/STM32L0xx_HAL_Driver/Src/stm32l0xx_hal_tim.c:1839:30
	mov	r0, r4
	adds	r0, #40
	b	.LBB35_8
.Ltmp691:
.LBB35_7:
	@DEBUG_VALUE: HAL_TIM_PWM_Stop_DMA:status <- 0
	@DEBUG_VALUE: HAL_TIM_PWM_Stop_DMA:htim <- $r4
	@DEBUG_VALUE: HAL_TIM_PWM_Stop_DMA:Channel <- $r5
	.loc	7 0 30 is_stmt 0                @ ../Drivers/STM32L0xx_HAL_Driver/Src/stm32l0xx_hal_tim.c:0:30
	movs	r0, #1
	lsls	r0, r0, #12
.Ltmp692:
	.loc	7 1846 7 is_stmt 1              @ ../Drivers/STM32L0xx_HAL_Driver/Src/stm32l0xx_hal_tim.c:1846:7
	ldr	r1, [r4]
	ldr	r2, [r1, #12]
	bics	r2, r0
	str	r2, [r1, #12]
	.loc	7 1847 30                       @ ../Drivers/STM32L0xx_HAL_Driver/Src/stm32l0xx_hal_tim.c:1847:30
	mov	r0, r4
	adds	r0, #44
.Ltmp693:
.LBB35_8:
	@DEBUG_VALUE: HAL_TIM_PWM_Stop_DMA:status <- 0
	@DEBUG_VALUE: HAL_TIM_PWM_Stop_DMA:htim <- $r4
	@DEBUG_VALUE: HAL_TIM_PWM_Stop_DMA:Channel <- $r5
	.loc	7 0 0 is_stmt 0                 @ ../Drivers/STM32L0xx_HAL_Driver/Src/stm32l0xx_hal_tim.c:0:0
	ldr	r0, [r0]
	bl	HAL_DMA_Abort_IT
.Ltmp694:
	movs	r1, #31
.Ltmp695:
	@DEBUG_VALUE: TIM_CCxChannelCmd:ChannelState <- 0
	@DEBUG_VALUE: TIM_CCxChannelCmd:Channel <- $r5
	.loc	7 7130 35 is_stmt 1             @ ../Drivers/STM32L0xx_HAL_Driver/Src/stm32l0xx_hal_tim.c:7130:35
	ands	r1, r5
	movs	r0, #1
	.loc	7 7130 23 is_stmt 0             @ ../Drivers/STM32L0xx_HAL_Driver/Src/stm32l0xx_hal_tim.c:7130:23
	mov	r2, r0
	lsls	r2, r1
.Ltmp696:
	@DEBUG_VALUE: TIM_CCxChannelCmd:tmp <- $r2
	@DEBUG_VALUE: HAL_TIM_PWM_Stop_DMA:status <- undef
	.loc	7 1859 29 is_stmt 1             @ ../Drivers/STM32L0xx_HAL_Driver/Src/stm32l0xx_hal_tim.c:1859:29
	ldr	r1, [r4]
.Ltmp697:
	@DEBUG_VALUE: TIM_CCxChannelCmd:TIMx <- $r1
	.loc	7 7133 14                       @ ../Drivers/STM32L0xx_HAL_Driver/Src/stm32l0xx_hal_tim.c:7133:14
	ldr	r3, [r1, #32]
	@DEBUG_VALUE: TIM_CCxChannelCmd:ChannelState <- 0
	bics	r3, r2
	str	r3, [r1, #32]
	.loc	7 7136 14                       @ ../Drivers/STM32L0xx_HAL_Driver/Src/stm32l0xx_hal_tim.c:7136:14
	ldr	r2, [r1, #32]
.Ltmp698:
	str	r2, [r1, #32]
.Ltmp699:
	.loc	7 1862 5                        @ ../Drivers/STM32L0xx_HAL_Driver/Src/stm32l0xx_hal_tim.c:1862:5
	ldr	r2, [r1, #32]
	ldr	r3, __arm_cp.35_0
.Ltmp700:
	.loc	7 1862 5 is_stmt 0              @ ../Drivers/STM32L0xx_HAL_Driver/Src/stm32l0xx_hal_tim.c:1862:5
	tst	r2, r3
	bne	.LBB35_10
.Ltmp701:
@ %bb.9:
	@DEBUG_VALUE: HAL_TIM_PWM_Stop_DMA:htim <- $r4
	@DEBUG_VALUE: HAL_TIM_PWM_Stop_DMA:Channel <- $r5
	.loc	7 1862 5                        @ ../Drivers/STM32L0xx_HAL_Driver/Src/stm32l0xx_hal_tim.c:1862:5
	ldr	r2, [r1]
	bics	r2, r0
	str	r2, [r1]
.Ltmp702:
.LBB35_10:
	@DEBUG_VALUE: HAL_TIM_PWM_Stop_DMA:htim <- $r4
	@DEBUG_VALUE: HAL_TIM_PWM_Stop_DMA:Channel <- $r5
	.loc	7 0 5                           @ ../Drivers/STM32L0xx_HAL_Driver/Src/stm32l0xx_hal_tim.c:0:5
	adds	r4, #58
.Ltmp703:
	@DEBUG_VALUE: HAL_TIM_PWM_Stop_DMA:htim <- [DW_OP_LLVM_entry_value 1] $r0
	.loc	7 1865 5 is_stmt 1              @ ../Drivers/STM32L0xx_HAL_Driver/Src/stm32l0xx_hal_tim.c:1865:5
	cmp	r5, #8
	beq	.LBB35_14
.Ltmp704:
@ %bb.11:
	@DEBUG_VALUE: HAL_TIM_PWM_Stop_DMA:htim <- [DW_OP_LLVM_entry_value 1] $r0
	@DEBUG_VALUE: HAL_TIM_PWM_Stop_DMA:Channel <- $r5
	cmp	r5, #4
	beq	.LBB35_15
.Ltmp705:
@ %bb.12:
	@DEBUG_VALUE: HAL_TIM_PWM_Stop_DMA:htim <- [DW_OP_LLVM_entry_value 1] $r0
	@DEBUG_VALUE: HAL_TIM_PWM_Stop_DMA:Channel <- $r5
	cmp	r5, #0
	bne	.LBB35_16
.Ltmp706:
@ %bb.13:
	@DEBUG_VALUE: HAL_TIM_PWM_Stop_DMA:htim <- [DW_OP_LLVM_entry_value 1] $r0
	@DEBUG_VALUE: HAL_TIM_PWM_Stop_DMA:Channel <- $r5
	strb	r0, [r4]
	b	.LBB35_17
.Ltmp707:
.LBB35_14:
	@DEBUG_VALUE: HAL_TIM_PWM_Stop_DMA:htim <- [DW_OP_LLVM_entry_value 1] $r0
	@DEBUG_VALUE: HAL_TIM_PWM_Stop_DMA:Channel <- $r5
	strb	r0, [r4, #2]
	b	.LBB35_17
.Ltmp708:
.LBB35_15:
	@DEBUG_VALUE: HAL_TIM_PWM_Stop_DMA:htim <- [DW_OP_LLVM_entry_value 1] $r0
	@DEBUG_VALUE: HAL_TIM_PWM_Stop_DMA:Channel <- $r5
	strb	r0, [r4, #1]
	b	.LBB35_17
.Ltmp709:
.LBB35_16:
	@DEBUG_VALUE: HAL_TIM_PWM_Stop_DMA:htim <- [DW_OP_LLVM_entry_value 1] $r0
	@DEBUG_VALUE: HAL_TIM_PWM_Stop_DMA:Channel <- $r5
	strb	r0, [r4, #3]
.Ltmp710:
.LBB35_17:
	@DEBUG_VALUE: HAL_TIM_PWM_Stop_DMA:htim <- [DW_OP_LLVM_entry_value 1] $r0
	@DEBUG_VALUE: HAL_TIM_PWM_Stop_DMA:Channel <- $r5
	.loc	7 0 5 is_stmt 0                 @ ../Drivers/STM32L0xx_HAL_Driver/Src/stm32l0xx_hal_tim.c:0:5
	movs	r0, #0
	.loc	7 1869 3 is_stmt 1              @ ../Drivers/STM32L0xx_HAL_Driver/Src/stm32l0xx_hal_tim.c:1869:3
	pop	{r4, r5, r7, pc}
.Ltmp711:
	.p2align	2
@ %bb.18:
	.loc	7 0 3 is_stmt 0                 @ ../Drivers/STM32L0xx_HAL_Driver/Src/stm32l0xx_hal_tim.c:0:3
__arm_cp.35_0:
	.long	4369                            @ 0x1111
.Lcpi_end64:
	.size	__arm_cp.35_0, .Lcpi_end64-__arm_cp.35_0
.Lfunc_end35:
	.size	HAL_TIM_PWM_Stop_DMA, .Lfunc_end35-HAL_TIM_PWM_Stop_DMA
	.cfi_endproc
	.cantunwind
	.fnend
                                        @ -- End function
	.section	.text.HAL_TIM_IC_Init,"ax",%progbits
	.hidden	HAL_TIM_IC_Init                 @ -- Begin function HAL_TIM_IC_Init
	.globl	HAL_TIM_IC_Init
	.p2align	1
	.type	HAL_TIM_IC_Init,%function
	.code	16                              @ @HAL_TIM_IC_Init
	.thumb_func
HAL_TIM_IC_Init:
.Lfunc_begin36:
	.loc	7 1908 0 is_stmt 1              @ ../Drivers/STM32L0xx_HAL_Driver/Src/stm32l0xx_hal_tim.c:1908:0
	.fnstart
	.cfi_startproc
@ %bb.0:
	@DEBUG_VALUE: HAL_TIM_IC_Init:htim <- $r0
	@DEBUG_VALUE: HAL_TIM_IC_Init:htim <- $r0
	.save	{r4, r5, r6, lr}
	push	{r4, r5, r6, lr}
	.cfi_def_cfa_offset 16
	.cfi_offset lr, -4
	.cfi_offset r6, -8
	.cfi_offset r5, -12
	.cfi_offset r4, -16
.Ltmp712:
	.loc	7 1910 7 prologue_end           @ ../Drivers/STM32L0xx_HAL_Driver/Src/stm32l0xx_hal_tim.c:1910:7
	cmp	r0, #0
	beq	.LBB36_4
.Ltmp713:
@ %bb.1:
	@DEBUG_VALUE: HAL_TIM_IC_Init:htim <- $r0
	.loc	7 0 7 is_stmt 0                 @ ../Drivers/STM32L0xx_HAL_Driver/Src/stm32l0xx_hal_tim.c:0:7
	mov	r4, r0
.Ltmp714:
	@DEBUG_VALUE: HAL_TIM_IC_Init:htim <- $r4
	mov	r5, r0
	adds	r5, #56
	mov	r6, r0
	adds	r6, #58
.Ltmp715:
	.loc	7 1923 13 is_stmt 1             @ ../Drivers/STM32L0xx_HAL_Driver/Src/stm32l0xx_hal_tim.c:1923:13
	ldrb	r0, [r5, #1]
.Ltmp716:
	.loc	7 1923 7 is_stmt 0              @ ../Drivers/STM32L0xx_HAL_Driver/Src/stm32l0xx_hal_tim.c:1923:7
	cmp	r0, #0
	bne	.LBB36_3
.Ltmp717:
@ %bb.2:
	@DEBUG_VALUE: HAL_TIM_IC_Init:htim <- $r4
	.loc	7 0 7                           @ ../Drivers/STM32L0xx_HAL_Driver/Src/stm32l0xx_hal_tim.c:0:7
	movs	r0, #0
.Ltmp718:
	.loc	7 1926 16 is_stmt 1             @ ../Drivers/STM32L0xx_HAL_Driver/Src/stm32l0xx_hal_tim.c:1926:16
	strb	r0, [r5]
	.loc	7 1940 5                        @ ../Drivers/STM32L0xx_HAL_Driver/Src/stm32l0xx_hal_tim.c:1940:5
	mov	r0, r4
	bl	HAL_TIM_IC_MspInit
.Ltmp719:
.LBB36_3:
	@DEBUG_VALUE: HAL_TIM_IC_Init:htim <- $r4
	.loc	7 0 5 is_stmt 0                 @ ../Drivers/STM32L0xx_HAL_Driver/Src/stm32l0xx_hal_tim.c:0:5
	movs	r0, #2
	.loc	7 1945 15 is_stmt 1             @ ../Drivers/STM32L0xx_HAL_Driver/Src/stm32l0xx_hal_tim.c:1945:15
	strb	r0, [r5, #1]
	.loc	7 1948 28                       @ ../Drivers/STM32L0xx_HAL_Driver/Src/stm32l0xx_hal_tim.c:1948:28
	ldm	r4!, {r0}
.Ltmp720:
	@DEBUG_VALUE: HAL_TIM_IC_Init:htim <- [DW_OP_LLVM_entry_value 1] $r0
	.loc	7 1948 3 is_stmt 0              @ ../Drivers/STM32L0xx_HAL_Driver/Src/stm32l0xx_hal_tim.c:1948:3
	mov	r1, r4
	bl	TIM_Base_SetConfig
.Ltmp721:
	.loc	7 0 3                           @ ../Drivers/STM32L0xx_HAL_Driver/Src/stm32l0xx_hal_tim.c:0:3
	movs	r0, #1
	.loc	7 1951 23 is_stmt 1             @ ../Drivers/STM32L0xx_HAL_Driver/Src/stm32l0xx_hal_tim.c:1951:23
	strb	r0, [r6, #4]
.Ltmp722:
	.loc	7 1954 3                        @ ../Drivers/STM32L0xx_HAL_Driver/Src/stm32l0xx_hal_tim.c:1954:3
	strb	r0, [r6]
	strb	r0, [r6, #1]
	strb	r0, [r6, #2]
	strb	r0, [r6, #3]
.Ltmp723:
	.loc	7 1957 15                       @ ../Drivers/STM32L0xx_HAL_Driver/Src/stm32l0xx_hal_tim.c:1957:15
	strb	r0, [r5, #1]
	movs	r0, #0
	.loc	7 1960 1                        @ ../Drivers/STM32L0xx_HAL_Driver/Src/stm32l0xx_hal_tim.c:1960:1
	pop	{r4, r5, r6, pc}
.Ltmp724:
.LBB36_4:
	@DEBUG_VALUE: HAL_TIM_IC_Init:htim <- $r0
	.loc	7 0 1 is_stmt 0                 @ ../Drivers/STM32L0xx_HAL_Driver/Src/stm32l0xx_hal_tim.c:0:1
	movs	r0, #1
.Ltmp725:
	@DEBUG_VALUE: HAL_TIM_IC_Init:htim <- [DW_OP_LLVM_entry_value 1] $r0
	.loc	7 1960 1                        @ ../Drivers/STM32L0xx_HAL_Driver/Src/stm32l0xx_hal_tim.c:1960:1
	pop	{r4, r5, r6, pc}
.Ltmp726:
.Lfunc_end36:
	.size	HAL_TIM_IC_Init, .Lfunc_end36-HAL_TIM_IC_Init
	.cfi_endproc
	.cantunwind
	.fnend
                                        @ -- End function
	.section	.text.HAL_TIM_IC_MspInit,"ax",%progbits
	.hidden	HAL_TIM_IC_MspInit              @ -- Begin function HAL_TIM_IC_MspInit
	.weak	HAL_TIM_IC_MspInit
	.p2align	1
	.type	HAL_TIM_IC_MspInit,%function
	.code	16                              @ @HAL_TIM_IC_MspInit
	.thumb_func
HAL_TIM_IC_MspInit:
.Lfunc_begin37:
	.loc	7 2010 0 is_stmt 1              @ ../Drivers/STM32L0xx_HAL_Driver/Src/stm32l0xx_hal_tim.c:2010:0
	.fnstart
	.cfi_startproc
@ %bb.0:
	@DEBUG_VALUE: HAL_TIM_IC_MspInit:htim <- $r0
	.loc	7 2017 1 prologue_end           @ ../Drivers/STM32L0xx_HAL_Driver/Src/stm32l0xx_hal_tim.c:2017:1
	bx	lr
.Ltmp727:
.Lfunc_end37:
	.size	HAL_TIM_IC_MspInit, .Lfunc_end37-HAL_TIM_IC_MspInit
	.cfi_endproc
	.cantunwind
	.fnend
                                        @ -- End function
	.section	.text.HAL_TIM_IC_DeInit,"ax",%progbits
	.hidden	HAL_TIM_IC_DeInit               @ -- Begin function HAL_TIM_IC_DeInit
	.globl	HAL_TIM_IC_DeInit
	.p2align	2
	.type	HAL_TIM_IC_DeInit,%function
	.code	16                              @ @HAL_TIM_IC_DeInit
	.thumb_func
HAL_TIM_IC_DeInit:
.Lfunc_begin38:
	.loc	7 1968 0                        @ ../Drivers/STM32L0xx_HAL_Driver/Src/stm32l0xx_hal_tim.c:1968:0
	.fnstart
	.cfi_startproc
@ %bb.0:
	@DEBUG_VALUE: HAL_TIM_IC_DeInit:htim <- $r0
	.save	{r4, r5, r7, lr}
	push	{r4, r5, r7, lr}
	.cfi_def_cfa_offset 16
	.cfi_offset lr, -4
	.cfi_offset r7, -8
	.cfi_offset r5, -12
	.cfi_offset r4, -16
.Ltmp728:
	.loc	7 0 0 is_stmt 0                 @ ../Drivers/STM32L0xx_HAL_Driver/Src/stm32l0xx_hal_tim.c:0:0
	mov	r4, r0
	adds	r4, #56
	movs	r1, #2
	.loc	7 1972 15 prologue_end is_stmt 1 @ ../Drivers/STM32L0xx_HAL_Driver/Src/stm32l0xx_hal_tim.c:1972:15
	strb	r1, [r4, #1]
	.loc	7 0 0 is_stmt 0                 @ ../Drivers/STM32L0xx_HAL_Driver/Src/stm32l0xx_hal_tim.c:0:0
	mov	r5, r0
	adds	r5, #58
.Ltmp729:
	.loc	7 1975 3 is_stmt 1              @ ../Drivers/STM32L0xx_HAL_Driver/Src/stm32l0xx_hal_tim.c:1975:3
	ldr	r1, [r0]
	ldr	r2, [r1, #32]
	ldr	r3, __arm_cp.38_0
.Ltmp730:
	.loc	7 1975 3 is_stmt 0              @ ../Drivers/STM32L0xx_HAL_Driver/Src/stm32l0xx_hal_tim.c:1975:3
	tst	r2, r3
	bne	.LBB38_2
.Ltmp731:
@ %bb.1:
	@DEBUG_VALUE: HAL_TIM_IC_DeInit:htim <- $r0
	.loc	7 1975 3                        @ ../Drivers/STM32L0xx_HAL_Driver/Src/stm32l0xx_hal_tim.c:1975:3
	ldr	r2, [r1]
	movs	r3, #1
	bics	r2, r3
	str	r2, [r1]
.Ltmp732:
.LBB38_2:
	@DEBUG_VALUE: HAL_TIM_IC_DeInit:htim <- $r0
	.loc	7 1986 3 is_stmt 1              @ ../Drivers/STM32L0xx_HAL_Driver/Src/stm32l0xx_hal_tim.c:1986:3
	bl	HAL_TIM_IC_MspDeInit
.Ltmp733:
	@DEBUG_VALUE: HAL_TIM_IC_DeInit:htim <- [DW_OP_LLVM_entry_value 1] $r0
	.loc	7 0 3 is_stmt 0                 @ ../Drivers/STM32L0xx_HAL_Driver/Src/stm32l0xx_hal_tim.c:0:3
	movs	r0, #0
	.loc	7 1990 23 is_stmt 1             @ ../Drivers/STM32L0xx_HAL_Driver/Src/stm32l0xx_hal_tim.c:1990:23
	strb	r0, [r5, #4]
.Ltmp734:
	.loc	7 1993 3                        @ ../Drivers/STM32L0xx_HAL_Driver/Src/stm32l0xx_hal_tim.c:1993:3
	strb	r0, [r5]
	strb	r0, [r5, #1]
	strb	r0, [r5, #2]
	strb	r0, [r5, #3]
.Ltmp735:
	.loc	7 1999 3                        @ ../Drivers/STM32L0xx_HAL_Driver/Src/stm32l0xx_hal_tim.c:1999:3
	strb	r0, [r4]
.Ltmp736:
	.loc	7 1996 15                       @ ../Drivers/STM32L0xx_HAL_Driver/Src/stm32l0xx_hal_tim.c:1996:15
	strb	r0, [r4, #1]
	.loc	7 2001 3                        @ ../Drivers/STM32L0xx_HAL_Driver/Src/stm32l0xx_hal_tim.c:2001:3
	pop	{r4, r5, r7, pc}
.Ltmp737:
	.p2align	2
@ %bb.3:
	.loc	7 0 3 is_stmt 0                 @ ../Drivers/STM32L0xx_HAL_Driver/Src/stm32l0xx_hal_tim.c:0:3
__arm_cp.38_0:
	.long	4369                            @ 0x1111
.Lcpi_end65:
	.size	__arm_cp.38_0, .Lcpi_end65-__arm_cp.38_0
.Lfunc_end38:
	.size	HAL_TIM_IC_DeInit, .Lfunc_end38-HAL_TIM_IC_DeInit
	.cfi_endproc
	.cantunwind
	.fnend
                                        @ -- End function
	.section	.text.HAL_TIM_IC_MspDeInit,"ax",%progbits
	.hidden	HAL_TIM_IC_MspDeInit            @ -- Begin function HAL_TIM_IC_MspDeInit
	.weak	HAL_TIM_IC_MspDeInit
	.p2align	1
	.type	HAL_TIM_IC_MspDeInit,%function
	.code	16                              @ @HAL_TIM_IC_MspDeInit
	.thumb_func
HAL_TIM_IC_MspDeInit:
.Lfunc_begin39:
	.loc	7 2025 0 is_stmt 1              @ ../Drivers/STM32L0xx_HAL_Driver/Src/stm32l0xx_hal_tim.c:2025:0
	.fnstart
	.cfi_startproc
@ %bb.0:
	@DEBUG_VALUE: HAL_TIM_IC_MspDeInit:htim <- $r0
	.loc	7 2032 1 prologue_end           @ ../Drivers/STM32L0xx_HAL_Driver/Src/stm32l0xx_hal_tim.c:2032:1
	bx	lr
.Ltmp738:
.Lfunc_end39:
	.size	HAL_TIM_IC_MspDeInit, .Lfunc_end39-HAL_TIM_IC_MspDeInit
	.cfi_endproc
	.cantunwind
	.fnend
                                        @ -- End function
	.section	.text.HAL_TIM_IC_Start,"ax",%progbits
	.hidden	HAL_TIM_IC_Start                @ -- Begin function HAL_TIM_IC_Start
	.globl	HAL_TIM_IC_Start
	.p2align	2
	.type	HAL_TIM_IC_Start,%function
	.code	16                              @ @HAL_TIM_IC_Start
	.thumb_func
HAL_TIM_IC_Start:
.Lfunc_begin40:
	.loc	7 2046 0                        @ ../Drivers/STM32L0xx_HAL_Driver/Src/stm32l0xx_hal_tim.c:2046:0
	.fnstart
	.cfi_startproc
@ %bb.0:
	@DEBUG_VALUE: HAL_TIM_IC_Start:htim <- $r0
	@DEBUG_VALUE: HAL_TIM_IC_Start:Channel <- $r1
	.loc	7 0 0 is_stmt 0                 @ ../Drivers/STM32L0xx_HAL_Driver/Src/stm32l0xx_hal_tim.c:0:0
	mov	r2, r0
	adds	r2, #58
	.loc	7 2048 47 prologue_end is_stmt 1 @ ../Drivers/STM32L0xx_HAL_Driver/Src/stm32l0xx_hal_tim.c:2048:47
	cmp	r1, #0
	beq	.LBB40_4
.Ltmp739:
@ %bb.1:
	@DEBUG_VALUE: HAL_TIM_IC_Start:Channel <- $r1
	@DEBUG_VALUE: HAL_TIM_IC_Start:htim <- $r0
	cmp	r1, #8
	beq	.LBB40_6
.Ltmp740:
@ %bb.2:
	@DEBUG_VALUE: HAL_TIM_IC_Start:Channel <- $r1
	@DEBUG_VALUE: HAL_TIM_IC_Start:htim <- $r0
	cmp	r1, #4
	bne	.LBB40_7
.Ltmp741:
@ %bb.3:
	@DEBUG_VALUE: HAL_TIM_IC_Start:Channel <- $r1
	@DEBUG_VALUE: HAL_TIM_IC_Start:htim <- $r0
	adds	r3, r2, #1
	b	.LBB40_8
.Ltmp742:
.LBB40_4:
	@DEBUG_VALUE: HAL_TIM_IC_Start:Channel <- $r1
	@DEBUG_VALUE: HAL_TIM_IC_Start:htim <- $r0
	ldrb	r3, [r2]
	.loc	7 2054 7                        @ ../Drivers/STM32L0xx_HAL_Driver/Src/stm32l0xx_hal_tim.c:2054:7
	cmp	r3, #1
	bne	.LBB40_12
.Ltmp743:
@ %bb.5:
	@DEBUG_VALUE: HAL_TIM_IC_Start:Channel <- $r1
	@DEBUG_VALUE: HAL_TIM_IC_Start:htim <- $r0
	.loc	7 0 7 is_stmt 0                 @ ../Drivers/STM32L0xx_HAL_Driver/Src/stm32l0xx_hal_tim.c:0:7
	movs	r3, #2
	.loc	7 2060 3 is_stmt 1              @ ../Drivers/STM32L0xx_HAL_Driver/Src/stm32l0xx_hal_tim.c:2060:3
	strb	r3, [r2]
	b	.LBB40_15
.Ltmp744:
.LBB40_6:
	@DEBUG_VALUE: HAL_TIM_IC_Start:Channel <- $r1
	@DEBUG_VALUE: HAL_TIM_IC_Start:htim <- $r0
	.loc	7 2048 47                       @ ../Drivers/STM32L0xx_HAL_Driver/Src/stm32l0xx_hal_tim.c:2048:47
	adds	r3, r2, #2
	b	.LBB40_8
.Ltmp745:
.LBB40_7:
	@DEBUG_VALUE: HAL_TIM_IC_Start:Channel <- $r1
	@DEBUG_VALUE: HAL_TIM_IC_Start:htim <- $r0
	adds	r3, r2, #3
.Ltmp746:
.LBB40_8:
	@DEBUG_VALUE: HAL_TIM_IC_Start:Channel <- $r1
	@DEBUG_VALUE: HAL_TIM_IC_Start:htim <- $r0
	ldrb	r3, [r3]
.Ltmp747:
	@DEBUG_VALUE: HAL_TIM_IC_Start:channel_state <- $r3
	.loc	7 2054 7                        @ ../Drivers/STM32L0xx_HAL_Driver/Src/stm32l0xx_hal_tim.c:2054:7
	cmp	r3, #1
	bne	.LBB40_12
.Ltmp748:
@ %bb.9:
	@DEBUG_VALUE: HAL_TIM_IC_Start:channel_state <- $r3
	@DEBUG_VALUE: HAL_TIM_IC_Start:Channel <- $r1
	@DEBUG_VALUE: HAL_TIM_IC_Start:htim <- $r0
	.loc	7 0 7 is_stmt 0                 @ ../Drivers/STM32L0xx_HAL_Driver/Src/stm32l0xx_hal_tim.c:0:7
	movs	r3, #2
.Ltmp749:
	.loc	7 2060 3 is_stmt 1              @ ../Drivers/STM32L0xx_HAL_Driver/Src/stm32l0xx_hal_tim.c:2060:3
	cmp	r1, #8
	beq	.LBB40_13
.Ltmp750:
@ %bb.10:
	@DEBUG_VALUE: HAL_TIM_IC_Start:Channel <- $r1
	@DEBUG_VALUE: HAL_TIM_IC_Start:htim <- $r0
	cmp	r1, #4
	bne	.LBB40_14
.Ltmp751:
@ %bb.11:
	@DEBUG_VALUE: HAL_TIM_IC_Start:Channel <- $r1
	@DEBUG_VALUE: HAL_TIM_IC_Start:htim <- $r0
	strb	r3, [r2, #1]
	b	.LBB40_15
.Ltmp752:
.LBB40_12:
	@DEBUG_VALUE: HAL_TIM_IC_Start:Channel <- $r1
	@DEBUG_VALUE: HAL_TIM_IC_Start:htim <- $r0
	.loc	7 0 3 is_stmt 0                 @ ../Drivers/STM32L0xx_HAL_Driver/Src/stm32l0xx_hal_tim.c:0:3
	movs	r0, #1
.Ltmp753:
	@DEBUG_VALUE: HAL_TIM_IC_Start:htim <- [DW_OP_LLVM_entry_value 1] $r0
	.loc	7 2081 1 is_stmt 1              @ ../Drivers/STM32L0xx_HAL_Driver/Src/stm32l0xx_hal_tim.c:2081:1
	bx	lr
.Ltmp754:
.LBB40_13:
	@DEBUG_VALUE: HAL_TIM_IC_Start:Channel <- $r1
	@DEBUG_VALUE: HAL_TIM_IC_Start:htim <- $r0
	.loc	7 2060 3                        @ ../Drivers/STM32L0xx_HAL_Driver/Src/stm32l0xx_hal_tim.c:2060:3
	strb	r3, [r2, #2]
	b	.LBB40_15
.Ltmp755:
.LBB40_14:
	@DEBUG_VALUE: HAL_TIM_IC_Start:Channel <- $r1
	@DEBUG_VALUE: HAL_TIM_IC_Start:htim <- $r0
	strb	r3, [r2, #3]
.Ltmp756:
.LBB40_15:
	@DEBUG_VALUE: HAL_TIM_IC_Start:Channel <- $r1
	@DEBUG_VALUE: HAL_TIM_IC_Start:htim <- $r0
	.loc	7 0 3 is_stmt 0                 @ ../Drivers/STM32L0xx_HAL_Driver/Src/stm32l0xx_hal_tim.c:0:3
	movs	r2, #31
.Ltmp757:
	@DEBUG_VALUE: TIM_CCxChannelCmd:ChannelState <- 1
	@DEBUG_VALUE: TIM_CCxChannelCmd:Channel <- $r1
	.loc	7 7130 35 is_stmt 1             @ ../Drivers/STM32L0xx_HAL_Driver/Src/stm32l0xx_hal_tim.c:7130:35
	ands	r1, r2
.Ltmp758:
	@DEBUG_VALUE: HAL_TIM_IC_Start:Channel <- [DW_OP_LLVM_entry_value 1] $r1
	.loc	7 0 35 is_stmt 0                @ ../Drivers/STM32L0xx_HAL_Driver/Src/stm32l0xx_hal_tim.c:0:35
	movs	r2, #1
	.loc	7 7130 23                       @ ../Drivers/STM32L0xx_HAL_Driver/Src/stm32l0xx_hal_tim.c:7130:23
	mov	r3, r2
	lsls	r3, r1
.Ltmp759:
	@DEBUG_VALUE: TIM_CCxChannelCmd:tmp <- $r3
	.loc	7 2063 27 is_stmt 1             @ ../Drivers/STM32L0xx_HAL_Driver/Src/stm32l0xx_hal_tim.c:2063:27
	ldr	r0, [r0]
.Ltmp760:
	@DEBUG_VALUE: HAL_TIM_IC_Start:htim <- [DW_OP_LLVM_entry_value 1] $r0
	@DEBUG_VALUE: TIM_CCxChannelCmd:TIMx <- $r0
	.loc	7 7133 14                       @ ../Drivers/STM32L0xx_HAL_Driver/Src/stm32l0xx_hal_tim.c:7133:14
	ldr	r1, [r0, #32]
	@DEBUG_VALUE: TIM_CCxChannelCmd:ChannelState <- 1
	bics	r1, r3
	str	r1, [r0, #32]
	.loc	7 7136 14                       @ ../Drivers/STM32L0xx_HAL_Driver/Src/stm32l0xx_hal_tim.c:7136:14
	ldr	r1, [r0, #32]
	orrs	r1, r3
	str	r1, [r0, #32]
	ldr	r1, __arm_cp.40_0
.Ltmp761:
	.loc	7 2066 7                        @ ../Drivers/STM32L0xx_HAL_Driver/Src/stm32l0xx_hal_tim.c:2066:7
	cmp	r0, r1
	bgt	.LBB40_18
.Ltmp762:
@ %bb.16:
	@DEBUG_VALUE: HAL_TIM_IC_Start:Channel <- [DW_OP_LLVM_entry_value 1] $r1
	@DEBUG_VALUE: HAL_TIM_IC_Start:htim <- [DW_OP_LLVM_entry_value 1] $r0
	.loc	7 0 7 is_stmt 0                 @ ../Drivers/STM32L0xx_HAL_Driver/Src/stm32l0xx_hal_tim.c:0:7
	lsls	r1, r2, #30
	.loc	7 2066 7                        @ ../Drivers/STM32L0xx_HAL_Driver/Src/stm32l0xx_hal_tim.c:2066:7
	cmp	r0, r1
	beq	.LBB40_21
.Ltmp763:
@ %bb.17:
	@DEBUG_VALUE: HAL_TIM_IC_Start:Channel <- [DW_OP_LLVM_entry_value 1] $r1
	@DEBUG_VALUE: HAL_TIM_IC_Start:htim <- [DW_OP_LLVM_entry_value 1] $r0
	.loc	7 0 7                           @ ../Drivers/STM32L0xx_HAL_Driver/Src/stm32l0xx_hal_tim.c:0:7
	ldr	r1, __arm_cp.40_3
	b	.LBB40_20
.Ltmp764:
.LBB40_18:
	@DEBUG_VALUE: HAL_TIM_IC_Start:Channel <- [DW_OP_LLVM_entry_value 1] $r1
	@DEBUG_VALUE: HAL_TIM_IC_Start:htim <- [DW_OP_LLVM_entry_value 1] $r0
	ldr	r1, __arm_cp.40_1
	.loc	7 2066 7                        @ ../Drivers/STM32L0xx_HAL_Driver/Src/stm32l0xx_hal_tim.c:2066:7
	cmp	r0, r1
	beq	.LBB40_21
.Ltmp765:
@ %bb.19:
	@DEBUG_VALUE: HAL_TIM_IC_Start:Channel <- [DW_OP_LLVM_entry_value 1] $r1
	@DEBUG_VALUE: HAL_TIM_IC_Start:htim <- [DW_OP_LLVM_entry_value 1] $r0
	.loc	7 0 7                           @ ../Drivers/STM32L0xx_HAL_Driver/Src/stm32l0xx_hal_tim.c:0:7
	ldr	r1, __arm_cp.40_2
.Ltmp766:
.LBB40_20:
	@DEBUG_VALUE: HAL_TIM_IC_Start:Channel <- [DW_OP_LLVM_entry_value 1] $r1
	@DEBUG_VALUE: HAL_TIM_IC_Start:htim <- [DW_OP_LLVM_entry_value 1] $r0
	.loc	7 2066 7                        @ ../Drivers/STM32L0xx_HAL_Driver/Src/stm32l0xx_hal_tim.c:2066:7
	cmp	r0, r1
	bne	.LBB40_22
.Ltmp767:
.LBB40_21:
	@DEBUG_VALUE: HAL_TIM_IC_Start:Channel <- [DW_OP_LLVM_entry_value 1] $r1
	@DEBUG_VALUE: HAL_TIM_IC_Start:htim <- [DW_OP_LLVM_entry_value 1] $r0
	.loc	7 2068 31 is_stmt 1             @ ../Drivers/STM32L0xx_HAL_Driver/Src/stm32l0xx_hal_tim.c:2068:31
	ldr	r1, [r0, #8]
	movs	r3, #7
	.loc	7 2068 36 is_stmt 0             @ ../Drivers/STM32L0xx_HAL_Driver/Src/stm32l0xx_hal_tim.c:2068:36
	ands	r3, r1
.Ltmp768:
	@DEBUG_VALUE: HAL_TIM_IC_Start:tmpsmcr <- $r3
	.loc	7 2069 9 is_stmt 1              @ ../Drivers/STM32L0xx_HAL_Driver/Src/stm32l0xx_hal_tim.c:2069:9
	cmp	r3, #6
	beq	.LBB40_23
.Ltmp769:
.LBB40_22:
	@DEBUG_VALUE: HAL_TIM_IC_Start:Channel <- [DW_OP_LLVM_entry_value 1] $r1
	@DEBUG_VALUE: HAL_TIM_IC_Start:htim <- [DW_OP_LLVM_entry_value 1] $r0
	.loc	7 0 0 is_stmt 0                 @ ../Drivers/STM32L0xx_HAL_Driver/Src/stm32l0xx_hal_tim.c:0:0
	ldr	r1, [r0]
	orrs	r1, r2
	str	r1, [r0]
.Ltmp770:
.LBB40_23:
	@DEBUG_VALUE: HAL_TIM_IC_Start:Channel <- [DW_OP_LLVM_entry_value 1] $r1
	@DEBUG_VALUE: HAL_TIM_IC_Start:htim <- [DW_OP_LLVM_entry_value 1] $r0
	movs	r0, #0
	.loc	7 2081 1 is_stmt 1              @ ../Drivers/STM32L0xx_HAL_Driver/Src/stm32l0xx_hal_tim.c:2081:1
	bx	lr
.Ltmp771:
	.p2align	2
@ %bb.24:
	.loc	7 0 1 is_stmt 0                 @ ../Drivers/STM32L0xx_HAL_Driver/Src/stm32l0xx_hal_tim.c:0:1
__arm_cp.40_0:
	.long	1073809407                      @ 0x400107ff
.Lcpi_end66:
	.size	__arm_cp.40_0, .Lcpi_end66-__arm_cp.40_0
__arm_cp.40_1:
	.long	1073812480                      @ 0x40011400
.Lcpi_end67:
	.size	__arm_cp.40_1, .Lcpi_end67-__arm_cp.40_1
__arm_cp.40_2:
	.long	1073809408                      @ 0x40010800
.Lcpi_end68:
	.size	__arm_cp.40_2, .Lcpi_end68-__arm_cp.40_2
__arm_cp.40_3:
	.long	1073742848                      @ 0x40000400
.Lcpi_end69:
	.size	__arm_cp.40_3, .Lcpi_end69-__arm_cp.40_3
.Lfunc_end40:
	.size	HAL_TIM_IC_Start, .Lfunc_end40-HAL_TIM_IC_Start
	.cfi_endproc
	.cantunwind
	.fnend
                                        @ -- End function
	.section	.text.HAL_TIM_IC_Stop,"ax",%progbits
	.hidden	HAL_TIM_IC_Stop                 @ -- Begin function HAL_TIM_IC_Stop
	.globl	HAL_TIM_IC_Stop
	.p2align	2
	.type	HAL_TIM_IC_Stop,%function
	.code	16                              @ @HAL_TIM_IC_Stop
	.thumb_func
HAL_TIM_IC_Stop:
.Lfunc_begin41:
	.loc	7 2095 0 is_stmt 1              @ ../Drivers/STM32L0xx_HAL_Driver/Src/stm32l0xx_hal_tim.c:2095:0
	.fnstart
	.cfi_startproc
@ %bb.0:
	@DEBUG_VALUE: HAL_TIM_IC_Stop:htim <- $r0
	@DEBUG_VALUE: HAL_TIM_IC_Stop:Channel <- $r1
	.save	{r4, r5, r7, lr}
	push	{r4, r5, r7, lr}
	.cfi_def_cfa_offset 16
	.cfi_offset lr, -4
	.cfi_offset r7, -8
	.cfi_offset r5, -12
	.cfi_offset r4, -16
	movs	r3, #31
.Ltmp772:
	@DEBUG_VALUE: TIM_CCxChannelCmd:ChannelState <- 0
	@DEBUG_VALUE: TIM_CCxChannelCmd:Channel <- $r1
	.loc	7 7130 35 prologue_end          @ ../Drivers/STM32L0xx_HAL_Driver/Src/stm32l0xx_hal_tim.c:7130:35
	ands	r3, r1
	movs	r2, #1
	.loc	7 7130 23 is_stmt 0             @ ../Drivers/STM32L0xx_HAL_Driver/Src/stm32l0xx_hal_tim.c:7130:23
	mov	r4, r2
	lsls	r4, r3
.Ltmp773:
	@DEBUG_VALUE: TIM_CCxChannelCmd:tmp <- $r4
	.loc	7 2100 27 is_stmt 1             @ ../Drivers/STM32L0xx_HAL_Driver/Src/stm32l0xx_hal_tim.c:2100:27
	ldr	r3, [r0]
.Ltmp774:
	@DEBUG_VALUE: TIM_CCxChannelCmd:TIMx <- $r3
	.loc	7 7133 14                       @ ../Drivers/STM32L0xx_HAL_Driver/Src/stm32l0xx_hal_tim.c:7133:14
	ldr	r5, [r3, #32]
	@DEBUG_VALUE: TIM_CCxChannelCmd:ChannelState <- 0
	bics	r5, r4
	str	r5, [r3, #32]
	.loc	7 7136 14                       @ ../Drivers/STM32L0xx_HAL_Driver/Src/stm32l0xx_hal_tim.c:7136:14
	ldr	r4, [r3, #32]
.Ltmp775:
	str	r4, [r3, #32]
.Ltmp776:
	.loc	7 2103 3                        @ ../Drivers/STM32L0xx_HAL_Driver/Src/stm32l0xx_hal_tim.c:2103:3
	ldr	r4, [r3, #32]
	ldr	r5, __arm_cp.41_0
.Ltmp777:
	.loc	7 2103 3 is_stmt 0              @ ../Drivers/STM32L0xx_HAL_Driver/Src/stm32l0xx_hal_tim.c:2103:3
	tst	r4, r5
	bne	.LBB41_2
.Ltmp778:
@ %bb.1:
	@DEBUG_VALUE: HAL_TIM_IC_Stop:Channel <- $r1
	@DEBUG_VALUE: HAL_TIM_IC_Stop:htim <- $r0
	.loc	7 2103 3                        @ ../Drivers/STM32L0xx_HAL_Driver/Src/stm32l0xx_hal_tim.c:2103:3
	ldr	r4, [r3]
	bics	r4, r2
	str	r4, [r3]
.Ltmp779:
.LBB41_2:
	@DEBUG_VALUE: HAL_TIM_IC_Stop:Channel <- $r1
	@DEBUG_VALUE: HAL_TIM_IC_Stop:htim <- $r0
	.loc	7 0 0                           @ ../Drivers/STM32L0xx_HAL_Driver/Src/stm32l0xx_hal_tim.c:0:0
	adds	r0, #58
.Ltmp780:
	@DEBUG_VALUE: HAL_TIM_IC_Stop:htim <- [DW_OP_LLVM_entry_value 1] $r0
	.loc	7 2106 3 is_stmt 1              @ ../Drivers/STM32L0xx_HAL_Driver/Src/stm32l0xx_hal_tim.c:2106:3
	cmp	r1, #8
	beq	.LBB41_6
.Ltmp781:
@ %bb.3:
	@DEBUG_VALUE: HAL_TIM_IC_Stop:htim <- [DW_OP_LLVM_entry_value 1] $r0
	@DEBUG_VALUE: HAL_TIM_IC_Stop:Channel <- $r1
	cmp	r1, #4
	beq	.LBB41_7
.Ltmp782:
@ %bb.4:
	@DEBUG_VALUE: HAL_TIM_IC_Stop:htim <- [DW_OP_LLVM_entry_value 1] $r0
	@DEBUG_VALUE: HAL_TIM_IC_Stop:Channel <- $r1
	cmp	r1, #0
	bne	.LBB41_8
.Ltmp783:
@ %bb.5:
	@DEBUG_VALUE: HAL_TIM_IC_Stop:htim <- [DW_OP_LLVM_entry_value 1] $r0
	@DEBUG_VALUE: HAL_TIM_IC_Stop:Channel <- $r1
	strb	r2, [r0]
	b	.LBB41_9
.Ltmp784:
.LBB41_6:
	@DEBUG_VALUE: HAL_TIM_IC_Stop:htim <- [DW_OP_LLVM_entry_value 1] $r0
	@DEBUG_VALUE: HAL_TIM_IC_Stop:Channel <- $r1
	strb	r2, [r0, #2]
	b	.LBB41_9
.Ltmp785:
.LBB41_7:
	@DEBUG_VALUE: HAL_TIM_IC_Stop:htim <- [DW_OP_LLVM_entry_value 1] $r0
	@DEBUG_VALUE: HAL_TIM_IC_Stop:Channel <- $r1
	strb	r2, [r0, #1]
	b	.LBB41_9
.Ltmp786:
.LBB41_8:
	@DEBUG_VALUE: HAL_TIM_IC_Stop:htim <- [DW_OP_LLVM_entry_value 1] $r0
	@DEBUG_VALUE: HAL_TIM_IC_Stop:Channel <- $r1
	strb	r2, [r0, #3]
.Ltmp787:
.LBB41_9:
	@DEBUG_VALUE: HAL_TIM_IC_Stop:htim <- [DW_OP_LLVM_entry_value 1] $r0
	@DEBUG_VALUE: HAL_TIM_IC_Stop:Channel <- $r1
	.loc	7 0 3 is_stmt 0                 @ ../Drivers/STM32L0xx_HAL_Driver/Src/stm32l0xx_hal_tim.c:0:3
	movs	r0, #0
	.loc	7 2109 3 is_stmt 1              @ ../Drivers/STM32L0xx_HAL_Driver/Src/stm32l0xx_hal_tim.c:2109:3
	pop	{r4, r5, r7, pc}
.Ltmp788:
	.p2align	2
@ %bb.10:
	.loc	7 0 3 is_stmt 0                 @ ../Drivers/STM32L0xx_HAL_Driver/Src/stm32l0xx_hal_tim.c:0:3
__arm_cp.41_0:
	.long	4369                            @ 0x1111
.Lcpi_end70:
	.size	__arm_cp.41_0, .Lcpi_end70-__arm_cp.41_0
.Lfunc_end41:
	.size	HAL_TIM_IC_Stop, .Lfunc_end41-HAL_TIM_IC_Stop
	.cfi_endproc
	.cantunwind
	.fnend
                                        @ -- End function
	.section	.text.HAL_TIM_IC_Start_IT,"ax",%progbits
	.hidden	HAL_TIM_IC_Start_IT             @ -- Begin function HAL_TIM_IC_Start_IT
	.globl	HAL_TIM_IC_Start_IT
	.p2align	2
	.type	HAL_TIM_IC_Start_IT,%function
	.code	16                              @ @HAL_TIM_IC_Start_IT
	.thumb_func
HAL_TIM_IC_Start_IT:
.Lfunc_begin42:
	.loc	7 2124 0 is_stmt 1              @ ../Drivers/STM32L0xx_HAL_Driver/Src/stm32l0xx_hal_tim.c:2124:0
	.fnstart
	.cfi_startproc
@ %bb.0:
	@DEBUG_VALUE: HAL_TIM_IC_Start_IT:htim <- $r0
	@DEBUG_VALUE: HAL_TIM_IC_Start_IT:Channel <- $r1
	.loc	7 0 0 is_stmt 0                 @ ../Drivers/STM32L0xx_HAL_Driver/Src/stm32l0xx_hal_tim.c:0:0
	mov	r2, r0
	adds	r2, #58
.Ltmp789:
	@DEBUG_VALUE: HAL_TIM_IC_Start_IT:status <- 0
	.loc	7 2128 47 prologue_end is_stmt 1 @ ../Drivers/STM32L0xx_HAL_Driver/Src/stm32l0xx_hal_tim.c:2128:47
	cmp	r1, #0
	beq	.LBB42_4
.Ltmp790:
@ %bb.1:
	@DEBUG_VALUE: HAL_TIM_IC_Start_IT:status <- 0
	@DEBUG_VALUE: HAL_TIM_IC_Start_IT:Channel <- $r1
	@DEBUG_VALUE: HAL_TIM_IC_Start_IT:htim <- $r0
	cmp	r1, #8
	beq	.LBB42_6
.Ltmp791:
@ %bb.2:
	@DEBUG_VALUE: HAL_TIM_IC_Start_IT:status <- 0
	@DEBUG_VALUE: HAL_TIM_IC_Start_IT:Channel <- $r1
	@DEBUG_VALUE: HAL_TIM_IC_Start_IT:htim <- $r0
	cmp	r1, #4
	bne	.LBB42_7
.Ltmp792:
@ %bb.3:
	@DEBUG_VALUE: HAL_TIM_IC_Start_IT:status <- 0
	@DEBUG_VALUE: HAL_TIM_IC_Start_IT:Channel <- $r1
	@DEBUG_VALUE: HAL_TIM_IC_Start_IT:htim <- $r0
	adds	r3, r2, #1
	b	.LBB42_8
.Ltmp793:
.LBB42_4:
	@DEBUG_VALUE: HAL_TIM_IC_Start_IT:status <- 0
	@DEBUG_VALUE: HAL_TIM_IC_Start_IT:Channel <- $r1
	@DEBUG_VALUE: HAL_TIM_IC_Start_IT:htim <- $r0
	ldrb	r3, [r2]
	.loc	7 2134 7                        @ ../Drivers/STM32L0xx_HAL_Driver/Src/stm32l0xx_hal_tim.c:2134:7
	cmp	r3, #1
	bne	.LBB42_18
.Ltmp794:
@ %bb.5:
	@DEBUG_VALUE: HAL_TIM_IC_Start_IT:status <- 0
	@DEBUG_VALUE: HAL_TIM_IC_Start_IT:Channel <- $r1
	@DEBUG_VALUE: HAL_TIM_IC_Start_IT:htim <- $r0
	.loc	7 0 7 is_stmt 0                 @ ../Drivers/STM32L0xx_HAL_Driver/Src/stm32l0xx_hal_tim.c:0:7
	movs	r3, #2
	.loc	7 2140 3 is_stmt 1              @ ../Drivers/STM32L0xx_HAL_Driver/Src/stm32l0xx_hal_tim.c:2140:3
	strb	r3, [r2]
	b	.LBB42_14
.Ltmp795:
.LBB42_6:
	@DEBUG_VALUE: HAL_TIM_IC_Start_IT:status <- 0
	@DEBUG_VALUE: HAL_TIM_IC_Start_IT:Channel <- $r1
	@DEBUG_VALUE: HAL_TIM_IC_Start_IT:htim <- $r0
	.loc	7 2128 47                       @ ../Drivers/STM32L0xx_HAL_Driver/Src/stm32l0xx_hal_tim.c:2128:47
	adds	r3, r2, #2
	b	.LBB42_8
.Ltmp796:
.LBB42_7:
	@DEBUG_VALUE: HAL_TIM_IC_Start_IT:status <- 0
	@DEBUG_VALUE: HAL_TIM_IC_Start_IT:Channel <- $r1
	@DEBUG_VALUE: HAL_TIM_IC_Start_IT:htim <- $r0
	adds	r3, r2, #3
.Ltmp797:
.LBB42_8:
	@DEBUG_VALUE: HAL_TIM_IC_Start_IT:status <- 0
	@DEBUG_VALUE: HAL_TIM_IC_Start_IT:Channel <- $r1
	@DEBUG_VALUE: HAL_TIM_IC_Start_IT:htim <- $r0
	ldrb	r3, [r3]
.Ltmp798:
	@DEBUG_VALUE: HAL_TIM_IC_Start_IT:channel_state <- $r3
	.loc	7 2134 7                        @ ../Drivers/STM32L0xx_HAL_Driver/Src/stm32l0xx_hal_tim.c:2134:7
	cmp	r3, #1
	bne	.LBB42_18
.Ltmp799:
@ %bb.9:
	@DEBUG_VALUE: HAL_TIM_IC_Start_IT:channel_state <- $r3
	@DEBUG_VALUE: HAL_TIM_IC_Start_IT:status <- 0
	@DEBUG_VALUE: HAL_TIM_IC_Start_IT:Channel <- $r1
	@DEBUG_VALUE: HAL_TIM_IC_Start_IT:htim <- $r0
	.loc	7 0 7 is_stmt 0                 @ ../Drivers/STM32L0xx_HAL_Driver/Src/stm32l0xx_hal_tim.c:0:7
	movs	r3, #2
.Ltmp800:
	.loc	7 2140 3 is_stmt 1              @ ../Drivers/STM32L0xx_HAL_Driver/Src/stm32l0xx_hal_tim.c:2140:3
	cmp	r1, #8
	beq	.LBB42_12
.Ltmp801:
@ %bb.10:
	@DEBUG_VALUE: HAL_TIM_IC_Start_IT:status <- 0
	@DEBUG_VALUE: HAL_TIM_IC_Start_IT:Channel <- $r1
	@DEBUG_VALUE: HAL_TIM_IC_Start_IT:htim <- $r0
	cmp	r1, #4
	bne	.LBB42_13
.Ltmp802:
@ %bb.11:
	@DEBUG_VALUE: HAL_TIM_IC_Start_IT:status <- 0
	@DEBUG_VALUE: HAL_TIM_IC_Start_IT:Channel <- $r1
	@DEBUG_VALUE: HAL_TIM_IC_Start_IT:htim <- $r0
	strb	r3, [r2, #1]
	b	.LBB42_14
.Ltmp803:
.LBB42_12:
	@DEBUG_VALUE: HAL_TIM_IC_Start_IT:status <- 0
	@DEBUG_VALUE: HAL_TIM_IC_Start_IT:Channel <- $r1
	@DEBUG_VALUE: HAL_TIM_IC_Start_IT:htim <- $r0
	strb	r3, [r2, #2]
	b	.LBB42_14
.Ltmp804:
.LBB42_13:
	@DEBUG_VALUE: HAL_TIM_IC_Start_IT:status <- 0
	@DEBUG_VALUE: HAL_TIM_IC_Start_IT:Channel <- $r1
	@DEBUG_VALUE: HAL_TIM_IC_Start_IT:htim <- $r0
	strb	r3, [r2, #3]
.Ltmp805:
.LBB42_14:
	@DEBUG_VALUE: HAL_TIM_IC_Start_IT:status <- 0
	@DEBUG_VALUE: HAL_TIM_IC_Start_IT:Channel <- $r1
	@DEBUG_VALUE: HAL_TIM_IC_Start_IT:htim <- $r0
	.loc	7 0 3 is_stmt 0                 @ ../Drivers/STM32L0xx_HAL_Driver/Src/stm32l0xx_hal_tim.c:0:3
	movs	r3, #2
	.loc	7 2142 3 is_stmt 1              @ ../Drivers/STM32L0xx_HAL_Driver/Src/stm32l0xx_hal_tim.c:2142:3
	mov	r2, r1
	rors	r2, r3
	cmp	r2, #3
	bhi	.LBB42_18
.Ltmp806:
@ %bb.15:
	@DEBUG_VALUE: HAL_TIM_IC_Start_IT:status <- 0
	@DEBUG_VALUE: HAL_TIM_IC_Start_IT:Channel <- $r1
	@DEBUG_VALUE: HAL_TIM_IC_Start_IT:htim <- $r0
	lsls	r2, r2, #2
	ldr	r3, __arm_cp.42_0
	ldr	r2, [r3, r2]
.Ltmp807:
	.loc	7 0 0 is_stmt 0                 @ ../Drivers/STM32L0xx_HAL_Driver/Src/stm32l0xx_hal_tim.c:0:0
	ldr	r0, [r0]
.Ltmp808:
	@DEBUG_VALUE: HAL_TIM_IC_Start_IT:htim <- [DW_OP_LLVM_entry_value 1] $r0
	ldr	r3, [r0, #12]
	orrs	r3, r2
	str	r3, [r0, #12]
	movs	r2, #31
.Ltmp809:
	@DEBUG_VALUE: TIM_CCxChannelCmd:ChannelState <- 1
	@DEBUG_VALUE: TIM_CCxChannelCmd:Channel <- $r1
	@DEBUG_VALUE: TIM_CCxChannelCmd:TIMx <- $r0
	@DEBUG_VALUE: HAL_TIM_IC_Start_IT:status <- undef
	.loc	7 7130 35 is_stmt 1             @ ../Drivers/STM32L0xx_HAL_Driver/Src/stm32l0xx_hal_tim.c:7130:35
	ands	r1, r2
.Ltmp810:
	@DEBUG_VALUE: HAL_TIM_IC_Start_IT:Channel <- [DW_OP_LLVM_entry_value 1] $r1
	.loc	7 0 35 is_stmt 0                @ ../Drivers/STM32L0xx_HAL_Driver/Src/stm32l0xx_hal_tim.c:0:35
	movs	r2, #1
	.loc	7 7130 23                       @ ../Drivers/STM32L0xx_HAL_Driver/Src/stm32l0xx_hal_tim.c:7130:23
	mov	r3, r2
	lsls	r3, r1
.Ltmp811:
	@DEBUG_VALUE: TIM_CCxChannelCmd:tmp <- $r3
	.loc	7 7133 14 is_stmt 1             @ ../Drivers/STM32L0xx_HAL_Driver/Src/stm32l0xx_hal_tim.c:7133:14
	ldr	r1, [r0, #32]
	bics	r1, r3
	str	r1, [r0, #32]
	.loc	7 7136 14                       @ ../Drivers/STM32L0xx_HAL_Driver/Src/stm32l0xx_hal_tim.c:7136:14
	ldr	r1, [r0, #32]
	orrs	r1, r3
	str	r1, [r0, #32]
	ldr	r1, __arm_cp.42_1
.Ltmp812:
	.loc	7 2183 9                        @ ../Drivers/STM32L0xx_HAL_Driver/Src/stm32l0xx_hal_tim.c:2183:9
	cmp	r0, r1
	bgt	.LBB42_19
.Ltmp813:
@ %bb.16:
	@DEBUG_VALUE: HAL_TIM_IC_Start_IT:Channel <- [DW_OP_LLVM_entry_value 1] $r1
	@DEBUG_VALUE: HAL_TIM_IC_Start_IT:htim <- [DW_OP_LLVM_entry_value 1] $r0
	.loc	7 0 9 is_stmt 0                 @ ../Drivers/STM32L0xx_HAL_Driver/Src/stm32l0xx_hal_tim.c:0:9
	lsls	r1, r2, #30
	.loc	7 2183 9                        @ ../Drivers/STM32L0xx_HAL_Driver/Src/stm32l0xx_hal_tim.c:2183:9
	cmp	r0, r1
	beq	.LBB42_22
.Ltmp814:
@ %bb.17:
	@DEBUG_VALUE: HAL_TIM_IC_Start_IT:Channel <- [DW_OP_LLVM_entry_value 1] $r1
	@DEBUG_VALUE: HAL_TIM_IC_Start_IT:htim <- [DW_OP_LLVM_entry_value 1] $r0
	.loc	7 0 9                           @ ../Drivers/STM32L0xx_HAL_Driver/Src/stm32l0xx_hal_tim.c:0:9
	ldr	r1, __arm_cp.42_4
	b	.LBB42_21
.Ltmp815:
.LBB42_18:
	@DEBUG_VALUE: HAL_TIM_IC_Start_IT:status <- 0
	@DEBUG_VALUE: HAL_TIM_IC_Start_IT:Channel <- $r1
	@DEBUG_VALUE: HAL_TIM_IC_Start_IT:htim <- $r0
	movs	r0, #1
.Ltmp816:
	@DEBUG_VALUE: HAL_TIM_IC_Start_IT:htim <- [DW_OP_LLVM_entry_value 1] $r0
	.loc	7 2199 1 is_stmt 1              @ ../Drivers/STM32L0xx_HAL_Driver/Src/stm32l0xx_hal_tim.c:2199:1
	bx	lr
.Ltmp817:
.LBB42_19:
	@DEBUG_VALUE: HAL_TIM_IC_Start_IT:Channel <- [DW_OP_LLVM_entry_value 1] $r1
	@DEBUG_VALUE: HAL_TIM_IC_Start_IT:htim <- [DW_OP_LLVM_entry_value 1] $r0
	.loc	7 0 1 is_stmt 0                 @ ../Drivers/STM32L0xx_HAL_Driver/Src/stm32l0xx_hal_tim.c:0:1
	ldr	r1, __arm_cp.42_2
.Ltmp818:
	.loc	7 2183 9 is_stmt 1              @ ../Drivers/STM32L0xx_HAL_Driver/Src/stm32l0xx_hal_tim.c:2183:9
	cmp	r0, r1
	beq	.LBB42_22
.Ltmp819:
@ %bb.20:
	@DEBUG_VALUE: HAL_TIM_IC_Start_IT:Channel <- [DW_OP_LLVM_entry_value 1] $r1
	@DEBUG_VALUE: HAL_TIM_IC_Start_IT:htim <- [DW_OP_LLVM_entry_value 1] $r0
	.loc	7 0 9 is_stmt 0                 @ ../Drivers/STM32L0xx_HAL_Driver/Src/stm32l0xx_hal_tim.c:0:9
	ldr	r1, __arm_cp.42_3
.Ltmp820:
.LBB42_21:
	@DEBUG_VALUE: HAL_TIM_IC_Start_IT:Channel <- [DW_OP_LLVM_entry_value 1] $r1
	@DEBUG_VALUE: HAL_TIM_IC_Start_IT:htim <- [DW_OP_LLVM_entry_value 1] $r0
	.loc	7 2183 9                        @ ../Drivers/STM32L0xx_HAL_Driver/Src/stm32l0xx_hal_tim.c:2183:9
	cmp	r0, r1
	bne	.LBB42_23
.Ltmp821:
.LBB42_22:
	@DEBUG_VALUE: HAL_TIM_IC_Start_IT:Channel <- [DW_OP_LLVM_entry_value 1] $r1
	@DEBUG_VALUE: HAL_TIM_IC_Start_IT:htim <- [DW_OP_LLVM_entry_value 1] $r0
	.loc	7 2185 33 is_stmt 1             @ ../Drivers/STM32L0xx_HAL_Driver/Src/stm32l0xx_hal_tim.c:2185:33
	ldr	r1, [r0, #8]
	movs	r3, #7
	.loc	7 2185 38 is_stmt 0             @ ../Drivers/STM32L0xx_HAL_Driver/Src/stm32l0xx_hal_tim.c:2185:38
	ands	r3, r1
.Ltmp822:
	@DEBUG_VALUE: HAL_TIM_IC_Start_IT:tmpsmcr <- $r3
	.loc	7 2186 11 is_stmt 1             @ ../Drivers/STM32L0xx_HAL_Driver/Src/stm32l0xx_hal_tim.c:2186:11
	cmp	r3, #6
	beq	.LBB42_24
.Ltmp823:
.LBB42_23:
	@DEBUG_VALUE: HAL_TIM_IC_Start_IT:Channel <- [DW_OP_LLVM_entry_value 1] $r1
	@DEBUG_VALUE: HAL_TIM_IC_Start_IT:htim <- [DW_OP_LLVM_entry_value 1] $r0
	.loc	7 0 0 is_stmt 0                 @ ../Drivers/STM32L0xx_HAL_Driver/Src/stm32l0xx_hal_tim.c:0:0
	ldr	r1, [r0]
	orrs	r1, r2
	str	r1, [r0]
.Ltmp824:
.LBB42_24:
	@DEBUG_VALUE: HAL_TIM_IC_Start_IT:Channel <- [DW_OP_LLVM_entry_value 1] $r1
	@DEBUG_VALUE: HAL_TIM_IC_Start_IT:htim <- [DW_OP_LLVM_entry_value 1] $r0
	movs	r0, #0
	.loc	7 2199 1 is_stmt 1              @ ../Drivers/STM32L0xx_HAL_Driver/Src/stm32l0xx_hal_tim.c:2199:1
	bx	lr
.Ltmp825:
	.p2align	2
@ %bb.25:
	.loc	7 0 1 is_stmt 0                 @ ../Drivers/STM32L0xx_HAL_Driver/Src/stm32l0xx_hal_tim.c:0:1
__arm_cp.42_0:
	.long	.Lswitch.table.HAL_TIM_IC_Start_IT
.Lcpi_end71:
	.size	__arm_cp.42_0, .Lcpi_end71-__arm_cp.42_0
__arm_cp.42_1:
	.long	1073809407                      @ 0x400107ff
.Lcpi_end72:
	.size	__arm_cp.42_1, .Lcpi_end72-__arm_cp.42_1
__arm_cp.42_2:
	.long	1073812480                      @ 0x40011400
.Lcpi_end73:
	.size	__arm_cp.42_2, .Lcpi_end73-__arm_cp.42_2
__arm_cp.42_3:
	.long	1073809408                      @ 0x40010800
.Lcpi_end74:
	.size	__arm_cp.42_3, .Lcpi_end74-__arm_cp.42_3
__arm_cp.42_4:
	.long	1073742848                      @ 0x40000400
.Lcpi_end75:
	.size	__arm_cp.42_4, .Lcpi_end75-__arm_cp.42_4
.Lfunc_end42:
	.size	HAL_TIM_IC_Start_IT, .Lfunc_end42-HAL_TIM_IC_Start_IT
	.cfi_endproc
	.cantunwind
	.fnend
                                        @ -- End function
	.section	.text.HAL_TIM_IC_Stop_IT,"ax",%progbits
	.hidden	HAL_TIM_IC_Stop_IT              @ -- Begin function HAL_TIM_IC_Stop_IT
	.globl	HAL_TIM_IC_Stop_IT
	.p2align	2
	.type	HAL_TIM_IC_Stop_IT,%function
	.code	16                              @ @HAL_TIM_IC_Stop_IT
	.thumb_func
HAL_TIM_IC_Stop_IT:
.Lfunc_begin43:
	.loc	7 2213 0 is_stmt 1              @ ../Drivers/STM32L0xx_HAL_Driver/Src/stm32l0xx_hal_tim.c:2213:0
	.fnstart
	.cfi_startproc
@ %bb.0:
	@DEBUG_VALUE: HAL_TIM_IC_Stop_IT:htim <- $r0
	@DEBUG_VALUE: HAL_TIM_IC_Stop_IT:Channel <- $r1
	.save	{r4, r5, r7, lr}
	push	{r4, r5, r7, lr}
	.cfi_def_cfa_offset 16
	.cfi_offset lr, -4
	.cfi_offset r7, -8
	.cfi_offset r5, -12
	.cfi_offset r4, -16
	movs	r3, #2
.Ltmp826:
	@DEBUG_VALUE: HAL_TIM_IC_Stop_IT:status <- 0
	.loc	7 2219 3 prologue_end           @ ../Drivers/STM32L0xx_HAL_Driver/Src/stm32l0xx_hal_tim.c:2219:3
	mov	r2, r1
	rors	r2, r3
	cmp	r2, #3
	bhi	.LBB43_7
.Ltmp827:
@ %bb.1:
	@DEBUG_VALUE: HAL_TIM_IC_Stop_IT:status <- 0
	@DEBUG_VALUE: HAL_TIM_IC_Stop_IT:Channel <- $r1
	@DEBUG_VALUE: HAL_TIM_IC_Stop_IT:htim <- $r0
	lsls	r2, r2, #2
	ldr	r3, __arm_cp.43_0
	ldr	r2, [r3, r2]
.Ltmp828:
	.loc	7 0 0 is_stmt 0                 @ ../Drivers/STM32L0xx_HAL_Driver/Src/stm32l0xx_hal_tim.c:0:0
	ldr	r3, [r0]
	ldr	r4, [r3, #12]
	ands	r4, r2
	str	r4, [r3, #12]
	movs	r4, #31
.Ltmp829:
	@DEBUG_VALUE: TIM_CCxChannelCmd:ChannelState <- 0
	@DEBUG_VALUE: TIM_CCxChannelCmd:Channel <- $r1
	@DEBUG_VALUE: TIM_CCxChannelCmd:TIMx <- $r3
	@DEBUG_VALUE: HAL_TIM_IC_Stop_IT:status <- undef
	.loc	7 7130 35 is_stmt 1             @ ../Drivers/STM32L0xx_HAL_Driver/Src/stm32l0xx_hal_tim.c:7130:35
	ands	r4, r1
	movs	r2, #1
	.loc	7 7130 23 is_stmt 0             @ ../Drivers/STM32L0xx_HAL_Driver/Src/stm32l0xx_hal_tim.c:7130:23
	mov	r5, r2
	lsls	r5, r4
.Ltmp830:
	@DEBUG_VALUE: TIM_CCxChannelCmd:tmp <- $r5
	.loc	7 7133 14 is_stmt 1             @ ../Drivers/STM32L0xx_HAL_Driver/Src/stm32l0xx_hal_tim.c:7133:14
	ldr	r4, [r3, #32]
	bics	r4, r5
	str	r4, [r3, #32]
	.loc	7 7136 14                       @ ../Drivers/STM32L0xx_HAL_Driver/Src/stm32l0xx_hal_tim.c:7136:14
	ldr	r4, [r3, #32]
	str	r4, [r3, #32]
.Ltmp831:
	.loc	7 2260 5                        @ ../Drivers/STM32L0xx_HAL_Driver/Src/stm32l0xx_hal_tim.c:2260:5
	ldr	r4, [r3, #32]
	ldr	r5, __arm_cp.43_1
.Ltmp832:
	.loc	7 2260 5 is_stmt 0              @ ../Drivers/STM32L0xx_HAL_Driver/Src/stm32l0xx_hal_tim.c:2260:5
	tst	r4, r5
	bne	.LBB43_3
.Ltmp833:
@ %bb.2:
	@DEBUG_VALUE: HAL_TIM_IC_Stop_IT:Channel <- $r1
	@DEBUG_VALUE: HAL_TIM_IC_Stop_IT:htim <- $r0
	.loc	7 2260 5                        @ ../Drivers/STM32L0xx_HAL_Driver/Src/stm32l0xx_hal_tim.c:2260:5
	ldr	r4, [r3]
	bics	r4, r2
	str	r4, [r3]
.Ltmp834:
.LBB43_3:
	@DEBUG_VALUE: HAL_TIM_IC_Stop_IT:Channel <- $r1
	@DEBUG_VALUE: HAL_TIM_IC_Stop_IT:htim <- $r0
	.loc	7 0 0                           @ ../Drivers/STM32L0xx_HAL_Driver/Src/stm32l0xx_hal_tim.c:0:0
	adds	r0, #58
.Ltmp835:
	@DEBUG_VALUE: HAL_TIM_IC_Stop_IT:htim <- [DW_OP_LLVM_entry_value 1] $r0
	.loc	7 2263 5 is_stmt 1              @ ../Drivers/STM32L0xx_HAL_Driver/Src/stm32l0xx_hal_tim.c:2263:5
	cmp	r1, #8
	beq	.LBB43_8
.Ltmp836:
@ %bb.4:
	@DEBUG_VALUE: HAL_TIM_IC_Stop_IT:htim <- [DW_OP_LLVM_entry_value 1] $r0
	@DEBUG_VALUE: HAL_TIM_IC_Stop_IT:Channel <- $r1
	cmp	r1, #4
	beq	.LBB43_9
.Ltmp837:
@ %bb.5:
	@DEBUG_VALUE: HAL_TIM_IC_Stop_IT:htim <- [DW_OP_LLVM_entry_value 1] $r0
	@DEBUG_VALUE: HAL_TIM_IC_Stop_IT:Channel <- $r1
	cmp	r1, #0
	bne	.LBB43_10
.Ltmp838:
@ %bb.6:
	@DEBUG_VALUE: HAL_TIM_IC_Stop_IT:htim <- [DW_OP_LLVM_entry_value 1] $r0
	@DEBUG_VALUE: HAL_TIM_IC_Stop_IT:Channel <- $r1
	strb	r2, [r0]
	b	.LBB43_11
.Ltmp839:
.LBB43_7:
	@DEBUG_VALUE: HAL_TIM_IC_Stop_IT:status <- 0
	@DEBUG_VALUE: HAL_TIM_IC_Stop_IT:Channel <- $r1
	@DEBUG_VALUE: HAL_TIM_IC_Stop_IT:htim <- $r0
	.loc	7 0 5 is_stmt 0                 @ ../Drivers/STM32L0xx_HAL_Driver/Src/stm32l0xx_hal_tim.c:0:5
	movs	r0, #1
.Ltmp840:
	@DEBUG_VALUE: HAL_TIM_IC_Stop_IT:htim <- [DW_OP_LLVM_entry_value 1] $r0
	.loc	7 2267 3 is_stmt 1              @ ../Drivers/STM32L0xx_HAL_Driver/Src/stm32l0xx_hal_tim.c:2267:3
	pop	{r4, r5, r7, pc}
.Ltmp841:
.LBB43_8:
	@DEBUG_VALUE: HAL_TIM_IC_Stop_IT:htim <- [DW_OP_LLVM_entry_value 1] $r0
	@DEBUG_VALUE: HAL_TIM_IC_Stop_IT:Channel <- $r1
	.loc	7 2263 5                        @ ../Drivers/STM32L0xx_HAL_Driver/Src/stm32l0xx_hal_tim.c:2263:5
	strb	r2, [r0, #2]
	b	.LBB43_11
.Ltmp842:
.LBB43_9:
	@DEBUG_VALUE: HAL_TIM_IC_Stop_IT:htim <- [DW_OP_LLVM_entry_value 1] $r0
	@DEBUG_VALUE: HAL_TIM_IC_Stop_IT:Channel <- $r1
	strb	r2, [r0, #1]
	b	.LBB43_11
.Ltmp843:
.LBB43_10:
	@DEBUG_VALUE: HAL_TIM_IC_Stop_IT:htim <- [DW_OP_LLVM_entry_value 1] $r0
	@DEBUG_VALUE: HAL_TIM_IC_Stop_IT:Channel <- $r1
	strb	r2, [r0, #3]
.Ltmp844:
.LBB43_11:
	@DEBUG_VALUE: HAL_TIM_IC_Stop_IT:htim <- [DW_OP_LLVM_entry_value 1] $r0
	@DEBUG_VALUE: HAL_TIM_IC_Stop_IT:Channel <- $r1
	.loc	7 0 5 is_stmt 0                 @ ../Drivers/STM32L0xx_HAL_Driver/Src/stm32l0xx_hal_tim.c:0:5
	movs	r0, #0
	.loc	7 2267 3 is_stmt 1              @ ../Drivers/STM32L0xx_HAL_Driver/Src/stm32l0xx_hal_tim.c:2267:3
	pop	{r4, r5, r7, pc}
.Ltmp845:
	.p2align	2
@ %bb.12:
	.loc	7 0 3 is_stmt 0                 @ ../Drivers/STM32L0xx_HAL_Driver/Src/stm32l0xx_hal_tim.c:0:3
__arm_cp.43_0:
	.long	.Lswitch.table.HAL_TIM_IC_Stop_IT
.Lcpi_end76:
	.size	__arm_cp.43_0, .Lcpi_end76-__arm_cp.43_0
__arm_cp.43_1:
	.long	4369                            @ 0x1111
.Lcpi_end77:
	.size	__arm_cp.43_1, .Lcpi_end77-__arm_cp.43_1
.Lfunc_end43:
	.size	HAL_TIM_IC_Stop_IT, .Lfunc_end43-HAL_TIM_IC_Stop_IT
	.cfi_endproc
	.cantunwind
	.fnend
                                        @ -- End function
	.section	.text.HAL_TIM_IC_Start_DMA,"ax",%progbits
	.hidden	HAL_TIM_IC_Start_DMA            @ -- Begin function HAL_TIM_IC_Start_DMA
	.globl	HAL_TIM_IC_Start_DMA
	.p2align	2
	.type	HAL_TIM_IC_Start_DMA,%function
	.code	16                              @ @HAL_TIM_IC_Start_DMA
	.thumb_func
HAL_TIM_IC_Start_DMA:
.Lfunc_begin44:
	.loc	7 2284 0 is_stmt 1              @ ../Drivers/STM32L0xx_HAL_Driver/Src/stm32l0xx_hal_tim.c:2284:0
	.fnstart
	.cfi_startproc
@ %bb.0:
	@DEBUG_VALUE: HAL_TIM_IC_Start_DMA:htim <- $r0
	@DEBUG_VALUE: HAL_TIM_IC_Start_DMA:Channel <- $r1
	@DEBUG_VALUE: HAL_TIM_IC_Start_DMA:pData <- $r2
	@DEBUG_VALUE: HAL_TIM_IC_Start_DMA:Length <- $r3
	.save	{r4, r5, r6, r7, lr}
	push	{r4, r5, r6, r7, lr}
	.cfi_def_cfa_offset 20
	.cfi_offset lr, -4
	.cfi_offset r7, -8
	.cfi_offset r6, -12
	.cfi_offset r5, -16
	.cfi_offset r4, -20
	.pad	#4
	sub	sp, #4
	.cfi_def_cfa_offset 24
	mov	r5, r1
.Ltmp846:
	@DEBUG_VALUE: HAL_TIM_IC_Start_DMA:Channel <- $r5
	mov	r4, r0
.Ltmp847:
	@DEBUG_VALUE: HAL_TIM_IC_Start_DMA:htim <- $r4
	.loc	7 0 0 is_stmt 0                 @ ../Drivers/STM32L0xx_HAL_Driver/Src/stm32l0xx_hal_tim.c:0:0
	mov	r1, r0
	adds	r1, #58
.Ltmp848:
	@DEBUG_VALUE: HAL_TIM_IC_Start_DMA:status <- 0
	.loc	7 2288 47 prologue_end is_stmt 1 @ ../Drivers/STM32L0xx_HAL_Driver/Src/stm32l0xx_hal_tim.c:2288:47
	cmp	r5, #0
	mov	r0, r1
	beq	.LBB44_6
.Ltmp849:
@ %bb.1:
	@DEBUG_VALUE: HAL_TIM_IC_Start_DMA:status <- 0
	@DEBUG_VALUE: HAL_TIM_IC_Start_DMA:htim <- $r4
	@DEBUG_VALUE: HAL_TIM_IC_Start_DMA:Channel <- $r5
	@DEBUG_VALUE: HAL_TIM_IC_Start_DMA:Length <- $r3
	@DEBUG_VALUE: HAL_TIM_IC_Start_DMA:pData <- $r2
	cmp	r5, #8
	beq	.LBB44_4
.Ltmp850:
@ %bb.2:
	@DEBUG_VALUE: HAL_TIM_IC_Start_DMA:status <- 0
	@DEBUG_VALUE: HAL_TIM_IC_Start_DMA:htim <- $r4
	@DEBUG_VALUE: HAL_TIM_IC_Start_DMA:Channel <- $r5
	@DEBUG_VALUE: HAL_TIM_IC_Start_DMA:Length <- $r3
