	.text
	.syntax unified
	.eabi_attribute	67, "2.09"	@ Tag_conformance
	.cpu	cortex-m0plus
	.eabi_attribute	6, 12	@ Tag_CPU_arch
	.eabi_attribute	7, 77	@ Tag_CPU_arch_profile
	.eabi_attribute	8, 0	@ Tag_ARM_ISA_use
	.eabi_attribute	9, 1	@ Tag_THUMB_ISA_use
	.eabi_attribute	34, 0	@ Tag_CPU_unaligned_access
	.eabi_attribute	17, 1	@ Tag_ABI_PCS_GOT_use
	.eabi_attribute	20, 2	@ Tag_ABI_FP_denormal
	.eabi_attribute	21, 0	@ Tag_ABI_FP_exceptions
	.eabi_attribute	23, 1	@ Tag_ABI_FP_number_model
	.eabi_attribute	24, 1	@ Tag_ABI_align_needed
	.eabi_attribute	25, 1	@ Tag_ABI_align_preserved
	.eabi_attribute	38, 1	@ Tag_ABI_FP_16bit_format
	.eabi_attribute	18, 2	@ Tag_ABI_PCS_wchar_t
	.eabi_attribute	26, 1	@ Tag_ABI_enum_size
	.eabi_attribute	14, 0	@ Tag_ABI_PCS_R9_use
	.file	"stm32l0xx_hal_exti.c"
	.file	1 "C:\\Users\\ignas\\Downloads\\V2\\V2\\MDK-ARM" "../Drivers/STM32L0xx_HAL_Driver/Inc/stm32l0xx_hal_def.h"
	.file	2 "C:\\Users\\ignas\\Downloads\\V2\\V2\\MDK-ARM" "../Drivers/STM32L0xx_HAL_Driver/Inc\\stm32l0xx_hal_exti.h"
	.file	3 "C:\\Keil_v5\\ARM\\ARMCLANG\\Bin\\..\\include" "stdint.h"
	.file	4 "C:\\Users\\ignas\\Downloads\\V2\\V2\\MDK-ARM" "../Drivers/CMSIS/Device/ST/STM32L0xx/Include/stm32l073xx.h"
	.section	.text.HAL_EXTI_SetConfigLine,"ax",%progbits
	.hidden	HAL_EXTI_SetConfigLine          @ -- Begin function HAL_EXTI_SetConfigLine
	.globl	HAL_EXTI_SetConfigLine
	.p2align	2
	.type	HAL_EXTI_SetConfigLine,%function
	.code	16                              @ @HAL_EXTI_SetConfigLine
	.thumb_func
HAL_EXTI_SetConfigLine:
.Lfunc_begin0:
	.file	5 "C:\\Users\\ignas\\Downloads\\V2\\V2\\MDK-ARM" "../Drivers/STM32L0xx_HAL_Driver/Src/stm32l0xx_hal_exti.c"
	.loc	5 143 0                         @ ../Drivers/STM32L0xx_HAL_Driver/Src/stm32l0xx_hal_exti.c:143:0
	.fnstart
	.cfi_sections .debug_frame
	.cfi_startproc
@ %bb.0:
	@DEBUG_VALUE: HAL_EXTI_SetConfigLine:hexti <- $r0
	@DEBUG_VALUE: HAL_EXTI_SetConfigLine:pExtiConfig <- $r1
	.save	{r4, r5, r6, r7, lr}
	push	{r4, r5, r6, r7, lr}
	.cfi_def_cfa_offset 20
	.cfi_offset lr, -4
	.cfi_offset r7, -8
	.cfi_offset r6, -12
	.cfi_offset r5, -16
	.cfi_offset r4, -20
	mov	r2, r0
.Ltmp0:
	@DEBUG_VALUE: HAL_EXTI_SetConfigLine:hexti <- $r2
	movs	r0, #1
.Ltmp1:
	.loc	5 149 23 prologue_end           @ ../Drivers/STM32L0xx_HAL_Driver/Src/stm32l0xx_hal_exti.c:149:23
	cmp	r2, #0
	beq	.LBB0_18
.Ltmp2:
@ %bb.1:
	@DEBUG_VALUE: HAL_EXTI_SetConfigLine:hexti <- $r2
	@DEBUG_VALUE: HAL_EXTI_SetConfigLine:pExtiConfig <- $r1
	cmp	r1, #0
	beq	.LBB0_18
.Ltmp3:
@ %bb.2:
	@DEBUG_VALUE: HAL_EXTI_SetConfigLine:hexti <- $r2
	@DEBUG_VALUE: HAL_EXTI_SetConfigLine:pExtiConfig <- $r1
	.loc	5 159 30                        @ ../Drivers/STM32L0xx_HAL_Driver/Src/stm32l0xx_hal_exti.c:159:30
	ldr	r4, [r1]
	.loc	5 159 15 is_stmt 0              @ ../Drivers/STM32L0xx_HAL_Driver/Src/stm32l0xx_hal_exti.c:159:15
	str	r4, [r2]
	movs	r3, #31
	.loc	5 162 32 is_stmt 1              @ ../Drivers/STM32L0xx_HAL_Driver/Src/stm32l0xx_hal_exti.c:162:32
	ands	r3, r4
.Ltmp4:
	@DEBUG_VALUE: HAL_EXTI_SetConfigLine:linepos <- $r3
	.loc	5 0 32 is_stmt 0                @ ../Drivers/STM32L0xx_HAL_Driver/Src/stm32l0xx_hal_exti.c:0:32
	movs	r2, #1
.Ltmp5:
	.loc	5 163 19 is_stmt 1              @ ../Drivers/STM32L0xx_HAL_Driver/Src/stm32l0xx_hal_exti.c:163:19
	lsls	r2, r3
.Ltmp6:
	@DEBUG_VALUE: HAL_EXTI_SetConfigLine:maskline <- $r2
	.loc	5 166 7                         @ ../Drivers/STM32L0xx_HAL_Driver/Src/stm32l0xx_hal_exti.c:166:7
	lsls	r0, r4, #6
	ldr	r0, __arm_cp.0_0
	bpl	.LBB0_11
.Ltmp7:
@ %bb.3:
	@DEBUG_VALUE: HAL_EXTI_SetConfigLine:maskline <- $r2
	@DEBUG_VALUE: HAL_EXTI_SetConfigLine:linepos <- $r3
	@DEBUG_VALUE: HAL_EXTI_SetConfigLine:pExtiConfig <- $r1
	.loc	5 172 23                        @ ../Drivers/STM32L0xx_HAL_Driver/Src/stm32l0xx_hal_exti.c:172:23
	ldr	r5, [r1, #8]
.Ltmp8:
	.loc	5 172 9 is_stmt 0               @ ../Drivers/STM32L0xx_HAL_Driver/Src/stm32l0xx_hal_exti.c:172:9
	lsls	r6, r5, #31
	bne	.LBB0_5
.Ltmp9:
@ %bb.4:
	@DEBUG_VALUE: HAL_EXTI_SetConfigLine:maskline <- $r2
	@DEBUG_VALUE: HAL_EXTI_SetConfigLine:linepos <- $r3
	@DEBUG_VALUE: HAL_EXTI_SetConfigLine:pExtiConfig <- $r1
	.loc	5 178 18 is_stmt 1              @ ../Drivers/STM32L0xx_HAL_Driver/Src/stm32l0xx_hal_exti.c:178:18
	ldr	r6, [r0, #8]
	bics	r6, r2
	b	.LBB0_6
.Ltmp10:
.LBB0_5:
	@DEBUG_VALUE: HAL_EXTI_SetConfigLine:maskline <- $r2
	@DEBUG_VALUE: HAL_EXTI_SetConfigLine:linepos <- $r3
	@DEBUG_VALUE: HAL_EXTI_SetConfigLine:pExtiConfig <- $r1
	.loc	5 174 18                        @ ../Drivers/STM32L0xx_HAL_Driver/Src/stm32l0xx_hal_exti.c:174:18
	ldr	r6, [r0, #8]
	orrs	r6, r2
.Ltmp11:
.LBB0_6:
	@DEBUG_VALUE: HAL_EXTI_SetConfigLine:maskline <- $r2
	@DEBUG_VALUE: HAL_EXTI_SetConfigLine:linepos <- $r3
	@DEBUG_VALUE: HAL_EXTI_SetConfigLine:pExtiConfig <- $r1
	.loc	5 0 0 is_stmt 0                 @ ../Drivers/STM32L0xx_HAL_Driver/Src/stm32l0xx_hal_exti.c:0:0
	str	r6, [r0, #8]
.Ltmp12:
	.loc	5 183 9 is_stmt 1               @ ../Drivers/STM32L0xx_HAL_Driver/Src/stm32l0xx_hal_exti.c:183:9
	lsls	r5, r5, #30
	bmi	.LBB0_8
.Ltmp13:
@ %bb.7:
	@DEBUG_VALUE: HAL_EXTI_SetConfigLine:maskline <- $r2
	@DEBUG_VALUE: HAL_EXTI_SetConfigLine:linepos <- $r3
	@DEBUG_VALUE: HAL_EXTI_SetConfigLine:pExtiConfig <- $r1
	.loc	5 189 18                        @ ../Drivers/STM32L0xx_HAL_Driver/Src/stm32l0xx_hal_exti.c:189:18
	ldr	r5, [r0, #12]
	bics	r5, r2
	b	.LBB0_9
.Ltmp14:
.LBB0_8:
	@DEBUG_VALUE: HAL_EXTI_SetConfigLine:maskline <- $r2
	@DEBUG_VALUE: HAL_EXTI_SetConfigLine:linepos <- $r3
	@DEBUG_VALUE: HAL_EXTI_SetConfigLine:pExtiConfig <- $r1
	.loc	5 185 18                        @ ../Drivers/STM32L0xx_HAL_Driver/Src/stm32l0xx_hal_exti.c:185:18
	ldr	r5, [r0, #12]
	orrs	r5, r2
.Ltmp15:
.LBB0_9:
	@DEBUG_VALUE: HAL_EXTI_SetConfigLine:maskline <- $r2
	@DEBUG_VALUE: HAL_EXTI_SetConfigLine:linepos <- $r3
	@DEBUG_VALUE: HAL_EXTI_SetConfigLine:pExtiConfig <- $r1
	.loc	5 0 0 is_stmt 0                 @ ../Drivers/STM32L0xx_HAL_Driver/Src/stm32l0xx_hal_exti.c:0:0
	str	r5, [r0, #12]
	movs	r5, #3
	lsls	r5, r5, #25
.Ltmp16:
	.loc	5 194 28 is_stmt 1              @ ../Drivers/STM32L0xx_HAL_Driver/Src/stm32l0xx_hal_exti.c:194:28
	mov	r6, r4
	ands	r6, r5
.Ltmp17:
	.loc	5 194 9 is_stmt 0               @ ../Drivers/STM32L0xx_HAL_Driver/Src/stm32l0xx_hal_exti.c:194:9
	cmp	r6, r5
	bne	.LBB0_11
.Ltmp18:
@ %bb.10:
	@DEBUG_VALUE: HAL_EXTI_SetConfigLine:maskline <- $r2
	@DEBUG_VALUE: HAL_EXTI_SetConfigLine:linepos <- $r3
	@DEBUG_VALUE: HAL_EXTI_SetConfigLine:pExtiConfig <- $r1
	.loc	5 0 9                           @ ../Drivers/STM32L0xx_HAL_Driver/Src/stm32l0xx_hal_exti.c:0:9
	movs	r5, #28
.Ltmp19:
	.loc	5 199 16 is_stmt 1              @ ../Drivers/STM32L0xx_HAL_Driver/Src/stm32l0xx_hal_exti.c:199:16
	ands	r3, r5
.Ltmp20:
	.loc	5 0 16 is_stmt 0                @ ../Drivers/STM32L0xx_HAL_Driver/Src/stm32l0xx_hal_exti.c:0:16
	ldr	r5, __arm_cp.0_1
	.loc	5 199 16                        @ ../Drivers/STM32L0xx_HAL_Driver/Src/stm32l0xx_hal_exti.c:199:16
	ldr	r6, [r3, r5]
.Ltmp21:
	@DEBUG_VALUE: HAL_EXTI_SetConfigLine:regval <- $r6
	.loc	5 200 69 is_stmt 1              @ ../Drivers/STM32L0xx_HAL_Driver/Src/stm32l0xx_hal_exti.c:200:69
	lsls	r4, r4, #30
	lsrs	r4, r4, #28
	movs	r7, #15
	.loc	5 200 40 is_stmt 0              @ ../Drivers/STM32L0xx_HAL_Driver/Src/stm32l0xx_hal_exti.c:200:40
	lsls	r7, r4
	.loc	5 200 14                        @ ../Drivers/STM32L0xx_HAL_Driver/Src/stm32l0xx_hal_exti.c:200:14
	bics	r6, r7
.Ltmp22:
	@DEBUG_VALUE: HAL_EXTI_SetConfigLine:regval <- $r6
	.loc	5 201 31 is_stmt 1              @ ../Drivers/STM32L0xx_HAL_Driver/Src/stm32l0xx_hal_exti.c:201:31
	ldr	r7, [r1, #12]
	.loc	5 201 39 is_stmt 0              @ ../Drivers/STM32L0xx_HAL_Driver/Src/stm32l0xx_hal_exti.c:201:39
	lsls	r7, r4
	.loc	5 201 14                        @ ../Drivers/STM32L0xx_HAL_Driver/Src/stm32l0xx_hal_exti.c:201:14
	orrs	r7, r6
.Ltmp23:
	@DEBUG_VALUE: HAL_EXTI_SetConfigLine:regval <- $r7
	.loc	5 202 37 is_stmt 1              @ ../Drivers/STM32L0xx_HAL_Driver/Src/stm32l0xx_hal_exti.c:202:37
	str	r7, [r3, r5]
.Ltmp24:
.LBB0_11:
	@DEBUG_VALUE: HAL_EXTI_SetConfigLine:maskline <- $r2
	@DEBUG_VALUE: HAL_EXTI_SetConfigLine:pExtiConfig <- $r1
	.loc	5 208 21                        @ ../Drivers/STM32L0xx_HAL_Driver/Src/stm32l0xx_hal_exti.c:208:21
	ldr	r1, [r1, #4]
.Ltmp25:
	@DEBUG_VALUE: HAL_EXTI_SetConfigLine:pExtiConfig <- [DW_OP_LLVM_entry_value 1] $r1
	.loc	5 208 7 is_stmt 0               @ ../Drivers/STM32L0xx_HAL_Driver/Src/stm32l0xx_hal_exti.c:208:7
	lsls	r3, r1, #31
	bne	.LBB0_13
.Ltmp26:
@ %bb.12:
	@DEBUG_VALUE: HAL_EXTI_SetConfigLine:pExtiConfig <- [DW_OP_LLVM_entry_value 1] $r1
	@DEBUG_VALUE: HAL_EXTI_SetConfigLine:maskline <- $r2
	.loc	5 214 15 is_stmt 1              @ ../Drivers/STM32L0xx_HAL_Driver/Src/stm32l0xx_hal_exti.c:214:15
	ldr	r3, [r0]
	bics	r3, r2
	b	.LBB0_14
.Ltmp27:
.LBB0_13:
	@DEBUG_VALUE: HAL_EXTI_SetConfigLine:pExtiConfig <- [DW_OP_LLVM_entry_value 1] $r1
	@DEBUG_VALUE: HAL_EXTI_SetConfigLine:maskline <- $r2
	.loc	5 210 15                        @ ../Drivers/STM32L0xx_HAL_Driver/Src/stm32l0xx_hal_exti.c:210:15
	ldr	r3, [r0]
	orrs	r3, r2
.Ltmp28:
.LBB0_14:
	@DEBUG_VALUE: HAL_EXTI_SetConfigLine:pExtiConfig <- [DW_OP_LLVM_entry_value 1] $r1
	@DEBUG_VALUE: HAL_EXTI_SetConfigLine:maskline <- $r2
	.loc	5 0 0 is_stmt 0                 @ ../Drivers/STM32L0xx_HAL_Driver/Src/stm32l0xx_hal_exti.c:0:0
	str	r3, [r0]
.Ltmp29:
	.loc	5 219 7 is_stmt 1               @ ../Drivers/STM32L0xx_HAL_Driver/Src/stm32l0xx_hal_exti.c:219:7
	lsls	r1, r1, #30
	bmi	.LBB0_16
.Ltmp30:
@ %bb.15:
	@DEBUG_VALUE: HAL_EXTI_SetConfigLine:pExtiConfig <- [DW_OP_LLVM_entry_value 1] $r1
	@DEBUG_VALUE: HAL_EXTI_SetConfigLine:maskline <- $r2
	.loc	5 225 15                        @ ../Drivers/STM32L0xx_HAL_Driver/Src/stm32l0xx_hal_exti.c:225:15
	ldr	r1, [r0, #4]
	bics	r1, r2
	b	.LBB0_17
.Ltmp31:
.LBB0_16:
	@DEBUG_VALUE: HAL_EXTI_SetConfigLine:pExtiConfig <- [DW_OP_LLVM_entry_value 1] $r1
	@DEBUG_VALUE: HAL_EXTI_SetConfigLine:maskline <- $r2
	.loc	5 221 15                        @ ../Drivers/STM32L0xx_HAL_Driver/Src/stm32l0xx_hal_exti.c:221:15
	ldr	r1, [r0, #4]
	orrs	r1, r2
.Ltmp32:
.LBB0_17:
	@DEBUG_VALUE: HAL_EXTI_SetConfigLine:pExtiConfig <- [DW_OP_LLVM_entry_value 1] $r1
	@DEBUG_VALUE: HAL_EXTI_SetConfigLine:maskline <- $r2
	.loc	5 0 0 is_stmt 0                 @ ../Drivers/STM32L0xx_HAL_Driver/Src/stm32l0xx_hal_exti.c:0:0
	str	r1, [r0, #4]
	movs	r0, #0
.Ltmp33:
.LBB0_18:
	.loc	5 229 1 is_stmt 1               @ ../Drivers/STM32L0xx_HAL_Driver/Src/stm32l0xx_hal_exti.c:229:1
	pop	{r4, r5, r6, r7, pc}
.Ltmp34:
	.p2align	2
@ %bb.19:
	.loc	5 0 1 is_stmt 0                 @ ../Drivers/STM32L0xx_HAL_Driver/Src/stm32l0xx_hal_exti.c:0:1
__arm_cp.0_0:
	.long	1073808384                      @ 0x40010400
.Lcpi_end0:
	.size	__arm_cp.0_0, .Lcpi_end0-__arm_cp.0_0
__arm_cp.0_1:
	.long	1073807368                      @ 0x40010008
.Lcpi_end1:
	.size	__arm_cp.0_1, .Lcpi_end1-__arm_cp.0_1
.Lfunc_end0:
	.size	HAL_EXTI_SetConfigLine, .Lfunc_end0-HAL_EXTI_SetConfigLine
	.cfi_endproc
	.cantunwind
	.fnend
                                        @ -- End function
	.section	.text.HAL_EXTI_GetConfigLine,"ax",%progbits
	.hidden	HAL_EXTI_GetConfigLine          @ -- Begin function HAL_EXTI_GetConfigLine
	.globl	HAL_EXTI_GetConfigLine
	.p2align	2
	.type	HAL_EXTI_GetConfigLine,%function
	.code	16                              @ @HAL_EXTI_GetConfigLine
	.thumb_func
HAL_EXTI_GetConfigLine:
.Lfunc_begin1:
	.loc	5 238 0 is_stmt 1               @ ../Drivers/STM32L0xx_HAL_Driver/Src/stm32l0xx_hal_exti.c:238:0
	.fnstart
	.cfi_startproc
@ %bb.0:
	@DEBUG_VALUE: HAL_EXTI_GetConfigLine:hexti <- $r0
	@DEBUG_VALUE: HAL_EXTI_GetConfigLine:pExtiConfig <- $r1
	.save	{r4, r5, r6, r7, lr}
	push	{r4, r5, r6, r7, lr}
	.cfi_def_cfa_offset 20
	.cfi_offset lr, -4
	.cfi_offset r7, -8
	.cfi_offset r6, -12
	.cfi_offset r5, -16
	.cfi_offset r4, -20
	mov	r2, r0
.Ltmp35:
	@DEBUG_VALUE: HAL_EXTI_GetConfigLine:hexti <- $r2
	movs	r0, #1
.Ltmp36:
	.loc	5 244 23 prologue_end           @ ../Drivers/STM32L0xx_HAL_Driver/Src/stm32l0xx_hal_exti.c:244:23
	cmp	r2, #0
	beq	.LBB1_12
.Ltmp37:
@ %bb.1:
	@DEBUG_VALUE: HAL_EXTI_GetConfigLine:hexti <- $r2
	@DEBUG_VALUE: HAL_EXTI_GetConfigLine:pExtiConfig <- $r1
	cmp	r1, #0
	beq	.LBB1_12
.Ltmp38:
@ %bb.2:
	@DEBUG_VALUE: HAL_EXTI_GetConfigLine:hexti <- $r2
	@DEBUG_VALUE: HAL_EXTI_GetConfigLine:pExtiConfig <- $r1
	.loc	5 253 30                        @ ../Drivers/STM32L0xx_HAL_Driver/Src/stm32l0xx_hal_exti.c:253:30
	ldr	r2, [r2]
.Ltmp39:
	.loc	5 0 30 is_stmt 0                @ ../Drivers/STM32L0xx_HAL_Driver/Src/stm32l0xx_hal_exti.c:0:30
	movs	r3, #31
	.loc	5 256 32 is_stmt 1              @ ../Drivers/STM32L0xx_HAL_Driver/Src/stm32l0xx_hal_exti.c:256:32
	ands	r3, r2
.Ltmp40:
	@DEBUG_VALUE: HAL_EXTI_GetConfigLine:linepos <- $r3
	.loc	5 0 32 is_stmt 0                @ ../Drivers/STM32L0xx_HAL_Driver/Src/stm32l0xx_hal_exti.c:0:32
	ldr	r4, __arm_cp.1_0
.Ltmp41:
	.loc	5 262 14 is_stmt 1              @ ../Drivers/STM32L0xx_HAL_Driver/Src/stm32l0xx_hal_exti.c:262:14
	ldr	r0, [r4]
.Ltmp42:
	.loc	5 262 7 is_stmt 0               @ ../Drivers/STM32L0xx_HAL_Driver/Src/stm32l0xx_hal_exti.c:262:7
	lsrs	r0, r3
	movs	r6, #1
	ands	r0, r6
	.loc	5 253 21 is_stmt 1              @ ../Drivers/STM32L0xx_HAL_Driver/Src/stm32l0xx_hal_exti.c:253:21
	str	r2, [r1]
.Ltmp43:
	.loc	5 0 0 is_stmt 0                 @ ../Drivers/STM32L0xx_HAL_Driver/Src/stm32l0xx_hal_exti.c:0:0
	str	r0, [r1, #4]
.Ltmp44:
	.loc	5 257 19 is_stmt 1              @ ../Drivers/STM32L0xx_HAL_Driver/Src/stm32l0xx_hal_exti.c:257:19
	mov	r5, r6
	lsls	r5, r3
.Ltmp45:
	@DEBUG_VALUE: HAL_EXTI_GetConfigLine:maskline <- $r5
	.loc	5 273 14                        @ ../Drivers/STM32L0xx_HAL_Driver/Src/stm32l0xx_hal_exti.c:273:14
	ldr	r7, [r4, #4]
.Ltmp46:
	.loc	5 273 7 is_stmt 0               @ ../Drivers/STM32L0xx_HAL_Driver/Src/stm32l0xx_hal_exti.c:273:7
	tst	r7, r5
	beq	.LBB1_4
.Ltmp47:
@ %bb.3:
	@DEBUG_VALUE: HAL_EXTI_GetConfigLine:maskline <- $r5
	@DEBUG_VALUE: HAL_EXTI_GetConfigLine:linepos <- $r3
	@DEBUG_VALUE: HAL_EXTI_GetConfigLine:pExtiConfig <- $r1
	.loc	5 275 23 is_stmt 1              @ ../Drivers/STM32L0xx_HAL_Driver/Src/stm32l0xx_hal_exti.c:275:23
	adds	r0, r0, #2
	str	r0, [r1, #4]
.Ltmp48:
.LBB1_4:
	@DEBUG_VALUE: HAL_EXTI_GetConfigLine:maskline <- $r5
	@DEBUG_VALUE: HAL_EXTI_GetConfigLine:linepos <- $r3
	@DEBUG_VALUE: HAL_EXTI_GetConfigLine:pExtiConfig <- $r1
	.loc	5 0 23 is_stmt 0                @ ../Drivers/STM32L0xx_HAL_Driver/Src/stm32l0xx_hal_exti.c:0:23
	movs	r0, #0
	.loc	5 279 24 is_stmt 1              @ ../Drivers/STM32L0xx_HAL_Driver/Src/stm32l0xx_hal_exti.c:279:24
	str	r0, [r1, #8]
	.loc	5 280 24                        @ ../Drivers/STM32L0xx_HAL_Driver/Src/stm32l0xx_hal_exti.c:280:24
	str	r0, [r1, #12]
	.loc	5 283 7                         @ ../Drivers/STM32L0xx_HAL_Driver/Src/stm32l0xx_hal_exti.c:283:7
	lsls	r7, r2, #6
	bpl	.LBB1_12
.Ltmp49:
@ %bb.5:
	@DEBUG_VALUE: HAL_EXTI_GetConfigLine:maskline <- $r5
	@DEBUG_VALUE: HAL_EXTI_GetConfigLine:linepos <- $r3
	@DEBUG_VALUE: HAL_EXTI_GetConfigLine:pExtiConfig <- $r1
	.loc	5 286 16                        @ ../Drivers/STM32L0xx_HAL_Driver/Src/stm32l0xx_hal_exti.c:286:16
	ldr	r7, [r4, #8]
.Ltmp50:
	.loc	5 286 9 is_stmt 0               @ ../Drivers/STM32L0xx_HAL_Driver/Src/stm32l0xx_hal_exti.c:286:9
	tst	r7, r5
	beq	.LBB1_7
.Ltmp51:
@ %bb.6:
	@DEBUG_VALUE: HAL_EXTI_GetConfigLine:maskline <- $r5
	@DEBUG_VALUE: HAL_EXTI_GetConfigLine:linepos <- $r3
	@DEBUG_VALUE: HAL_EXTI_GetConfigLine:pExtiConfig <- $r1
	.loc	5 288 28 is_stmt 1              @ ../Drivers/STM32L0xx_HAL_Driver/Src/stm32l0xx_hal_exti.c:288:28
	str	r6, [r1, #8]
	movs	r6, #3
	b	.LBB1_8
.Ltmp52:
.LBB1_7:
	@DEBUG_VALUE: HAL_EXTI_GetConfigLine:maskline <- $r5
	@DEBUG_VALUE: HAL_EXTI_GetConfigLine:linepos <- $r3
	@DEBUG_VALUE: HAL_EXTI_GetConfigLine:pExtiConfig <- $r1
	.loc	5 0 28 is_stmt 0                @ ../Drivers/STM32L0xx_HAL_Driver/Src/stm32l0xx_hal_exti.c:0:28
	movs	r6, #2
.Ltmp53:
.LBB1_8:
	@DEBUG_VALUE: HAL_EXTI_GetConfigLine:maskline <- $r5
	@DEBUG_VALUE: HAL_EXTI_GetConfigLine:linepos <- $r3
	@DEBUG_VALUE: HAL_EXTI_GetConfigLine:pExtiConfig <- $r1
	.loc	5 293 16 is_stmt 1              @ ../Drivers/STM32L0xx_HAL_Driver/Src/stm32l0xx_hal_exti.c:293:16
	ldr	r4, [r4, #12]
.Ltmp54:
	.loc	5 293 9 is_stmt 0               @ ../Drivers/STM32L0xx_HAL_Driver/Src/stm32l0xx_hal_exti.c:293:9
	tst	r4, r5
	beq	.LBB1_10
.Ltmp55:
@ %bb.9:
	@DEBUG_VALUE: HAL_EXTI_GetConfigLine:maskline <- $r5
	@DEBUG_VALUE: HAL_EXTI_GetConfigLine:linepos <- $r3
	@DEBUG_VALUE: HAL_EXTI_GetConfigLine:pExtiConfig <- $r1
	.loc	5 295 28 is_stmt 1              @ ../Drivers/STM32L0xx_HAL_Driver/Src/stm32l0xx_hal_exti.c:295:28
	str	r6, [r1, #8]
.Ltmp56:
.LBB1_10:
	@DEBUG_VALUE: HAL_EXTI_GetConfigLine:maskline <- $r5
	@DEBUG_VALUE: HAL_EXTI_GetConfigLine:linepos <- $r3
	@DEBUG_VALUE: HAL_EXTI_GetConfigLine:pExtiConfig <- $r1
	.loc	5 0 28 is_stmt 0                @ ../Drivers/STM32L0xx_HAL_Driver/Src/stm32l0xx_hal_exti.c:0:28
	movs	r4, #3
	lsls	r4, r4, #25
.Ltmp57:
	.loc	5 299 28 is_stmt 1              @ ../Drivers/STM32L0xx_HAL_Driver/Src/stm32l0xx_hal_exti.c:299:28
	mov	r5, r2
.Ltmp58:
	ands	r5, r4
.Ltmp59:
	.loc	5 299 9 is_stmt 0               @ ../Drivers/STM32L0xx_HAL_Driver/Src/stm32l0xx_hal_exti.c:299:9
	cmp	r5, r4
	bne	.LBB1_12
.Ltmp60:
@ %bb.11:
	@DEBUG_VALUE: HAL_EXTI_GetConfigLine:linepos <- $r3
	@DEBUG_VALUE: HAL_EXTI_GetConfigLine:pExtiConfig <- $r1
	.loc	5 0 9                           @ ../Drivers/STM32L0xx_HAL_Driver/Src/stm32l0xx_hal_exti.c:0:9
	movs	r4, #28
.Ltmp61:
	.loc	5 303 16 is_stmt 1              @ ../Drivers/STM32L0xx_HAL_Driver/Src/stm32l0xx_hal_exti.c:303:16
	ands	r3, r4
.Ltmp62:
	.loc	5 0 16 is_stmt 0                @ ../Drivers/STM32L0xx_HAL_Driver/Src/stm32l0xx_hal_exti.c:0:16
	ldr	r4, __arm_cp.1_1
	.loc	5 303 16                        @ ../Drivers/STM32L0xx_HAL_Driver/Src/stm32l0xx_hal_exti.c:303:16
	ldr	r3, [r3, r4]
.Ltmp63:
	@DEBUG_VALUE: HAL_EXTI_GetConfigLine:regval <- $r3
	.loc	5 304 67 is_stmt 1              @ ../Drivers/STM32L0xx_HAL_Driver/Src/stm32l0xx_hal_exti.c:304:67
	lsls	r2, r2, #30
	lsrs	r2, r2, #28
	.loc	5 304 38 is_stmt 0              @ ../Drivers/STM32L0xx_HAL_Driver/Src/stm32l0xx_hal_exti.c:304:38
	lsrs	r3, r2
.Ltmp64:
	.loc	5 0 38                          @ ../Drivers/STM32L0xx_HAL_Driver/Src/stm32l0xx_hal_exti.c:0:38
	movs	r2, #15
	.loc	5 304 89                        @ ../Drivers/STM32L0xx_HAL_Driver/Src/stm32l0xx_hal_exti.c:304:89
	ands	r2, r3
	.loc	5 304 28                        @ ../Drivers/STM32L0xx_HAL_Driver/Src/stm32l0xx_hal_exti.c:304:28
	str	r2, [r1, #12]
.Ltmp65:
.LBB1_12:
	@DEBUG_VALUE: HAL_EXTI_GetConfigLine:pExtiConfig <- $r1
	.loc	5 309 1 is_stmt 1               @ ../Drivers/STM32L0xx_HAL_Driver/Src/stm32l0xx_hal_exti.c:309:1
	pop	{r4, r5, r6, r7, pc}
.Ltmp66:
	.p2align	2
@ %bb.13:
	.loc	5 0 1 is_stmt 0                 @ ../Drivers/STM32L0xx_HAL_Driver/Src/stm32l0xx_hal_exti.c:0:1
__arm_cp.1_0:
	.long	1073808384                      @ 0x40010400
.Lcpi_end2:
	.size	__arm_cp.1_0, .Lcpi_end2-__arm_cp.1_0
__arm_cp.1_1:
	.long	1073807368                      @ 0x40010008
.Lcpi_end3:
	.size	__arm_cp.1_1, .Lcpi_end3-__arm_cp.1_1
.Lfunc_end1:
	.size	HAL_EXTI_GetConfigLine, .Lfunc_end1-HAL_EXTI_GetConfigLine
	.cfi_endproc
	.cantunwind
	.fnend
                                        @ -- End function
	.section	.text.HAL_EXTI_ClearConfigLine,"ax",%progbits
	.hidden	HAL_EXTI_ClearConfigLine        @ -- Begin function HAL_EXTI_ClearConfigLine
	.globl	HAL_EXTI_ClearConfigLine
	.p2align	2
	.type	HAL_EXTI_ClearConfigLine,%function
	.code	16                              @ @HAL_EXTI_ClearConfigLine
	.thumb_func
HAL_EXTI_ClearConfigLine:
.Lfunc_begin2:
	.loc	5 317 0 is_stmt 1               @ ../Drivers/STM32L0xx_HAL_Driver/Src/stm32l0xx_hal_exti.c:317:0
	.fnstart
	.cfi_startproc
@ %bb.0:
	@DEBUG_VALUE: HAL_EXTI_ClearConfigLine:hexti <- $r0
	.save	{r4, r5, r7, lr}
	push	{r4, r5, r7, lr}
	.cfi_def_cfa_offset 16
	.cfi_offset lr, -4
	.cfi_offset r7, -8
	.cfi_offset r5, -12
	.cfi_offset r4, -16
.Ltmp67:
	.loc	5 323 7 prologue_end            @ ../Drivers/STM32L0xx_HAL_Driver/Src/stm32l0xx_hal_exti.c:323:7
	cmp	r0, #0
	beq	.LBB2_5
.Ltmp68:
@ %bb.1:
	@DEBUG_VALUE: HAL_EXTI_ClearConfigLine:hexti <- $r0
	.loc	5 332 21                        @ ../Drivers/STM32L0xx_HAL_Driver/Src/stm32l0xx_hal_exti.c:332:21
	ldr	r2, [r0]
	movs	r1, #31
	.loc	5 332 26 is_stmt 0              @ ../Drivers/STM32L0xx_HAL_Driver/Src/stm32l0xx_hal_exti.c:332:26
	ands	r1, r2
.Ltmp69:
	@DEBUG_VALUE: HAL_EXTI_ClearConfigLine:linepos <- $r1
	.loc	5 0 26                          @ ../Drivers/STM32L0xx_HAL_Driver/Src/stm32l0xx_hal_exti.c:0:26
	movs	r4, #1
	.loc	5 333 19 is_stmt 1              @ ../Drivers/STM32L0xx_HAL_Driver/Src/stm32l0xx_hal_exti.c:333:19
	lsls	r4, r1
.Ltmp70:
	@DEBUG_VALUE: HAL_EXTI_ClearConfigLine:maskline <- $r4
	.loc	5 0 19 is_stmt 0                @ ../Drivers/STM32L0xx_HAL_Driver/Src/stm32l0xx_hal_exti.c:0:19
	ldr	r3, __arm_cp.2_0
	.loc	5 336 22 is_stmt 1              @ ../Drivers/STM32L0xx_HAL_Driver/Src/stm32l0xx_hal_exti.c:336:22
	ldr	r0, [r3]
.Ltmp71:
	@DEBUG_VALUE: HAL_EXTI_ClearConfigLine:hexti <- [DW_OP_LLVM_entry_value 1] $r0
	.loc	5 336 26 is_stmt 0              @ ../Drivers/STM32L0xx_HAL_Driver/Src/stm32l0xx_hal_exti.c:336:26
	bics	r0, r4
	.loc	5 336 13                        @ ../Drivers/STM32L0xx_HAL_Driver/Src/stm32l0xx_hal_exti.c:336:13
	str	r0, [r3]
	.loc	5 339 22 is_stmt 1              @ ../Drivers/STM32L0xx_HAL_Driver/Src/stm32l0xx_hal_exti.c:339:22
	ldr	r0, [r3, #4]
	.loc	5 339 26 is_stmt 0              @ ../Drivers/STM32L0xx_HAL_Driver/Src/stm32l0xx_hal_exti.c:339:26
	bics	r0, r4
	.loc	5 339 13                        @ ../Drivers/STM32L0xx_HAL_Driver/Src/stm32l0xx_hal_exti.c:339:13
	str	r0, [r3, #4]
	movs	r0, #0
	.loc	5 342 7 is_stmt 1               @ ../Drivers/STM32L0xx_HAL_Driver/Src/stm32l0xx_hal_exti.c:342:7
	lsls	r5, r2, #6
	bpl	.LBB2_4
.Ltmp72:
@ %bb.2:
	@DEBUG_VALUE: HAL_EXTI_ClearConfigLine:hexti <- [DW_OP_LLVM_entry_value 1] $r0
	@DEBUG_VALUE: HAL_EXTI_ClearConfigLine:maskline <- $r4
	@DEBUG_VALUE: HAL_EXTI_ClearConfigLine:linepos <- $r1
	.loc	5 0 0 is_stmt 0                 @ ../Drivers/STM32L0xx_HAL_Driver/Src/stm32l0xx_hal_exti.c:0:0
	mvns	r4, r4
.Ltmp73:
	.loc	5 344 25 is_stmt 1              @ ../Drivers/STM32L0xx_HAL_Driver/Src/stm32l0xx_hal_exti.c:344:25
	ldr	r5, [r3, #8]
	.loc	5 344 30 is_stmt 0              @ ../Drivers/STM32L0xx_HAL_Driver/Src/stm32l0xx_hal_exti.c:344:30
	ands	r5, r4
	.loc	5 344 16                        @ ../Drivers/STM32L0xx_HAL_Driver/Src/stm32l0xx_hal_exti.c:344:16
	str	r5, [r3, #8]
	.loc	5 345 25 is_stmt 1              @ ../Drivers/STM32L0xx_HAL_Driver/Src/stm32l0xx_hal_exti.c:345:25
	ldr	r5, [r3, #12]
	.loc	5 345 30 is_stmt 0              @ ../Drivers/STM32L0xx_HAL_Driver/Src/stm32l0xx_hal_exti.c:345:30
	ands	r5, r4
	.loc	5 345 16                        @ ../Drivers/STM32L0xx_HAL_Driver/Src/stm32l0xx_hal_exti.c:345:16
	str	r5, [r3, #12]
	movs	r3, #3
	lsls	r3, r3, #25
.Ltmp74:
	.loc	5 348 22 is_stmt 1              @ ../Drivers/STM32L0xx_HAL_Driver/Src/stm32l0xx_hal_exti.c:348:22
	mov	r4, r2
	ands	r4, r3
.Ltmp75:
	.loc	5 348 9 is_stmt 0               @ ../Drivers/STM32L0xx_HAL_Driver/Src/stm32l0xx_hal_exti.c:348:9
	cmp	r4, r3
	bne	.LBB2_4
.Ltmp76:
@ %bb.3:
	@DEBUG_VALUE: HAL_EXTI_ClearConfigLine:hexti <- [DW_OP_LLVM_entry_value 1] $r0
	@DEBUG_VALUE: HAL_EXTI_ClearConfigLine:linepos <- $r1
	.loc	5 0 9                           @ ../Drivers/STM32L0xx_HAL_Driver/Src/stm32l0xx_hal_exti.c:0:9
	movs	r3, #28
.Ltmp77:
	.loc	5 352 16 is_stmt 1              @ ../Drivers/STM32L0xx_HAL_Driver/Src/stm32l0xx_hal_exti.c:352:16
	ands	r1, r3
.Ltmp78:
	.loc	5 0 16 is_stmt 0                @ ../Drivers/STM32L0xx_HAL_Driver/Src/stm32l0xx_hal_exti.c:0:16
	ldr	r3, __arm_cp.2_1
	.loc	5 352 16                        @ ../Drivers/STM32L0xx_HAL_Driver/Src/stm32l0xx_hal_exti.c:352:16
	ldr	r4, [r1, r3]
.Ltmp79:
	@DEBUG_VALUE: HAL_EXTI_ClearConfigLine:regval <- $r4
	.loc	5 353 69 is_stmt 1              @ ../Drivers/STM32L0xx_HAL_Driver/Src/stm32l0xx_hal_exti.c:353:69
	lsls	r2, r2, #30
	lsrs	r2, r2, #28
	movs	r5, #15
	.loc	5 353 40 is_stmt 0              @ ../Drivers/STM32L0xx_HAL_Driver/Src/stm32l0xx_hal_exti.c:353:40
	lsls	r5, r2
	.loc	5 353 14                        @ ../Drivers/STM32L0xx_HAL_Driver/Src/stm32l0xx_hal_exti.c:353:14
	bics	r4, r5
.Ltmp80:
	@DEBUG_VALUE: HAL_EXTI_ClearConfigLine:regval <- $r4
	.loc	5 354 37 is_stmt 1              @ ../Drivers/STM32L0xx_HAL_Driver/Src/stm32l0xx_hal_exti.c:354:37
	str	r4, [r1, r3]
.Ltmp81:
.LBB2_4:
	@DEBUG_VALUE: HAL_EXTI_ClearConfigLine:hexti <- [DW_OP_LLVM_entry_value 1] $r0
	.loc	5 359 1                         @ ../Drivers/STM32L0xx_HAL_Driver/Src/stm32l0xx_hal_exti.c:359:1
	pop	{r4, r5, r7, pc}
.Ltmp82:
.LBB2_5:
	@DEBUG_VALUE: HAL_EXTI_ClearConfigLine:hexti <- $r0
	.loc	5 0 1 is_stmt 0                 @ ../Drivers/STM32L0xx_HAL_Driver/Src/stm32l0xx_hal_exti.c:0:1
	movs	r0, #1
.Ltmp83:
	@DEBUG_VALUE: HAL_EXTI_ClearConfigLine:hexti <- [DW_OP_LLVM_entry_value 1] $r0
	.loc	5 359 1                         @ ../Drivers/STM32L0xx_HAL_Driver/Src/stm32l0xx_hal_exti.c:359:1
	pop	{r4, r5, r7, pc}
.Ltmp84:
	.p2align	2
@ %bb.6:
	.loc	5 0 1                           @ ../Drivers/STM32L0xx_HAL_Driver/Src/stm32l0xx_hal_exti.c:0:1
__arm_cp.2_0:
	.long	1073808384                      @ 0x40010400
.Lcpi_end4:
	.size	__arm_cp.2_0, .Lcpi_end4-__arm_cp.2_0
__arm_cp.2_1:
	.long	1073807368                      @ 0x40010008
.Lcpi_end5:
	.size	__arm_cp.2_1, .Lcpi_end5-__arm_cp.2_1
.Lfunc_end2:
	.size	HAL_EXTI_ClearConfigLine, .Lfunc_end2-HAL_EXTI_ClearConfigLine
	.cfi_endproc
	.cantunwind
	.fnend
                                        @ -- End function
	.section	.text.HAL_EXTI_RegisterCallback,"ax",%progbits
	.hidden	HAL_EXTI_RegisterCallback       @ -- Begin function HAL_EXTI_RegisterCallback
	.globl	HAL_EXTI_RegisterCallback
	.p2align	1
	.type	HAL_EXTI_RegisterCallback,%function
	.code	16                              @ @HAL_EXTI_RegisterCallback
	.thumb_func
HAL_EXTI_RegisterCallback:
.Lfunc_begin3:
	.loc	5 370 0 is_stmt 1               @ ../Drivers/STM32L0xx_HAL_Driver/Src/stm32l0xx_hal_exti.c:370:0
	.fnstart
	.cfi_startproc
@ %bb.0:
	@DEBUG_VALUE: HAL_EXTI_RegisterCallback:hexti <- $r0
	@DEBUG_VALUE: HAL_EXTI_RegisterCallback:CallbackID <- $r1
	@DEBUG_VALUE: HAL_EXTI_RegisterCallback:pPendingCbfn <- $r2
	@DEBUG_VALUE: HAL_EXTI_RegisterCallback:status <- 0
	.loc	5 373 3 prologue_end            @ ../Drivers/STM32L0xx_HAL_Driver/Src/stm32l0xx_hal_exti.c:373:3
	cmp	r1, #0
	beq	.LBB3_2
.Ltmp85:
@ %bb.1:
	@DEBUG_VALUE: HAL_EXTI_RegisterCallback:status <- 0
	@DEBUG_VALUE: HAL_EXTI_RegisterCallback:pPendingCbfn <- $r2
	@DEBUG_VALUE: HAL_EXTI_RegisterCallback:CallbackID <- $r1
	@DEBUG_VALUE: HAL_EXTI_RegisterCallback:hexti <- $r0
	.loc	5 0 3 is_stmt 0                 @ ../Drivers/STM32L0xx_HAL_Driver/Src/stm32l0xx_hal_exti.c:0:3
	movs	r0, #1
.Ltmp86:
	@DEBUG_VALUE: HAL_EXTI_RegisterCallback:hexti <- [DW_OP_LLVM_entry_value 1] $r0
	@DEBUG_VALUE: HAL_EXTI_RegisterCallback:status <- $r0
	.loc	5 384 3 is_stmt 1               @ ../Drivers/STM32L0xx_HAL_Driver/Src/stm32l0xx_hal_exti.c:384:3
	bx	lr
.Ltmp87:
.LBB3_2:
	@DEBUG_VALUE: HAL_EXTI_RegisterCallback:status <- 0
	@DEBUG_VALUE: HAL_EXTI_RegisterCallback:pPendingCbfn <- $r2
	@DEBUG_VALUE: HAL_EXTI_RegisterCallback:CallbackID <- $r1
	@DEBUG_VALUE: HAL_EXTI_RegisterCallback:hexti <- $r0
	.loc	5 376 30                        @ ../Drivers/STM32L0xx_HAL_Driver/Src/stm32l0xx_hal_exti.c:376:30
	str	r2, [r0, #4]
	movs	r0, #0
.Ltmp88:
	@DEBUG_VALUE: HAL_EXTI_RegisterCallback:hexti <- [DW_OP_LLVM_entry_value 1] $r0
	@DEBUG_VALUE: HAL_EXTI_RegisterCallback:status <- $r0
	.loc	5 384 3                         @ ../Drivers/STM32L0xx_HAL_Driver/Src/stm32l0xx_hal_exti.c:384:3
	bx	lr
.Ltmp89:
.Lfunc_end3:
	.size	HAL_EXTI_RegisterCallback, .Lfunc_end3-HAL_EXTI_RegisterCallback
	.cfi_endproc
	.cantunwind
	.fnend
                                        @ -- End function
	.section	.text.HAL_EXTI_GetHandle,"ax",%progbits
	.hidden	HAL_EXTI_GetHandle              @ -- Begin function HAL_EXTI_GetHandle
	.globl	HAL_EXTI_GetHandle
	.p2align	1
	.type	HAL_EXTI_GetHandle,%function
	.code	16                              @ @HAL_EXTI_GetHandle
	.thumb_func
HAL_EXTI_GetHandle:
.Lfunc_begin4:
	.loc	5 395 0                         @ ../Drivers/STM32L0xx_HAL_Driver/Src/stm32l0xx_hal_exti.c:395:0
	.fnstart
	.cfi_startproc
@ %bb.0:
	@DEBUG_VALUE: HAL_EXTI_GetHandle:hexti <- $r0
	@DEBUG_VALUE: HAL_EXTI_GetHandle:ExtiLine <- $r1
	.loc	5 400 7 prologue_end            @ ../Drivers/STM32L0xx_HAL_Driver/Src/stm32l0xx_hal_exti.c:400:7
	cmp	r0, #0
	beq	.LBB4_2
.Ltmp90:
@ %bb.1:
	@DEBUG_VALUE: HAL_EXTI_GetHandle:ExtiLine <- $r1
	@DEBUG_VALUE: HAL_EXTI_GetHandle:hexti <- $r0
	.loc	5 407 17                        @ ../Drivers/STM32L0xx_HAL_Driver/Src/stm32l0xx_hal_exti.c:407:17
	str	r1, [r0]
	movs	r0, #0
.Ltmp91:
	@DEBUG_VALUE: HAL_EXTI_GetHandle:hexti <- [DW_OP_LLVM_entry_value 1] $r0
	.loc	5 411 1                         @ ../Drivers/STM32L0xx_HAL_Driver/Src/stm32l0xx_hal_exti.c:411:1
	bx	lr
.Ltmp92:
.LBB4_2:
	@DEBUG_VALUE: HAL_EXTI_GetHandle:ExtiLine <- $r1
	@DEBUG_VALUE: HAL_EXTI_GetHandle:hexti <- $r0
	.loc	5 0 1 is_stmt 0                 @ ../Drivers/STM32L0xx_HAL_Driver/Src/stm32l0xx_hal_exti.c:0:1
	movs	r0, #1
.Ltmp93:
	@DEBUG_VALUE: HAL_EXTI_GetHandle:hexti <- [DW_OP_LLVM_entry_value 1] $r0
	.loc	5 411 1                         @ ../Drivers/STM32L0xx_HAL_Driver/Src/stm32l0xx_hal_exti.c:411:1
	bx	lr
.Ltmp94:
.Lfunc_end4:
	.size	HAL_EXTI_GetHandle, .Lfunc_end4-HAL_EXTI_GetHandle
	.cfi_endproc
	.cantunwind
	.fnend
                                        @ -- End function
	.section	.text.HAL_EXTI_IRQHandler,"ax",%progbits
	.hidden	HAL_EXTI_IRQHandler             @ -- Begin function HAL_EXTI_IRQHandler
	.globl	HAL_EXTI_IRQHandler
	.p2align	2
	.type	HAL_EXTI_IRQHandler,%function
	.code	16                              @ @HAL_EXTI_IRQHandler
	.thumb_func
HAL_EXTI_IRQHandler:
.Lfunc_begin5:
	.loc	5 435 0 is_stmt 1               @ ../Drivers/STM32L0xx_HAL_Driver/Src/stm32l0xx_hal_exti.c:435:0
	.fnstart
	.cfi_startproc
@ %bb.0:
	@DEBUG_VALUE: HAL_EXTI_IRQHandler:hexti <- $r0
	.save	{r7, lr}
	push	{r7, lr}
	.cfi_def_cfa_offset 8
	.cfi_offset lr, -4
	.cfi_offset r7, -8
.Ltmp95:
	.loc	5 440 30 prologue_end           @ ../Drivers/STM32L0xx_HAL_Driver/Src/stm32l0xx_hal_exti.c:440:30
	ldr	r1, [r0]
	movs	r2, #31
	.loc	5 440 35 is_stmt 0              @ ../Drivers/STM32L0xx_HAL_Driver/Src/stm32l0xx_hal_exti.c:440:35
	ands	r2, r1
	movs	r1, #1
	.loc	5 440 19                        @ ../Drivers/STM32L0xx_HAL_Driver/Src/stm32l0xx_hal_exti.c:440:19
	lsls	r1, r2
.Ltmp96:
	@DEBUG_VALUE: HAL_EXTI_IRQHandler:maskline <- $r1
	.loc	5 0 19                          @ ../Drivers/STM32L0xx_HAL_Driver/Src/stm32l0xx_hal_exti.c:0:19
	ldr	r2, __arm_cp.5_0
	.loc	5 443 19 is_stmt 1              @ ../Drivers/STM32L0xx_HAL_Driver/Src/stm32l0xx_hal_exti.c:443:19
	ldr	r3, [r2]
.Ltmp97:
	@DEBUG_VALUE: HAL_EXTI_IRQHandler:regval <- undef
	.loc	5 444 7                         @ ../Drivers/STM32L0xx_HAL_Driver/Src/stm32l0xx_hal_exti.c:444:7
	tst	r1, r3
	beq	.LBB5_3
.Ltmp98:
@ %bb.1:
	@DEBUG_VALUE: HAL_EXTI_IRQHandler:maskline <- $r1
	@DEBUG_VALUE: HAL_EXTI_IRQHandler:hexti <- $r0
	.loc	5 447 14                        @ ../Drivers/STM32L0xx_HAL_Driver/Src/stm32l0xx_hal_exti.c:447:14
	str	r1, [r2]
.Ltmp99:
	.loc	5 450 16                        @ ../Drivers/STM32L0xx_HAL_Driver/Src/stm32l0xx_hal_exti.c:450:16
	ldr	r0, [r0, #4]
.Ltmp100:
	@DEBUG_VALUE: HAL_EXTI_IRQHandler:hexti <- [DW_OP_LLVM_entry_value 1] $r0
	.loc	5 450 9 is_stmt 0               @ ../Drivers/STM32L0xx_HAL_Driver/Src/stm32l0xx_hal_exti.c:450:9
	cmp	r0, #0
	beq	.LBB5_3
.Ltmp101:
@ %bb.2:
	@DEBUG_VALUE: HAL_EXTI_IRQHandler:hexti <- [DW_OP_LLVM_entry_value 1] $r0
	@DEBUG_VALUE: HAL_EXTI_IRQHandler:maskline <- $r1
	.loc	5 452 7 is_stmt 1               @ ../Drivers/STM32L0xx_HAL_Driver/Src/stm32l0xx_hal_exti.c:452:7
	blx	r0
.Ltmp102:
.LBB5_3:
	.loc	5 455 1                         @ ../Drivers/STM32L0xx_HAL_Driver/Src/stm32l0xx_hal_exti.c:455:1
	pop	{r7, pc}
.Ltmp103:
	.p2align	2
@ %bb.4:
	.loc	5 0 1 is_stmt 0                 @ ../Drivers/STM32L0xx_HAL_Driver/Src/stm32l0xx_hal_exti.c:0:1
__arm_cp.5_0:
	.long	1073808404                      @ 0x40010414
.Lcpi_end6:
	.size	__arm_cp.5_0, .Lcpi_end6-__arm_cp.5_0
.Lfunc_end5:
	.size	HAL_EXTI_IRQHandler, .Lfunc_end5-HAL_EXTI_IRQHandler
	.cfi_endproc
	.cantunwind
	.fnend
                                        @ -- End function
	.section	.text.HAL_EXTI_GetPending,"ax",%progbits
	.hidden	HAL_EXTI_GetPending             @ -- Begin function HAL_EXTI_GetPending
	.globl	HAL_EXTI_GetPending
	.p2align	2
	.type	HAL_EXTI_GetPending,%function
	.code	16                              @ @HAL_EXTI_GetPending
	.thumb_func
HAL_EXTI_GetPending:
.Lfunc_begin6:
	.loc	5 467 0 is_stmt 1               @ ../Drivers/STM32L0xx_HAL_Driver/Src/stm32l0xx_hal_exti.c:467:0
	.fnstart
	.cfi_startproc
@ %bb.0:
	@DEBUG_VALUE: HAL_EXTI_GetPending:hexti <- $r0
	@DEBUG_VALUE: HAL_EXTI_GetPending:Edge <- $r1
	.loc	5 478 21 prologue_end           @ ../Drivers/STM32L0xx_HAL_Driver/Src/stm32l0xx_hal_exti.c:478:21
	ldr	r0, [r0]
.Ltmp104:
	@DEBUG_VALUE: HAL_EXTI_GetPending:hexti <- [DW_OP_LLVM_entry_value 1] $r0
	.loc	5 0 21 is_stmt 0                @ ../Drivers/STM32L0xx_HAL_Driver/Src/stm32l0xx_hal_exti.c:0:21
	movs	r1, #31
.Ltmp105:
	@DEBUG_VALUE: HAL_EXTI_GetPending:Edge <- [DW_OP_LLVM_entry_value 1] $r1
	.loc	5 478 26                        @ ../Drivers/STM32L0xx_HAL_Driver/Src/stm32l0xx_hal_exti.c:478:26
	ands	r1, r0
.Ltmp106:
	@DEBUG_VALUE: HAL_EXTI_GetPending:linepos <- $r1
	.loc	5 0 26                          @ ../Drivers/STM32L0xx_HAL_Driver/Src/stm32l0xx_hal_exti.c:0:26
	movs	r2, #1
	.loc	5 479 19 is_stmt 1              @ ../Drivers/STM32L0xx_HAL_Driver/Src/stm32l0xx_hal_exti.c:479:19
	lsls	r2, r1
.Ltmp107:
	@DEBUG_VALUE: HAL_EXTI_GetPending:maskline <- $r2
	.loc	5 0 19 is_stmt 0                @ ../Drivers/STM32L0xx_HAL_Driver/Src/stm32l0xx_hal_exti.c:0:19
	ldr	r0, __arm_cp.6_0
	.loc	5 482 20 is_stmt 1              @ ../Drivers/STM32L0xx_HAL_Driver/Src/stm32l0xx_hal_exti.c:482:20
	ldr	r0, [r0]
	.loc	5 482 23 is_stmt 0              @ ../Drivers/STM32L0xx_HAL_Driver/Src/stm32l0xx_hal_exti.c:482:23
	ands	r0, r2
	.loc	5 482 35                        @ ../Drivers/STM32L0xx_HAL_Driver/Src/stm32l0xx_hal_exti.c:482:35
	lsrs	r0, r1
.Ltmp108:
	@DEBUG_VALUE: HAL_EXTI_GetPending:regval <- $r0
	.loc	5 483 3 is_stmt 1               @ ../Drivers/STM32L0xx_HAL_Driver/Src/stm32l0xx_hal_exti.c:483:3
	bx	lr
.Ltmp109:
	.p2align	2
@ %bb.1:
	.loc	5 0 3 is_stmt 0                 @ ../Drivers/STM32L0xx_HAL_Driver/Src/stm32l0xx_hal_exti.c:0:3
__arm_cp.6_0:
	.long	1073808404                      @ 0x40010414
.Lcpi_end7:
	.size	__arm_cp.6_0, .Lcpi_end7-__arm_cp.6_0
.Lfunc_end6:
	.size	HAL_EXTI_GetPending, .Lfunc_end6-HAL_EXTI_GetPending
	.cfi_endproc
	.cantunwind
	.fnend
                                        @ -- End function
	.section	.text.HAL_EXTI_ClearPending,"ax",%progbits
	.hidden	HAL_EXTI_ClearPending           @ -- Begin function HAL_EXTI_ClearPending
	.globl	HAL_EXTI_ClearPending
	.p2align	2
	.type	HAL_EXTI_ClearPending,%function
	.code	16                              @ @HAL_EXTI_ClearPending
	.thumb_func
HAL_EXTI_ClearPending:
.Lfunc_begin7:
	.loc	5 496 0 is_stmt 1               @ ../Drivers/STM32L0xx_HAL_Driver/Src/stm32l0xx_hal_exti.c:496:0
	.fnstart
	.cfi_startproc
@ %bb.0:
	@DEBUG_VALUE: HAL_EXTI_ClearPending:hexti <- $r0
	@DEBUG_VALUE: HAL_EXTI_ClearPending:Edge <- $r1
	.loc	5 505 30 prologue_end           @ ../Drivers/STM32L0xx_HAL_Driver/Src/stm32l0xx_hal_exti.c:505:30
	ldr	r0, [r0]
.Ltmp110:
	@DEBUG_VALUE: HAL_EXTI_ClearPending:hexti <- [DW_OP_LLVM_entry_value 1] $r0
	.loc	5 0 30 is_stmt 0                @ ../Drivers/STM32L0xx_HAL_Driver/Src/stm32l0xx_hal_exti.c:0:30
	movs	r1, #31
.Ltmp111:
	@DEBUG_VALUE: HAL_EXTI_ClearPending:Edge <- [DW_OP_LLVM_entry_value 1] $r1
	.loc	5 505 35                        @ ../Drivers/STM32L0xx_HAL_Driver/Src/stm32l0xx_hal_exti.c:505:35
	ands	r1, r0
	movs	r0, #1
	.loc	5 505 19                        @ ../Drivers/STM32L0xx_HAL_Driver/Src/stm32l0xx_hal_exti.c:505:19
	lsls	r0, r1
.Ltmp112:
	@DEBUG_VALUE: HAL_EXTI_ClearPending:maskline <- $r0
	.loc	5 0 19                          @ ../Drivers/STM32L0xx_HAL_Driver/Src/stm32l0xx_hal_exti.c:0:19
	ldr	r1, __arm_cp.7_0
	.loc	5 508 12 is_stmt 1              @ ../Drivers/STM32L0xx_HAL_Driver/Src/stm32l0xx_hal_exti.c:508:12
	str	r0, [r1]
	.loc	5 509 1                         @ ../Drivers/STM32L0xx_HAL_Driver/Src/stm32l0xx_hal_exti.c:509:1
	bx	lr
.Ltmp113:
	.p2align	2
@ %bb.1:
	.loc	5 0 1 is_stmt 0                 @ ../Drivers/STM32L0xx_HAL_Driver/Src/stm32l0xx_hal_exti.c:0:1
__arm_cp.7_0:
	.long	1073808404                      @ 0x40010414
.Lcpi_end8:
	.size	__arm_cp.7_0, .Lcpi_end8-__arm_cp.7_0
.Lfunc_end7:
	.size	HAL_EXTI_ClearPending, .Lfunc_end7-HAL_EXTI_ClearPending
	.cfi_endproc
	.cantunwind
	.fnend
                                        @ -- End function
	.section	.text.HAL_EXTI_GenerateSWI,"ax",%progbits
	.hidden	HAL_EXTI_GenerateSWI            @ -- Begin function HAL_EXTI_GenerateSWI
	.globl	HAL_EXTI_GenerateSWI
	.p2align	2
	.type	HAL_EXTI_GenerateSWI,%function
	.code	16                              @ @HAL_EXTI_GenerateSWI
	.thumb_func
HAL_EXTI_GenerateSWI:
.Lfunc_begin8:
	.loc	5 517 0 is_stmt 1               @ ../Drivers/STM32L0xx_HAL_Driver/Src/stm32l0xx_hal_exti.c:517:0
	.fnstart
	.cfi_startproc
@ %bb.0:
	@DEBUG_VALUE: HAL_EXTI_GenerateSWI:hexti <- $r0
	.loc	5 525 30 prologue_end           @ ../Drivers/STM32L0xx_HAL_Driver/Src/stm32l0xx_hal_exti.c:525:30
	ldr	r0, [r0]
.Ltmp114:
	@DEBUG_VALUE: HAL_EXTI_GenerateSWI:hexti <- [DW_OP_LLVM_entry_value 1] $r0
	.loc	5 0 30 is_stmt 0                @ ../Drivers/STM32L0xx_HAL_Driver/Src/stm32l0xx_hal_exti.c:0:30
	movs	r1, #31
	.loc	5 525 35                        @ ../Drivers/STM32L0xx_HAL_Driver/Src/stm32l0xx_hal_exti.c:525:35
	ands	r1, r0
	movs	r0, #1
	.loc	5 525 19                        @ ../Drivers/STM32L0xx_HAL_Driver/Src/stm32l0xx_hal_exti.c:525:19
	lsls	r0, r1
.Ltmp115:
	@DEBUG_VALUE: HAL_EXTI_GenerateSWI:maskline <- $r0
	.loc	5 0 19                          @ ../Drivers/STM32L0xx_HAL_Driver/Src/stm32l0xx_hal_exti.c:0:19
	ldr	r1, __arm_cp.8_0
	.loc	5 528 15 is_stmt 1              @ ../Drivers/STM32L0xx_HAL_Driver/Src/stm32l0xx_hal_exti.c:528:15
	str	r0, [r1]
	.loc	5 529 1                         @ ../Drivers/STM32L0xx_HAL_Driver/Src/stm32l0xx_hal_exti.c:529:1
	bx	lr
.Ltmp116:
	.p2align	2
@ %bb.1:
	.loc	5 0 1 is_stmt 0                 @ ../Drivers/STM32L0xx_HAL_Driver/Src/stm32l0xx_hal_exti.c:0:1
__arm_cp.8_0:
	.long	1073808400                      @ 0x40010410
.Lcpi_end9:
	.size	__arm_cp.8_0, .Lcpi_end9-__arm_cp.8_0
.Lfunc_end8:
	.size	HAL_EXTI_GenerateSWI, .Lfunc_end8-HAL_EXTI_GenerateSWI
	.cfi_endproc
	.cantunwind
	.fnend
                                        @ -- End function
	.section	".note.GNU-stack","",%progbits
	.eabi_attribute	30, 3	@ Tag_ABI_optimization_goals
	.ARM_attribute	16, 1	@ Tag_AV_eba