	.text
	.syntax unified
	.eabi_attribute	67, "2.09"	@ Tag_conformance
	.cpu	cortex-m0plus
	.eabi_attribute	6, 12	@ Tag_CPU_arch
	.eabi_attribute	7, 77	@ Tag_CPU_arch_profile
	.eabi_attribute	8, 0	@ Tag_ARM_ISA_use
	.eabi_attribute	9, 1	@ Tag_THUMB_ISA_use
	.eabi_attribute	34, 0	@ Tag_CPU_unaligned_access
	.eabi_attribute	17, 1	@ Tag_ABI_PCS_GOT_use
	.eabi_attribute	20, 2	@ Tag_ABI_FP_denormal
	.eabi_attribute	21, 0	@ Tag_ABI_FP_exceptions
	.eabi_attribute	23, 1	@ Tag_ABI_FP_number_model
	.eabi_attribute	24, 1	@ Tag_ABI_align_needed
	.eabi_attribute	25, 1	@ Tag_ABI_align_preserved
	.eabi_attribute	38, 1	@ Tag_ABI_FP_16bit_format
	.eabi_attribute	18, 2	@ Tag_ABI_PCS_wchar_t
	.eabi_attribute	26, 1	@ Tag_ABI_enum_size
	.eabi_attribute	14, 0	@ Tag_ABI_PCS_R9_use
	.file	"stm32l0xx_it.c"
	.file	1 "C:\\Users\\ignas\\Downloads\\V2\\V2\\MDK-ARM" "../Drivers/STM32L0xx_HAL_Driver/Inc\\stm32l0xx_hal_tim.h"
	.file	2 "C:\\Users\\ignas\\Downloads\\V2\\V2\\MDK-ARM" "../Drivers/STM32L0xx_HAL_Driver/Inc/stm32l0xx_hal_def.h"
	.file	3 "C:\\Users\\ignas\\Downloads\\V2\\V2\\MDK-ARM" "../Drivers/STM32L0xx_HAL_Driver/Inc\\stm32l0xx_hal_dma.h"
	.section	.text.NMI_Handler,"ax",%progbits
	.hidden	NMI_Handler                     @ -- Begin function NMI_Handler
	.globl	NMI_Handler
	.p2align	1
	.type	NMI_Handler,%function
	.code	16                              @ @NMI_Handler
	.thumb_func
NMI_Handler:
.Lfunc_begin0:
	.file	4 "C:\\Users\\ignas\\Downloads\\V2\\V2\\MDK-ARM" "../Core/Src/stm32l0xx_it.c"
	.loc	4 70 0                          @ ../Core/Src/stm32l0xx_it.c:70:0
	.fnstart
	.cfi_sections .debug_frame
	.cfi_startproc
@ %bb.0:
.LBB0_1:                                @ =>This Inner Loop Header: Depth=1
	.loc	4 75 4 prologue_end             @ ../Core/Src/stm32l0xx_it.c:75:4
	b	.LBB0_1
.Ltmp0:
.Lfunc_end0:
	.size	NMI_Handler, .Lfunc_end0-NMI_Handler
	.cfi_endproc
	.cantunwind
	.fnend
                                        @ -- End function
	.section	.text.HardFault_Handler,"ax",%progbits
	.hidden	HardFault_Handler               @ -- Begin function HardFault_Handler
	.globl	HardFault_Handler
	.p2align	1
	.type	HardFault_Handler,%function
	.code	16                              @ @HardFault_Handler
	.thumb_func
HardFault_Handler:
.Lfunc_begin1:
	.loc	4 85 0                          @ ../Core/Src/stm32l0xx_it.c:85:0
	.fnstart
	.cfi_startproc
@ %bb.0:
.LBB1_1:                                @ =>This Inner Loop Header: Depth=1
	.loc	4 89 3 prologue_end             @ ../Core/Src/stm32l0xx_it.c:89:3
	b	.LBB1_1
.Ltmp1:
.Lfunc_end1:
	.size	HardFault_Handler, .Lfunc_end1-HardFault_Handler
	.cfi_endproc
	.cantunwind
	.fnend
                                        @ -- End function
	.section	.text.SVC_Handler,"ax",%progbits
	.hidden	SVC_Handler                     @ -- Begin function SVC_Handler
	.globl	SVC_Handler
	.p2align	1
	.type	SVC_Handler,%function
	.code	16                              @ @SVC_Handler
	.thumb_func
SVC_Handler:
.Lfunc_begin2:
	.loc	4 100 0                         @ ../Core/Src/stm32l0xx_it.c:100:0
	.fnstart
	.cfi_startproc
@ %bb.0:
	.loc	4 107 1 prologue_end            @ ../Core/Src/stm32l0xx_it.c:107:1
	bx	lr
.Ltmp2:
.Lfunc_end2:
	.size	SVC_Handler, .Lfunc_end2-SVC_Handler
	.cfi_endproc
	.cantunwind
	.fnend
                                        @ -- End function
	.section	.text.PendSV_Handler,"ax",%progbits
	.hidden	PendSV_Handler                  @ -- Begin function PendSV_Handler
	.globl	PendSV_Handler
	.p2align	1
	.type	PendSV_Handler,%function
	.code	16                              @ @PendSV_Handler
	.thumb_func
PendSV_Handler:
.Lfunc_begin3:
	.loc	4 113 0                         @ ../Core/Src/stm32l0xx_it.c:113:0
	.fnstart
	.cfi_startproc
@ %bb.0:
	.loc	4 120 1 prologue_end            @ ../Core/Src/stm32l0xx_it.c:120:1
	bx	lr
.Ltmp3:
.Lfunc_end3:
	.size	PendSV_Handler, .Lfunc_end3-PendSV_Handler
	.cfi_endproc
	.cantunwind
	.fnend
                                        @ -- End function
	.section	.text.SysTick_Handler,"ax",%progbits
	.hidden	SysTick_Handler                 @ -- Begin function SysTick_Handler
	.globl	SysTick_Handler
	.p2align	1
	.type	SysTick_Handler,%function
	.code	16                              @ @SysTick_Handler
	.thumb_func
SysTick_Handler:
.Lfunc_begin4:
	.loc	4 126 0                         @ ../Core/Src/stm32l0xx_it.c:126:0
	.fnstart
	.cfi_startproc
@ %bb.0:
	.save	{r7, lr}
	push	{r7, lr}
	.cfi_def_cfa_offset 8
	.cfi_offset lr, -4
	.cfi_offset r7, -8
.Ltmp4:
	.loc	4 130 3 prologue_end            @ ../Core/Src/stm32l0xx_it.c:130:3
	bl	HAL_IncTick
.Ltmp5:
	.loc	4 134 1                         @ ../Core/Src/stm32l0xx_it.c:134:1
	pop	{r7, pc}
.Ltmp6:
.Lfunc_end4:
	.size	SysTick_Handler, .Lfunc_end4-SysTick_Handler
	.cfi_endproc
	.cantunwind
	.fnend
                                        @ -- End function
	.section	.text.TIM6_DAC_IRQHandler,"ax",%progbits
	.hidden	TIM6_DAC_IRQHandler             @ -- Begin function TIM6_DAC_IRQHandler
	.globl	TIM6_DAC_IRQHandler
	.p2align	2
	.type	TIM6_DAC_IRQHandler,%function
	.code	16                              @ @TIM6_DAC_IRQHandler
	.thumb_func
TIM6_DAC_IRQHandler:
.Lfunc_begin5:
	.loc	4 147 0                         @ ../Core/Src/stm32l0xx_it.c:147:0
	.fnstart
	.cfi_startproc
@ %bb.0:
	.save	{r7, lr}
	push	{r7, lr}
	.cfi_def_cfa_offset 8
	.cfi_offset lr, -4
	.cfi_offset r7, -8
.Ltmp7:
	.loc	4 151 3 prologue_end            @ ../Core/Src/stm32l0xx_it.c:151:3
	ldr	r0, __arm_cp.5_0
	bl	HAL_TIM_IRQHandler
.Ltmp8:
	.loc	4 155 1                         @ ../Core/Src/stm32l0xx_it.c:155:1
	pop	{r7, pc}
.Ltmp9:
	.p2align	2
@ %bb.1:
	.loc	4 0 1 is_stmt 0                 @ ../Core/Src/stm32l0xx_it.c:0:1
__arm_cp.5_0:
	.long	htim6
.Lcpi_end0:
	.size	__arm_cp.5_0, .Lcpi_end0-__arm_cp.5_0
.Lfunc_end5:
	.size	TIM6_DAC_IRQHandler, .Lfunc_end5-TIM6_DAC_IRQHandler
	.cfi_endproc
	.cantunwind
	.fnend
                                        @ -- End function
	.section	".note.GNU-stack","",%progbits
	.eabi_attribute	30, 3	@ Tag_ABI_optimization_goals
	.ARM_attribute	16, 1	@ Tag_AV_eba