	.text
	.syntax unified
	.eabi_attribute	67, "2.09"	@ Tag_conformance
	.cpu	cortex-m0plus
	.eabi_attribute	6, 12	@ Tag_CPU_arch
	.eabi_attribute	7, 77	@ Tag_CPU_arch_profile
	.eabi_attribute	8, 0	@ Tag_ARM_ISA_use
	.eabi_attribute	9, 1	@ Tag_THUMB_ISA_use
	.eabi_attribute	34, 0	@ Tag_CPU_unaligned_access
	.eabi_attribute	17, 1	@ Tag_ABI_PCS_GOT_use
	.eabi_attribute	20, 2	@ Tag_ABI_FP_denormal
	.eabi_attribute	21, 0	@ Tag_ABI_FP_exceptions
	.eabi_attribute	23, 1	@ Tag_ABI_FP_number_model
	.eabi_attribute	24, 1	@ Tag_ABI_align_needed
	.eabi_attribute	25, 1	@ Tag_ABI_align_preserved
	.eabi_attribute	38, 1	@ Tag_ABI_FP_16bit_format
	.eabi_attribute	18, 2	@ Tag_ABI_PCS_wchar_t
	.eabi_attribute	26, 1	@ Tag_ABI_enum_size
	.eabi_attribute	14, 0	@ Tag_ABI_PCS_R9_use
	.file	"stm32l0xx_hal_rcc_ex.c"
	.file	1 "C:\\Users\\ignas\\Downloads\\V2\\V2\\MDK-ARM" "../Drivers/STM32L0xx_HAL_Driver/Inc/stm32l0xx_hal_def.h"
	.file	2 "C:\\Users\\ignas\\Downloads\\V2\\V2\\MDK-ARM" "../Drivers/CMSIS/Device/ST/STM32L0xx/Include\\stm32l0xx.h"
	.file	3 "C:\\Keil_v5\\ARM\\ARMCLANG\\Bin\\..\\include" "stdint.h"
	.file	4 "C:\\Users\\ignas\\Downloads\\V2\\V2\\MDK-ARM" "../Drivers/CMSIS/Device/ST/STM32L0xx/Include/stm32l073xx.h"
	.section	.text.HAL_RCCEx_PeriphCLKConfig,"ax",%progbits
	.hidden	HAL_RCCEx_PeriphCLKConfig       @ -- Begin function HAL_RCCEx_PeriphCLKConfig
	.globl	HAL_RCCEx_PeriphCLKConfig
	.p2align	2
	.type	HAL_RCCEx_PeriphCLKConfig,%function
	.code	16                              @ @HAL_RCCEx_PeriphCLKConfig
	.thumb_func
HAL_RCCEx_PeriphCLKConfig:
.Lfunc_begin0:
	.file	5 "C:\\Users\\ignas\\Downloads\\V2\\V2\\MDK-ARM" "../Drivers/STM32L0xx_HAL_Driver/Src/stm32l0xx_hal_rcc_ex.c"
	.loc	5 96 0                          @ ../Drivers/STM32L0xx_HAL_Driver/Src/stm32l0xx_hal_rcc_ex.c:96:0
	.fnstart
	.cfi_sections .debug_frame
	.cfi_startproc
@ %bb.0:
	@DEBUG_VALUE: HAL_RCCEx_PeriphCLKConfig:PeriphClkInit <- $r0
	.save	{r4, r5, r6, r7, lr}
	push	{r4, r5, r6, r7, lr}
	.cfi_def_cfa_offset 20
	.cfi_offset lr, -4
	.cfi_offset r7, -8
	.cfi_offset r6, -12
	.cfi_offset r5, -16
	.cfi_offset r4, -20
	.pad	#28
	sub	sp, #28
	.cfi_def_cfa_offset 48
.Ltmp0:
	@DEBUG_VALUE: HAL_RCCEx_PeriphCLKConfig:pwrclkchanged <- 0
	.loc	5 105 25 prologue_end           @ ../Drivers/STM32L0xx_HAL_Driver/Src/stm32l0xx_hal_rcc_ex.c:105:25
	ldr	r6, [r0]
	movs	r5, #1
	lsls	r7, r5, #8
	lsls	r2, r5, #11
	.loc	5 107 4                         @ ../Drivers/STM32L0xx_HAL_Driver/Src/stm32l0xx_hal_rcc_ex.c:107:4
	mov	r1, r2
	adds	r1, #32
	ldr	r3, __arm_cp.0_0
	tst	r6, r1
	bne	.LBB0_1
	b	.LBB0_29
.Ltmp1:
.LBB0_1:
	@DEBUG_VALUE: HAL_RCCEx_PeriphCLKConfig:pwrclkchanged <- 0
	@DEBUG_VALUE: HAL_RCCEx_PeriphCLKConfig:PeriphClkInit <- $r0
	.loc	5 0 4 is_stmt 0                 @ ../Drivers/STM32L0xx_HAL_Driver/Src/stm32l0xx_hal_rcc_ex.c:0:4
	str	r2, [sp, #16]                   @ 4-byte Spill
	str	r0, [sp, #24]                   @ 4-byte Spill
.Ltmp2:
	@DEBUG_VALUE: HAL_RCCEx_PeriphCLKConfig:PeriphClkInit <- [DW_OP_plus_uconst 24] [$sp+0]
	lsls	r1, r5, #28
.Ltmp3:
	.loc	5 127 8 is_stmt 1               @ ../Drivers/STM32L0xx_HAL_Driver/Src/stm32l0xx_hal_rcc_ex.c:127:8
	ldr	r0, [r3, #56]
	ands	r0, r1
	str	r0, [sp, #12]                   @ 4-byte Spill
.Ltmp4:
	.loc	5 127 8 is_stmt 0               @ ../Drivers/STM32L0xx_HAL_Driver/Src/stm32l0xx_hal_rcc_ex.c:127:8
	bne	.LBB0_3
.Ltmp5:
@ %bb.2:
	@DEBUG_VALUE: HAL_RCCEx_PeriphCLKConfig:PeriphClkInit <- [DW_OP_plus_uconst 24] [$sp+0]
	@DEBUG_VALUE: HAL_RCCEx_PeriphCLKConfig:pwrclkchanged <- 0
	.loc	5 129 7 is_stmt 1               @ ../Drivers/STM32L0xx_HAL_Driver/Src/stm32l0xx_hal_rcc_ex.c:129:7
	ldr	r0, [r3, #56]
	orrs	r0, r1
	str	r0, [r3, #56]
.Ltmp6:
	@DEBUG_VALUE: HAL_RCCEx_PeriphCLKConfig:pwrclkchanged <- 1
.LBB0_3:
	@DEBUG_VALUE: HAL_RCCEx_PeriphCLKConfig:PeriphClkInit <- [DW_OP_plus_uconst 24] [$sp+0]
	@DEBUG_VALUE: HAL_RCCEx_PeriphCLKConfig:pwrclkchanged <- undef
	.loc	5 0 7 is_stmt 0                 @ ../Drivers/STM32L0xx_HAL_Driver/Src/stm32l0xx_hal_rcc_ex.c:0:7
	str	r1, [sp, #4]                    @ 4-byte Spill
	ldr	r4, __arm_cp.0_1
.Ltmp7:
	.loc	5 133 8 is_stmt 1               @ ../Drivers/STM32L0xx_HAL_Driver/Src/stm32l0xx_hal_rcc_ex.c:133:8
	ldr	r0, [r4]
.Ltmp8:
	.loc	5 133 8 is_stmt 0               @ ../Drivers/STM32L0xx_HAL_Driver/Src/stm32l0xx_hal_rcc_ex.c:133:8
	tst	r0, r7
	bne	.LBB0_8
.Ltmp9:
@ %bb.4:
	@DEBUG_VALUE: HAL_RCCEx_PeriphCLKConfig:PeriphClkInit <- [DW_OP_plus_uconst 24] [$sp+0]
	.loc	5 136 7 is_stmt 1               @ ../Drivers/STM32L0xx_HAL_Driver/Src/stm32l0xx_hal_rcc_ex.c:136:7
	ldr	r0, [r4]
	orrs	r0, r7
	str	r0, [r4]
	.loc	5 139 19                        @ ../Drivers/STM32L0xx_HAL_Driver/Src/stm32l0xx_hal_rcc_ex.c:139:19
	bl	HAL_GetTick
.Ltmp10:
	mov	r6, r0
.Ltmp11:
	@DEBUG_VALUE: HAL_RCCEx_PeriphCLKConfig:tickstart <- $r6
.LBB0_5:                                @ =>This Inner Loop Header: Depth=1
	@DEBUG_VALUE: HAL_RCCEx_PeriphCLKConfig:tickstart <- $r6
	@DEBUG_VALUE: HAL_RCCEx_PeriphCLKConfig:PeriphClkInit <- [DW_OP_plus_uconst 24] [$sp+0]
	.loc	5 141 13                        @ ../Drivers/STM32L0xx_HAL_Driver/Src/stm32l0xx_hal_rcc_ex.c:141:13
	ldr	r0, [r4]
	.loc	5 141 7 is_stmt 0               @ ../Drivers/STM32L0xx_HAL_Driver/Src/stm32l0xx_hal_rcc_ex.c:141:7
	tst	r0, r7
	bne	.LBB0_8
.Ltmp12:
@ %bb.6:                                @   in Loop: Header=BB0_5 Depth=1
	@DEBUG_VALUE: HAL_RCCEx_PeriphCLKConfig:tickstart <- $r6
	@DEBUG_VALUE: HAL_RCCEx_PeriphCLKConfig:PeriphClkInit <- [DW_OP_plus_uconst 24] [$sp+0]
	.loc	5 143 13 is_stmt 1              @ ../Drivers/STM32L0xx_HAL_Driver/Src/stm32l0xx_hal_rcc_ex.c:143:13
	bl	HAL_GetTick
.Ltmp13:
	.loc	5 143 27 is_stmt 0              @ ../Drivers/STM32L0xx_HAL_Driver/Src/stm32l0xx_hal_rcc_ex.c:143:27
	subs	r0, r0, r6
.Ltmp14:
	.loc	5 143 12                        @ ../Drivers/STM32L0xx_HAL_Driver/Src/stm32l0xx_hal_rcc_ex.c:143:12
	cmp	r0, #100
	bls	.LBB0_5
.Ltmp15:
@ %bb.7:
	@DEBUG_VALUE: HAL_RCCEx_PeriphCLKConfig:tickstart <- $r6
	@DEBUG_VALUE: HAL_RCCEx_PeriphCLKConfig:PeriphClkInit <- [DW_OP_plus_uconst 24] [$sp+0]
	.loc	5 0 12                          @ ../Drivers/STM32L0xx_HAL_Driver/Src/stm32l0xx_hal_rcc_ex.c:0:12
	movs	r5, #3
	b	.LBB0_43
.Ltmp16:
.LBB0_8:
	@DEBUG_VALUE: HAL_RCCEx_PeriphCLKConfig:PeriphClkInit <- [DW_OP_plus_uconst 24] [$sp+0]
	str	r7, [sp, #8]                    @ 4-byte Spill
	movs	r6, #3
	lsls	r7, r6, #20
	ldr	r4, __arm_cp.0_0
	.loc	5 151 22 is_stmt 1              @ ../Drivers/STM32L0xx_HAL_Driver/Src/stm32l0xx_hal_rcc_ex.c:151:22
	ldr	r1, [r4]
	.loc	5 151 25 is_stmt 0              @ ../Drivers/STM32L0xx_HAL_Driver/Src/stm32l0xx_hal_rcc_ex.c:151:25
	ands	r1, r7
.Ltmp17:
	@DEBUG_VALUE: HAL_RCCEx_PeriphCLKConfig:temp_reg <- $r1
	.loc	5 0 25                          @ ../Drivers/STM32L0xx_HAL_Driver/Src/stm32l0xx_hal_rcc_ex.c:0:25
	ldr	r3, [sp, #24]                   @ 4-byte Reload
.Ltmp18:
	@DEBUG_VALUE: HAL_RCCEx_PeriphCLKConfig:PeriphClkInit <- $r3
	.loc	5 152 38 is_stmt 1              @ ../Drivers/STM32L0xx_HAL_Driver/Src/stm32l0xx_hal_rcc_ex.c:152:38
	ldr	r0, [r3, #4]
	.loc	5 152 56 is_stmt 0              @ ../Drivers/STM32L0xx_HAL_Driver/Src/stm32l0xx_hal_rcc_ex.c:152:56
	mov	r2, r0
	ands	r2, r7
	str	r6, [sp]                        @ 4-byte Spill
	lsls	r4, r6, #16
	.loc	5 154 6 is_stmt 1               @ ../Drivers/STM32L0xx_HAL_Driver/Src/stm32l0xx_hal_rcc_ex.c:154:6
	cmp	r1, r2
	bne	.LBB0_11
.Ltmp19:
@ %bb.9:
	@DEBUG_VALUE: HAL_RCCEx_PeriphCLKConfig:PeriphClkInit <- $r3
	@DEBUG_VALUE: HAL_RCCEx_PeriphCLKConfig:temp_reg <- $r1
	.loc	5 154 38 is_stmt 0              @ ../Drivers/STM32L0xx_HAL_Driver/Src/stm32l0xx_hal_rcc_ex.c:154:38
	ldr	r2, [r3, #8]
	.loc	5 154 56                        @ ../Drivers/STM32L0xx_HAL_Driver/Src/stm32l0xx_hal_rcc_ex.c:154:56
	ands	r2, r7
.Ltmp20:
	.loc	5 152 9 is_stmt 1               @ ../Drivers/STM32L0xx_HAL_Driver/Src/stm32l0xx_hal_rcc_ex.c:152:9
	cmp	r1, r2
	mov	r6, r7
	ldr	r3, __arm_cp.0_0
.Ltmp21:
	beq	.LBB0_13
.Ltmp22:
@ %bb.10:
	@DEBUG_VALUE: HAL_RCCEx_PeriphCLKConfig:temp_reg <- $r1
	.loc	5 0 9 is_stmt 0                 @ ../Drivers/STM32L0xx_HAL_Driver/Src/stm32l0xx_hal_rcc_ex.c:0:9
	mov	r1, r0
.Ltmp23:
	ands	r1, r4
	.loc	5 152 9                         @ ../Drivers/STM32L0xx_HAL_Driver/Src/stm32l0xx_hal_rcc_ex.c:152:9
	cmp	r1, r4
	beq	.LBB0_12
	b	.LBB0_13
.LBB0_11:
.Ltmp24:
	@DEBUG_VALUE: HAL_RCCEx_PeriphCLKConfig:PeriphClkInit <- $r3
	@DEBUG_VALUE: HAL_RCCEx_PeriphCLKConfig:temp_reg <- $r1
	.loc	5 158 45 is_stmt 1              @ ../Drivers/STM32L0xx_HAL_Driver/Src/stm32l0xx_hal_rcc_ex.c:158:45
	mov	r1, r0
.Ltmp25:
	ands	r1, r4
.Ltmp26:
	.loc	5 158 11 is_stmt 0              @ ../Drivers/STM32L0xx_HAL_Driver/Src/stm32l0xx_hal_rcc_ex.c:158:11
	cmp	r1, r4
	mov	r6, r7
	ldr	r3, __arm_cp.0_0
.Ltmp27:
	bne	.LBB0_13
.LBB0_12:
.Ltmp28:
	.loc	5 160 13 is_stmt 1              @ ../Drivers/STM32L0xx_HAL_Driver/Src/stm32l0xx_hal_rcc_ex.c:160:13
	ldr	r1, [r3]
.Ltmp29:
	.loc	5 160 13 is_stmt 0              @ ../Drivers/STM32L0xx_HAL_Driver/Src/stm32l0xx_hal_rcc_ex.c:160:13
	lsls	r1, r1, #14
	bpl	.LBB0_13
	b	.LBB0_43
.Ltmp30:
.LBB0_13:
	.loc	5 169 22 is_stmt 1              @ ../Drivers/STM32L0xx_HAL_Driver/Src/stm32l0xx_hal_rcc_ex.c:169:22
	ldr	r1, [r3, #80]
	str	r4, [sp, #20]                   @ 4-byte Spill
	.loc	5 169 26 is_stmt 0              @ ../Drivers/STM32L0xx_HAL_Driver/Src/stm32l0xx_hal_rcc_ex.c:169:26
	ands	r1, r4
.Ltmp31:
	@DEBUG_VALUE: HAL_RCCEx_PeriphCLKConfig:temp_reg <- $r1
	.loc	5 0 26                          @ ../Drivers/STM32L0xx_HAL_Driver/Src/stm32l0xx_hal_rcc_ex.c:0:26
	ldr	r7, [sp, #8]                    @ 4-byte Reload
.Ltmp32:
	.loc	5 171 34 is_stmt 1              @ ../Drivers/STM32L0xx_HAL_Driver/Src/stm32l0xx_hal_rcc_ex.c:171:34
	beq	.LBB0_19
.Ltmp33:
@ %bb.14:
	@DEBUG_VALUE: HAL_RCCEx_PeriphCLKConfig:temp_reg <- $r1
	.loc	5 171 86 is_stmt 0              @ ../Drivers/STM32L0xx_HAL_Driver/Src/stm32l0xx_hal_rcc_ex.c:171:86
	ldr	r2, [sp, #20]                   @ 4-byte Reload
	ands	r0, r2
	.loc	5 172 7 is_stmt 1               @ ../Drivers/STM32L0xx_HAL_Driver/Src/stm32l0xx_hal_rcc_ex.c:172:7
	cmp	r1, r0
	beq	.LBB0_16
.Ltmp34:
@ %bb.15:
	@DEBUG_VALUE: HAL_RCCEx_PeriphCLKConfig:temp_reg <- $r1
	.loc	5 174 7                         @ ../Drivers/STM32L0xx_HAL_Driver/Src/stm32l0xx_hal_rcc_ex.c:174:7
	ldr	r0, [sp, #24]                   @ 4-byte Reload
	ldrb	r0, [r0]
	lsls	r0, r0, #26
	bmi	.LBB0_18
.Ltmp35:
.LBB0_16:
	@DEBUG_VALUE: HAL_RCCEx_PeriphCLKConfig:temp_reg <- $r1
	.loc	5 174 40 is_stmt 0              @ ../Drivers/STM32L0xx_HAL_Driver/Src/stm32l0xx_hal_rcc_ex.c:174:40
	ldr	r0, [sp, #24]                   @ 4-byte Reload
	ldr	r0, [r0, #8]
	.loc	5 174 58                        @ ../Drivers/STM32L0xx_HAL_Driver/Src/stm32l0xx_hal_rcc_ex.c:174:58
	ldr	r2, [sp, #20]                   @ 4-byte Reload
	ands	r0, r2
	.loc	5 175 8 is_stmt 1               @ ../Drivers/STM32L0xx_HAL_Driver/Src/stm32l0xx_hal_rcc_ex.c:175:8
	cmp	r1, r0
	beq	.LBB0_19
.Ltmp36:
@ %bb.17:
	@DEBUG_VALUE: HAL_RCCEx_PeriphCLKConfig:temp_reg <- $r1
	.loc	5 175 29 is_stmt 0              @ ../Drivers/STM32L0xx_HAL_Driver/Src/stm32l0xx_hal_rcc_ex.c:175:29
	ldr	r0, [sp, #24]                   @ 4-byte Reload
	ldr	r0, [r0]
.Ltmp37:
	.loc	5 171 8 is_stmt 1               @ ../Drivers/STM32L0xx_HAL_Driver/Src/stm32l0xx_hal_rcc_ex.c:171:8
	ldr	r1, [sp, #16]                   @ 4-byte Reload
.Ltmp38:
	tst	r0, r1
	beq	.LBB0_19
.LBB0_18:
	.loc	5 0 8 is_stmt 0                 @ ../Drivers/STM32L0xx_HAL_Driver/Src/stm32l0xx_hal_rcc_ex.c:0:8
	ldr	r3, __arm_cp.0_0
.Ltmp39:
	.loc	5 180 24 is_stmt 1              @ ../Drivers/STM32L0xx_HAL_Driver/Src/stm32l0xx_hal_rcc_ex.c:180:24
	ldr	r0, [r3, #80]
	lsls	r1, r5, #19
	.loc	5 183 7                         @ ../Drivers/STM32L0xx_HAL_Driver/Src/stm32l0xx_hal_rcc_ex.c:183:7
	ldr	r2, [r3, #80]
	orrs	r2, r1
	str	r2, [r3, #80]
	.loc	5 184 7                         @ ../Drivers/STM32L0xx_HAL_Driver/Src/stm32l0xx_hal_rcc_ex.c:184:7
	ldr	r2, [r3, #80]
	bics	r2, r1
	str	r2, [r3, #80]
	.loc	5 180 28                        @ ../Drivers/STM32L0xx_HAL_Driver/Src/stm32l0xx_hal_rcc_ex.c:180:28
	mov	r1, r0
	ldr	r2, [sp, #20]                   @ 4-byte Reload
	bics	r1, r2
.Ltmp40:
	@DEBUG_VALUE: HAL_RCCEx_PeriphCLKConfig:temp_reg <- $r1
	.loc	5 187 16                        @ ../Drivers/STM32L0xx_HAL_Driver/Src/stm32l0xx_hal_rcc_ex.c:187:16
	str	r1, [r3, #80]
	.loc	5 190 11                        @ ../Drivers/STM32L0xx_HAL_Driver/Src/stm32l0xx_hal_rcc_ex.c:190:11
	tst	r0, r7
	bne	.LBB0_44
.Ltmp41:
.LBB0_19:
	.loc	5 0 11 is_stmt 0                @ ../Drivers/STM32L0xx_HAL_Driver/Src/stm32l0xx_hal_rcc_ex.c:0:11
	mov	r5, r6
	ldr	r0, [sp, #24]                   @ 4-byte Reload
.Ltmp42:
	.loc	5 206 25 is_stmt 1              @ ../Drivers/STM32L0xx_HAL_Driver/Src/stm32l0xx_hal_rcc_ex.c:206:25
	ldr	r6, [r0]
.Ltmp43:
	.loc	5 206 8 is_stmt 0               @ ../Drivers/STM32L0xx_HAL_Driver/Src/stm32l0xx_hal_rcc_ex.c:206:8
	ldr	r1, [sp, #16]                   @ 4-byte Reload
	tst	r6, r1
	ldr	r3, __arm_cp.0_0
	beq	.LBB0_23
@ %bb.20:
.Ltmp44:
	.loc	5 208 7 is_stmt 1               @ ../Drivers/STM32L0xx_HAL_Driver/Src/stm32l0xx_hal_rcc_ex.c:208:7
	ldr	r2, [r0, #8]
	mov	r1, r2
	ldr	r4, [sp, #20]                   @ 4-byte Reload
	ands	r1, r4
.Ltmp45:
	.loc	5 208 7 is_stmt 0               @ ../Drivers/STM32L0xx_HAL_Driver/Src/stm32l0xx_hal_rcc_ex.c:208:7
	cmp	r1, r4
	bne	.LBB0_22
@ %bb.21:
.Ltmp46:
	.loc	5 208 7                         @ ../Drivers/STM32L0xx_HAL_Driver/Src/stm32l0xx_hal_rcc_ex.c:208:7
	ands	r2, r5
	movs	r3, #3
	lsls	r3, r3, #20
	ldr	r0, __arm_cp.0_0
	ldr	r4, [r0]
	bics	r4, r3
	ldr	r0, [sp, #24]                   @ 4-byte Reload
	orrs	r4, r2
	ldr	r2, __arm_cp.0_0
	str	r4, [r2]
	ldr	r3, __arm_cp.0_0
.Ltmp47:
.LBB0_22:
	.loc	5 208 7                         @ ../Drivers/STM32L0xx_HAL_Driver/Src/stm32l0xx_hal_rcc_ex.c:208:7
	ldr	r2, [r3, #80]
	orrs	r2, r1
	str	r2, [r3, #80]
.Ltmp48:
.LBB0_23:
	.loc	5 212 8 is_stmt 1               @ ../Drivers/STM32L0xx_HAL_Driver/Src/stm32l0xx_hal_rcc_ex.c:212:8
	lsls	r1, r6, #26
	bpl	.LBB0_27
@ %bb.24:
.Ltmp49:
	.loc	5 214 7                         @ ../Drivers/STM32L0xx_HAL_Driver/Src/stm32l0xx_hal_rcc_ex.c:214:7
	ldr	r2, [r0, #4]
	mov	r1, r2
	ldr	r4, [sp, #20]                   @ 4-byte Reload
	ands	r1, r4
.Ltmp50:
	.loc	5 214 7 is_stmt 0               @ ../Drivers/STM32L0xx_HAL_Driver/Src/stm32l0xx_hal_rcc_ex.c:214:7
	cmp	r1, r4
	bne	.LBB0_26
@ %bb.25:
.Ltmp51:
	.loc	5 214 7                         @ ../Drivers/STM32L0xx_HAL_Driver/Src/stm32l0xx_hal_rcc_ex.c:214:7
	ands	r2, r5
	movs	r3, #3
	lsls	r3, r3, #20
	ldr	r0, __arm_cp.0_0
	ldr	r4, [r0]
	bics	r4, r3
	ldr	r0, [sp, #24]                   @ 4-byte Reload
	orrs	r4, r2
	ldr	r2, __arm_cp.0_0
	str	r4, [r2]
	ldr	r3, __arm_cp.0_0
.Ltmp52:
.LBB0_26:
	.loc	5 214 7                         @ ../Drivers/STM32L0xx_HAL_Driver/Src/stm32l0xx_hal_rcc_ex.c:214:7
	ldr	r2, [r3, #80]
	orrs	r2, r1
	str	r2, [r3, #80]
.Ltmp53:
.LBB0_27:
	.loc	5 218 8 is_stmt 1               @ ../Drivers/STM32L0xx_HAL_Driver/Src/stm32l0xx_hal_rcc_ex.c:218:8
	ldr	r1, [sp, #12]                   @ 4-byte Reload
	cmp	r1, #0
	bne	.LBB0_29
@ %bb.28:
.Ltmp54:
	.loc	5 220 7                         @ ../Drivers/STM32L0xx_HAL_Driver/Src/stm32l0xx_hal_rcc_ex.c:220:7
	ldr	r1, [r3, #56]
	ldr	r2, [sp, #4]                    @ 4-byte Reload
	bics	r1, r2
	str	r1, [r3, #56]
.Ltmp55:
.LBB0_29:
	.loc	5 226 6                         @ ../Drivers/STM32L0xx_HAL_Driver/Src/stm32l0xx_hal_rcc_ex.c:226:6
	lsls	r1, r6, #31
	beq	.LBB0_31
@ %bb.30:
.Ltmp56:
	.loc	5 232 5                         @ ../Drivers/STM32L0xx_HAL_Driver/Src/stm32l0xx_hal_rcc_ex.c:232:5
	ldr	r1, [r3, #76]
	movs	r2, #3
	bics	r1, r2
	ldr	r2, [r0, #12]
	orrs	r2, r1
	str	r2, [r3, #76]
.Ltmp57:
.LBB0_31:
	.loc	5 237 6                         @ ../Drivers/STM32L0xx_HAL_Driver/Src/stm32l0xx_hal_rcc_ex.c:237:6
	lsls	r1, r6, #30
	bpl	.LBB0_33
@ %bb.32:
.Ltmp58:
	.loc	5 243 5                         @ ../Drivers/STM32L0xx_HAL_Driver/Src/stm32l0xx_hal_rcc_ex.c:243:5
	ldr	r1, [r3, #76]
	movs	r2, #12
	bics	r1, r2
	ldr	r2, [r0, #16]
	orrs	r2, r1
	str	r2, [r3, #76]
.Ltmp59:
.LBB0_33:
	.loc	5 247 6                         @ ../Drivers/STM32L0xx_HAL_Driver/Src/stm32l0xx_hal_rcc_ex.c:247:6
	lsls	r1, r6, #29
	bpl	.LBB0_35
@ %bb.34:
	.loc	5 0 6 is_stmt 0                 @ ../Drivers/STM32L0xx_HAL_Driver/Src/stm32l0xx_hal_rcc_ex.c:0:6
	movs	r1, #3
	lsls	r1, r1, #10
.Ltmp60:
	.loc	5 253 5 is_stmt 1               @ ../Drivers/STM32L0xx_HAL_Driver/Src/stm32l0xx_hal_rcc_ex.c:253:5
	ldr	r2, [r3, #76]
	bics	r2, r1
	ldr	r1, [r0, #20]
	orrs	r1, r2
	str	r1, [r3, #76]
.Ltmp61:
.LBB0_35:
	.loc	5 257 6                         @ ../Drivers/STM32L0xx_HAL_Driver/Src/stm32l0xx_hal_rcc_ex.c:257:6
	lsls	r1, r6, #28
	bpl	.LBB0_37
@ %bb.36:
	.loc	5 0 6 is_stmt 0                 @ ../Drivers/STM32L0xx_HAL_Driver/Src/stm32l0xx_hal_rcc_ex.c:0:6
	movs	r1, #3
	lsls	r1, r1, #12
.Ltmp62:
	.loc	5 263 5 is_stmt 1               @ ../Drivers/STM32L0xx_HAL_Driver/Src/stm32l0xx_hal_rcc_ex.c:263:5
	ldr	r2, [r3, #76]
	bics	r2, r1
	ldr	r1, [r0, #24]
	orrs	r1, r2
	str	r1, [r3, #76]
.Ltmp63:
.LBB0_37:
	.loc	5 268 6                         @ ../Drivers/STM32L0xx_HAL_Driver/Src/stm32l0xx_hal_rcc_ex.c:268:6
	tst	r6, r7
	beq	.LBB0_39
@ %bb.38:
	.loc	5 0 6 is_stmt 0                 @ ../Drivers/STM32L0xx_HAL_Driver/Src/stm32l0xx_hal_rcc_ex.c:0:6
	movs	r1, #3
	lsls	r1, r1, #16
.Ltmp64:
	.loc	5 274 5 is_stmt 1               @ ../Drivers/STM32L0xx_HAL_Driver/Src/stm32l0xx_hal_rcc_ex.c:274:5
	ldr	r2, [r3, #76]
	bics	r2, r1
	ldr	r1, [r0, #28]
	orrs	r1, r2
	str	r1, [r3, #76]
.Ltmp65:
.LBB0_39:
	.loc	5 280 6                         @ ../Drivers/STM32L0xx_HAL_Driver/Src/stm32l0xx_hal_rcc_ex.c:280:6
	lsls	r1, r6, #25
	bpl	.LBB0_41
@ %bb.40:
	.loc	5 0 6 is_stmt 0                 @ ../Drivers/STM32L0xx_HAL_Driver/Src/stm32l0xx_hal_rcc_ex.c:0:6
	movs	r1, #1
	lsls	r1, r1, #26
.Ltmp66:
	.loc	5 283 5 is_stmt 1               @ ../Drivers/STM32L0xx_HAL_Driver/Src/stm32l0xx_hal_rcc_ex.c:283:5
	ldr	r2, [r3, #76]
	bics	r2, r1
	ldr	r1, [r0, #36]
	orrs	r1, r2
	str	r1, [r3, #76]
.Ltmp67:
.LBB0_41:
	.loc	5 0 5 is_stmt 0                 @ ../Drivers/STM32L0xx_HAL_Driver/Src/stm32l0xx_hal_rcc_ex.c:0:5
	movs	r5, #0
	.loc	5 288 6 is_stmt 1               @ ../Drivers/STM32L0xx_HAL_Driver/Src/stm32l0xx_hal_rcc_ex.c:288:6
	lsls	r1, r6, #24
	bpl	.LBB0_43
@ %bb.42:
	.loc	5 0 6 is_stmt 0                 @ ../Drivers/STM32L0xx_HAL_Driver/Src/stm32l0xx_hal_rcc_ex.c:0:6
	movs	r1, #3
	lsls	r2, r1, #18
.Ltmp68:
	.loc	5 291 5 is_stmt 1               @ ../Drivers/STM32L0xx_HAL_Driver/Src/stm32l0xx_hal_rcc_ex.c:291:5
	ldr	r1, [r3, #76]
	bics	r1, r2
	ldr	r0, [r0, #32]
	orrs	r0, r1
	str	r0, [r3, #76]
.Ltmp69:
.LBB0_43:
	.loc	5 295 1                         @ ../Drivers/STM32L0xx_HAL_Driver/Src/stm32l0xx_hal_rcc_ex.c:295:1
	mov	r0, r5
	add	sp, #28
	pop	{r4, r5, r6, r7, pc}
.LBB0_44:
.Ltmp70:
	@DEBUG_VALUE: HAL_RCCEx_PeriphCLKConfig:temp_reg <- $r1
	.loc	5 193 21                        @ ../Drivers/STM32L0xx_HAL_Driver/Src/stm32l0xx_hal_rcc_ex.c:193:21
	bl	HAL_GetTick
.Ltmp71:
	mov	r5, r0
.Ltmp72:
	@DEBUG_VALUE: HAL_RCCEx_PeriphCLKConfig:tickstart <- $r5
	.loc	5 0 21 is_stmt 0                @ ../Drivers/STM32L0xx_HAL_Driver/Src/stm32l0xx_hal_rcc_ex.c:0:21
	ldr	r4, __arm_cp.0_2
.Ltmp73:
.LBB0_45:                               @ =>This Inner Loop Header: Depth=1
	@DEBUG_VALUE: HAL_RCCEx_PeriphCLKConfig:tickstart <- $r5
	.loc	5 196 15 is_stmt 1              @ ../Drivers/STM32L0xx_HAL_Driver/Src/stm32l0xx_hal_rcc_ex.c:196:15
	ldr	r0, __arm_cp.0_0
	ldr	r0, [r0, #80]
	.loc	5 196 9 is_stmt 0               @ ../Drivers/STM32L0xx_HAL_Driver/Src/stm32l0xx_hal_rcc_ex.c:196:9
	lsls	r0, r0, #22
	bpl	.LBB0_46
	b	.LBB0_19
.Ltmp74:
.LBB0_46:                               @   in Loop: Header=BB0_45 Depth=1
	@DEBUG_VALUE: HAL_RCCEx_PeriphCLKConfig:tickstart <- $r5
	.loc	5 198 15 is_stmt 1              @ ../Drivers/STM32L0xx_HAL_Driver/Src/stm32l0xx_hal_rcc_ex.c:198:15
	bl	HAL_GetTick
.Ltmp75:
	.loc	5 198 29 is_stmt 0              @ ../Drivers/STM32L0xx_HAL_Driver/Src/stm32l0xx_hal_rcc_ex.c:198:29
	subs	r0, r0, r5
.Ltmp76:
	.loc	5 198 14                        @ ../Drivers/STM32L0xx_HAL_Driver/Src/stm32l0xx_hal_rcc_ex.c:198:14
	cmp	r0, r4
	bls	.LBB0_45
.Ltmp77:
@ %bb.47:
	@DEBUG_VALUE: HAL_RCCEx_PeriphCLKConfig:tickstart <- $r5
	.loc	5 0 14                          @ ../Drivers/STM32L0xx_HAL_Driver/Src/stm32l0xx_hal_rcc_ex.c:0:14
	ldr	r5, [sp]                        @ 4-byte Reload
.Ltmp78:
	b	.LBB0_43
	.p2align	2
@ %bb.48:
__arm_cp.0_0:
	.long	1073876992                      @ 0x40021000
.Lcpi_end0:
	.size	__arm_cp.0_0, .Lcpi_end0-__arm_cp.0_0
__arm_cp.0_1:
	.long	1073770496                      @ 0x40007000
.Lcpi_end1:
	.size	__arm_cp.0_1, .Lcpi_end1-__arm_cp.0_1
__arm_cp.0_2:
	.long	5000                            @ 0x1388
.Lcpi_end2:
	.size	__arm_cp.0_2, .Lcpi_end2-__arm_cp.0_2
.Lfunc_end0:
	.size	HAL_RCCEx_PeriphCLKConfig, .Lfunc_end0-HAL_RCCEx_PeriphCLKConfig
	.cfi_endproc
	.cantunwind
	.fnend
                                        @ -- End function
	.section	.text.HAL_RCCEx_GetPeriphCLKConfig,"ax",%progbits
	.hidden	HAL_RCCEx_GetPeriphCLKConfig    @ -- Begin function HAL_RCCEx_GetPeriphCLKConfig
	.globl	HAL_RCCEx_GetPeriphCLKConfig
	.p2align	2
	.type	HAL_RCCEx_GetPeriphCLKConfig,%function
	.code	16                              @ @HAL_RCCEx_GetPeriphCLKConfig
	.thumb_func
HAL_RCCEx_GetPeriphCLKConfig:
.Lfunc_begin1:
	.loc	5 305 0 is_stmt 1               @ ../Drivers/STM32L0xx_HAL_Driver/Src/stm32l0xx_hal_rcc_ex.c:305:0
	.fnstart
	.cfi_startproc
@ %bb.0:
	@DEBUG_VALUE: HAL_RCCEx_GetPeriphCLKConfig:PeriphClkInit <- $r0
	.save	{r4, r5, r7, lr}
	push	{r4, r5, r7, lr}
	.cfi_def_cfa_offset 16
	.cfi_offset lr, -4
	.cfi_offset r7, -8
	.cfi_offset r5, -12
	.cfi_offset r4, -16
	ldr	r1, __arm_cp.1_0
.Ltmp79:
	.loc	5 323 39 prologue_end           @ ../Drivers/STM32L0xx_HAL_Driver/Src/stm32l0xx_hal_rcc_ex.c:323:39
	str	r1, [r0]
	movs	r3, #3
	lsls	r2, r3, #16
	ldr	r1, __arm_cp.1_1
	.loc	5 327 12                        @ ../Drivers/STM32L0xx_HAL_Driver/Src/stm32l0xx_hal_rcc_ex.c:327:12
	ldr	r4, [r1, #4]
	ands	r4, r2
.Ltmp80:
	@DEBUG_VALUE: HAL_RCCEx_GetPeriphCLKConfig:srcclk <- $r4
	.loc	5 328 7                         @ ../Drivers/STM32L0xx_HAL_Driver/Src/stm32l0xx_hal_rcc_ex.c:328:7
	cmp	r4, r2
	bne	.LBB1_2
.Ltmp81:
@ %bb.1:
	@DEBUG_VALUE: HAL_RCCEx_GetPeriphCLKConfig:srcclk <- $r4
	@DEBUG_VALUE: HAL_RCCEx_GetPeriphCLKConfig:PeriphClkInit <- $r0
	.loc	5 0 7 is_stmt 0                 @ ../Drivers/STM32L0xx_HAL_Driver/Src/stm32l0xx_hal_rcc_ex.c:0:7
	lsls	r4, r3, #20
.Ltmp82:
	.loc	5 336 50 is_stmt 1              @ ../Drivers/STM32L0xx_HAL_Driver/Src/stm32l0xx_hal_rcc_ex.c:336:50
	mov	r5, r1
	subs	r5, #76
	ldr	r5, [r5]
	ands	r5, r4
	.loc	5 336 47 is_stmt 0              @ ../Drivers/STM32L0xx_HAL_Driver/Src/stm32l0xx_hal_rcc_ex.c:336:47
	adds	r4, r5, r2
.Ltmp83:
.LBB1_2:
	@DEBUG_VALUE: HAL_RCCEx_GetPeriphCLKConfig:PeriphClkInit <- $r0
	.loc	5 0 0                           @ ../Drivers/STM32L0xx_HAL_Driver/Src/stm32l0xx_hal_rcc_ex.c:0:0
	str	r4, [r0, #4]
.Ltmp84:
	.loc	5 339 36 is_stmt 1              @ ../Drivers/STM32L0xx_HAL_Driver/Src/stm32l0xx_hal_rcc_ex.c:339:36
	str	r4, [r0, #8]
	.loc	5 343 42                        @ ../Drivers/STM32L0xx_HAL_Driver/Src/stm32l0xx_hal_rcc_ex.c:343:42
	ldr	r4, [r1]
	ands	r4, r3
	.loc	5 343 40 is_stmt 0              @ ../Drivers/STM32L0xx_HAL_Driver/Src/stm32l0xx_hal_rcc_ex.c:343:40
	str	r4, [r0, #12]
	.loc	5 346 42 is_stmt 1              @ ../Drivers/STM32L0xx_HAL_Driver/Src/stm32l0xx_hal_rcc_ex.c:346:42
	ldr	r4, [r1]
	movs	r5, #12
	ands	r5, r4
	.loc	5 346 40 is_stmt 0              @ ../Drivers/STM32L0xx_HAL_Driver/Src/stm32l0xx_hal_rcc_ex.c:346:40
	str	r5, [r0, #16]
	lsls	r4, r3, #10
	.loc	5 348 42 is_stmt 1              @ ../Drivers/STM32L0xx_HAL_Driver/Src/stm32l0xx_hal_rcc_ex.c:348:42
	ldr	r5, [r1]
	ands	r5, r4
	.loc	5 348 40 is_stmt 0              @ ../Drivers/STM32L0xx_HAL_Driver/Src/stm32l0xx_hal_rcc_ex.c:348:40
	str	r5, [r0, #20]
	lsls	r4, r3, #12
	.loc	5 350 42 is_stmt 1              @ ../Drivers/STM32L0xx_HAL_Driver/Src/stm32l0xx_hal_rcc_ex.c:350:42
	ldr	r5, [r1]
	ands	r5, r4
	.loc	5 350 40 is_stmt 0              @ ../Drivers/STM32L0xx_HAL_Driver/Src/stm32l0xx_hal_rcc_ex.c:350:40
	str	r5, [r0, #24]
	.loc	5 353 42 is_stmt 1              @ ../Drivers/STM32L0xx_HAL_Driver/Src/stm32l0xx_hal_rcc_ex.c:353:42
	ldr	r4, [r1]
	ands	r4, r2
	.loc	5 353 40 is_stmt 0              @ ../Drivers/STM32L0xx_HAL_Driver/Src/stm32l0xx_hal_rcc_ex.c:353:40
	str	r4, [r0, #28]
	lsls	r3, r3, #18
	.loc	5 356 42 is_stmt 1              @ ../Drivers/STM32L0xx_HAL_Driver/Src/stm32l0xx_hal_rcc_ex.c:356:42
	ldr	r4, [r1]
	ands	r4, r3
	.loc	5 356 40 is_stmt 0              @ ../Drivers/STM32L0xx_HAL_Driver/Src/stm32l0xx_hal_rcc_ex.c:356:40
	str	r4, [r0, #32]
	.loc	5 358 42 is_stmt 1              @ ../Drivers/STM32L0xx_HAL_Driver/Src/stm32l0xx_hal_rcc_ex.c:358:42
	ldr	r3, [r1, #4]
	ands	r3, r2
	.loc	5 358 40 is_stmt 0              @ ../Drivers/STM32L0xx_HAL_Driver/Src/stm32l0xx_hal_rcc_ex.c:358:40
	str	r3, [r0, #4]
	movs	r2, #1
	lsls	r2, r2, #26
	.loc	5 361 42 is_stmt 1              @ ../Drivers/STM32L0xx_HAL_Driver/Src/stm32l0xx_hal_rcc_ex.c:361:42
	ldr	r1, [r1]
	ands	r1, r2
	.loc	5 361 40 is_stmt 0              @ ../Drivers/STM32L0xx_HAL_Driver/Src/stm32l0xx_hal_rcc_ex.c:361:40
	str	r1, [r0, #36]
	.loc	5 363 1 is_stmt 1               @ ../Drivers/STM32L0xx_HAL_Driver/Src/stm32l0xx_hal_rcc_ex.c:363:1
	pop	{r4, r5, r7, pc}
.Ltmp85:
	.p2align	2
@ %bb.3:
	.loc	5 0 1 is_stmt 0                 @ ../Drivers/STM32L0xx_HAL_Driver/Src/stm32l0xx_hal_rcc_ex.c:0:1
__arm_cp.1_0:
	.long	2543                            @ 0x9ef
.Lcpi_end3:
	.size	__arm_cp.1_0, .Lcpi_end3-__arm_cp.1_0
__arm_cp.1_1:
	.long	1073877068                      @ 0x4002104c
.Lcpi_end4:
	.size	__arm_cp.1_1, .Lcpi_end4-__arm_cp.1_1
.Lfunc_end1:
	.size	HAL_RCCEx_GetPeriphCLKConfig, .Lfunc_end1-HAL_RCCEx_GetPeriphCLKConfig
	.cfi_endproc
	.cantunwind
	.fnend
                                        @ -- End function
	.section	.text.HAL_RCCEx_GetPeriphCLKFreq,"ax",%progbits
	.hidden	HAL_RCCEx_GetPeriphCLKFreq      @ -- Begin function HAL_RCCEx_GetPeriphCLKFreq
	.globl	HAL_RCCEx_GetPeriphCLKFreq
	.p2align	2
	.type	HAL_RCCEx_GetPeriphCLKFreq,%function
	.code	16                              @ @HAL_RCCEx_GetPeriphCLKFreq
	.thumb_func
HAL_RCCEx_GetPeriphCLKFreq:
.Lfunc_begin2:
	.loc	5 383 0 is_stmt 1               @ ../Drivers/STM32L0xx_HAL_Driver/Src/stm32l0xx_hal_rcc_ex.c:383:0
	.fnstart
	.cfi_startproc
@ %bb.0:
	@DEBUG_VALUE: HAL_RCCEx_GetPeriphCLKFreq:PeriphClk <- $r0
	.save	{r4, r5, r6, r7, lr}
	push	{r4, r5, r6, r7, lr}
	.cfi_def_cfa_offset 20
	.cfi_offset lr, -4
	.cfi_offset r7, -8
	.cfi_offset r6, -12
	.cfi_offset r5, -16
	.cfi_offset r4, -20
	.pad	#4
	sub	sp, #4
	.cfi_def_cfa_offset 24
	mov	r1, r0
.Ltmp86:
	@DEBUG_VALUE: HAL_RCCEx_GetPeriphCLKFreq:frequency <- 0
	@DEBUG_VALUE: HAL_RCCEx_GetPeriphCLKFreq:PeriphClk <- $r1
	movs	r0, #0
.Ltmp87:
	.loc	5 393 3 prologue_end            @ ../Drivers/STM32L0xx_HAL_Driver/Src/stm32l0xx_hal_rcc_ex.c:393:3
	cmp	r1, #31
	bgt	.LBB2_7
.Ltmp88:
@ %bb.1:
	@DEBUG_VALUE: HAL_RCCEx_GetPeriphCLKFreq:PeriphClk <- $r1
	@DEBUG_VALUE: HAL_RCCEx_GetPeriphCLKFreq:frequency <- 0
	.loc	5 0 3 is_stmt 0                 @ ../Drivers/STM32L0xx_HAL_Driver/Src/stm32l0xx_hal_rcc_ex.c:0:3
	subs	r2, r1, #1
	cmp	r2, #7
	bhi	.LBB2_20
.Ltmp89:
@ %bb.2:
	@DEBUG_VALUE: HAL_RCCEx_GetPeriphCLKFreq:PeriphClk <- $r1
	@DEBUG_VALUE: HAL_RCCEx_GetPeriphCLKFreq:frequency <- 0
	.p2align	2
	add	r2, pc
	ldrb	r2, [r2, #4]
	lsls	r2, r2, #1
.LCPI2_10:
	add	pc, r2
.Ltmp90:
@ %bb.3:
	.p2align	2
.LJTI2_0:
	.byte	(.LBB2_4-(.LCPI2_10+4))/2
	.byte	(.LBB2_22-(.LCPI2_10+4))/2
	.byte	(.LBB2_52-(.LCPI2_10+4))/2
	.byte	(.LBB2_24-(.LCPI2_10+4))/2
	.byte	(.LBB2_52-(.LCPI2_10+4))/2
	.byte	(.LBB2_52-(.LCPI2_10+4))/2
	.byte	(.LBB2_52-(.LCPI2_10+4))/2
	.byte	(.LBB2_27-(.LCPI2_10+4))/2
	.p2align	1
.LBB2_4:
.Ltmp91:
	@DEBUG_VALUE: HAL_RCCEx_GetPeriphCLKFreq:frequency <- 0
	ldr	r1, __arm_cp.2_0
.Ltmp92:
	.loc	5 514 16 is_stmt 1              @ ../Drivers/STM32L0xx_HAL_Driver/Src/stm32l0xx_hal_rcc_ex.c:514:16
	ldr	r3, [r1, #76]
	movs	r2, #3
	ands	r2, r3
.Ltmp93:
	@DEBUG_VALUE: HAL_RCCEx_GetPeriphCLKFreq:srcclk <- $r2
	.loc	5 0 16 is_stmt 0                @ ../Drivers/STM32L0xx_HAL_Driver/Src/stm32l0xx_hal_rcc_ex.c:0:16
	.p2align	2
	add	r2, pc
	ldrb	r2, [r2, #4]
	lsls	r2, r2, #1
.LCPI2_11:
	add	pc, r2
.Ltmp94:
@ %bb.5:
	.p2align	2
.LJTI2_3:
	.byte	(.LBB2_6-(.LCPI2_11+4))/2
	.byte	(.LBB2_37-(.LCPI2_11+4))/2
	.byte	(.LBB2_34-(.LCPI2_11+4))/2
	.byte	(.LBB2_26-(.LCPI2_11+4))/2
	.p2align	1
.LBB2_6:
.Ltmp95:
	@DEBUG_VALUE: HAL_RCCEx_GetPeriphCLKFreq:frequency <- 0
	.loc	5 519 21 is_stmt 1              @ ../Drivers/STM32L0xx_HAL_Driver/Src/stm32l0xx_hal_rcc_ex.c:519:21
	bl	HAL_RCC_GetPCLK2Freq
.Ltmp96:
	@DEBUG_VALUE: HAL_RCCEx_GetPeriphCLKFreq:frequency <- $r0
	.loc	5 0 21 is_stmt 0                @ ../Drivers/STM32L0xx_HAL_Driver/Src/stm32l0xx_hal_rcc_ex.c:0:21
	b	.LBB2_52
.Ltmp97:
.LBB2_7:
	@DEBUG_VALUE: HAL_RCCEx_GetPeriphCLKFreq:PeriphClk <- $r1
	@DEBUG_VALUE: HAL_RCCEx_GetPeriphCLKFreq:frequency <- 0
	.loc	5 393 3 is_stmt 1               @ ../Drivers/STM32L0xx_HAL_Driver/Src/stm32l0xx_hal_rcc_ex.c:393:3
	cmp	r1, #255
	bgt	.LBB2_15
.Ltmp98:
@ %bb.8:
	@DEBUG_VALUE: HAL_RCCEx_GetPeriphCLKFreq:PeriphClk <- $r1
	@DEBUG_VALUE: HAL_RCCEx_GetPeriphCLKFreq:frequency <- 0
	cmp	r1, #32
	beq	.LBB2_17
.Ltmp99:
@ %bb.9:
	@DEBUG_VALUE: HAL_RCCEx_GetPeriphCLKFreq:PeriphClk <- $r1
	@DEBUG_VALUE: HAL_RCCEx_GetPeriphCLKFreq:frequency <- 0
	cmp	r1, #64
	beq	.LBB2_10
	b	.LBB2_52
.Ltmp100:
.LBB2_10:
	@DEBUG_VALUE: HAL_RCCEx_GetPeriphCLKFreq:PeriphClk <- $r1
	@DEBUG_VALUE: HAL_RCCEx_GetPeriphCLKFreq:frequency <- 0
	.loc	5 0 3 is_stmt 0                 @ ../Drivers/STM32L0xx_HAL_Driver/Src/stm32l0xx_hal_rcc_ex.c:0:3
	ldr	r2, __arm_cp.2_0
.Ltmp101:
	.loc	5 463 16 is_stmt 1              @ ../Drivers/STM32L0xx_HAL_Driver/Src/stm32l0xx_hal_rcc_ex.c:463:16
	ldr	r1, [r2, #76]
.Ltmp102:
	.loc	5 465 11                        @ ../Drivers/STM32L0xx_HAL_Driver/Src/stm32l0xx_hal_rcc_ex.c:465:11
	lsls	r1, r1, #5
.Ltmp103:
	@DEBUG_VALUE: HAL_RCCEx_GetPeriphCLKFreq:srcclk <- $r1
	.loc	5 0 11 is_stmt 0                @ ../Drivers/STM32L0xx_HAL_Driver/Src/stm32l0xx_hal_rcc_ex.c:0:11
	bpl	.LBB2_11
	b	.LBB2_41
.Ltmp104:
.LBB2_11:
	@DEBUG_VALUE: HAL_RCCEx_GetPeriphCLKFreq:srcclk <- $r1
	@DEBUG_VALUE: HAL_RCCEx_GetPeriphCLKFreq:frequency <- 0
	.loc	5 467 13 is_stmt 1              @ ../Drivers/STM32L0xx_HAL_Driver/Src/stm32l0xx_hal_rcc_ex.c:467:13
	ldr	r1, [r2]
.Ltmp105:
	.loc	5 467 13 is_stmt 0              @ ../Drivers/STM32L0xx_HAL_Driver/Src/stm32l0xx_hal_rcc_ex.c:467:13
	lsls	r1, r1, #6
	bmi	.LBB2_12
	b	.LBB2_52
.Ltmp106:
.LBB2_12:
	@DEBUG_VALUE: HAL_RCCEx_GetPeriphCLKFreq:frequency <- 0
	.loc	5 470 25 is_stmt 1              @ ../Drivers/STM32L0xx_HAL_Driver/Src/stm32l0xx_hal_rcc_ex.c:470:25
	ldr	r0, [r2, #12]
.Ltmp107:
	@DEBUG_VALUE: HAL_RCCEx_GetPeriphCLKFreq:pllmul <- [DW_OP_constu 3932160, DW_OP_and, DW_OP_stack_value] $r0
	.loc	5 472 40                        @ ../Drivers/STM32L0xx_HAL_Driver/Src/stm32l0xx_hal_rcc_ex.c:472:40
	lsls	r0, r0, #10
.Ltmp108:
	lsrs	r0, r0, #28
	.loc	5 472 20 is_stmt 0              @ ../Drivers/STM32L0xx_HAL_Driver/Src/stm32l0xx_hal_rcc_ex.c:472:20
	ldr	r1, __arm_cp.2_4
	ldrb	r0, [r1, r0]
	.loc	5 471 25 is_stmt 1              @ ../Drivers/STM32L0xx_HAL_Driver/Src/stm32l0xx_hal_rcc_ex.c:471:25
	ldr	r1, [r2, #12]
.Ltmp109:
	@DEBUG_VALUE: HAL_RCCEx_GetPeriphCLKFreq:plldiv <- [DW_OP_constu 12582912, DW_OP_and, DW_OP_stack_value] $r1
	@DEBUG_VALUE: HAL_RCCEx_GetPeriphCLKFreq:pllmul <- $r0
	.loc	5 473 28                        @ ../Drivers/STM32L0xx_HAL_Driver/Src/stm32l0xx_hal_rcc_ex.c:473:28
	lsls	r1, r1, #8
.Ltmp110:
	lsrs	r1, r1, #30
	.loc	5 473 52 is_stmt 0              @ ../Drivers/STM32L0xx_HAL_Driver/Src/stm32l0xx_hal_rcc_ex.c:473:52
	adds	r1, r1, #1
.Ltmp111:
	@DEBUG_VALUE: HAL_RCCEx_GetPeriphCLKFreq:plldiv <- $r1
	.loc	5 476 14 is_stmt 1              @ ../Drivers/STM32L0xx_HAL_Driver/Src/stm32l0xx_hal_rcc_ex.c:476:14
	ldr	r3, [r2, #12]
.Ltmp112:
	.loc	5 476 14 is_stmt 0              @ ../Drivers/STM32L0xx_HAL_Driver/Src/stm32l0xx_hal_rcc_ex.c:476:14
	lsls	r3, r3, #15
	bpl	.LBB2_13
	b	.LBB2_49
.Ltmp113:
.LBB2_13:
	@DEBUG_VALUE: HAL_RCCEx_GetPeriphCLKFreq:plldiv <- $r1
	@DEBUG_VALUE: HAL_RCCEx_GetPeriphCLKFreq:pllmul <- $r0
	@DEBUG_VALUE: HAL_RCCEx_GetPeriphCLKFreq:frequency <- 0
	.loc	5 478 17 is_stmt 1              @ ../Drivers/STM32L0xx_HAL_Driver/Src/stm32l0xx_hal_rcc_ex.c:478:17
	ldr	r2, [r2]
	lsls	r2, r2, #27
	bmi	.LBB2_14
	b	.LBB2_50
.Ltmp114:
.LBB2_14:
	@DEBUG_VALUE: HAL_RCCEx_GetPeriphCLKFreq:plldiv <- $r1
	@DEBUG_VALUE: HAL_RCCEx_GetPeriphCLKFreq:pllmul <- $r0
	@DEBUG_VALUE: HAL_RCCEx_GetPeriphCLKFreq:frequency <- 0
	.loc	5 0 17 is_stmt 0                @ ../Drivers/STM32L0xx_HAL_Driver/Src/stm32l0xx_hal_rcc_ex.c:0:17
	ldr	r2, __arm_cp.2_2
	b	.LBB2_51
.Ltmp115:
.LBB2_15:
	@DEBUG_VALUE: HAL_RCCEx_GetPeriphCLKFreq:PeriphClk <- $r1
	@DEBUG_VALUE: HAL_RCCEx_GetPeriphCLKFreq:frequency <- 0
	movs	r2, #1
	lsls	r3, r2, #8
	.loc	5 393 3 is_stmt 1               @ ../Drivers/STM32L0xx_HAL_Driver/Src/stm32l0xx_hal_rcc_ex.c:393:3
	cmp	r1, r3
	beq	.LBB2_30
.Ltmp116:
@ %bb.16:
	@DEBUG_VALUE: HAL_RCCEx_GetPeriphCLKFreq:PeriphClk <- $r1
	@DEBUG_VALUE: HAL_RCCEx_GetPeriphCLKFreq:frequency <- 0
	.loc	5 0 3 is_stmt 0                 @ ../Drivers/STM32L0xx_HAL_Driver/Src/stm32l0xx_hal_rcc_ex.c:0:3
	lsls	r2, r2, #11
	.loc	5 393 3                         @ ../Drivers/STM32L0xx_HAL_Driver/Src/stm32l0xx_hal_rcc_ex.c:393:3
	cmp	r1, r2
	beq	.LBB2_17
	b	.LBB2_52
.Ltmp117:
.LBB2_17:
	@DEBUG_VALUE: HAL_RCCEx_GetPeriphCLKFreq:PeriphClk <- $r1
	@DEBUG_VALUE: HAL_RCCEx_GetPeriphCLKFreq:frequency <- 0
	.loc	5 0 3                           @ ../Drivers/STM32L0xx_HAL_Driver/Src/stm32l0xx_hal_rcc_ex.c:0:3
	movs	r1, #1
.Ltmp118:
	ldr	r2, __arm_cp.2_0
.Ltmp119:
	.loc	5 401 23 is_stmt 1              @ ../Drivers/STM32L0xx_HAL_Driver/Src/stm32l0xx_hal_rcc_ex.c:401:23
	ldr	r3, [r2, #80]
.Ltmp120:
	@DEBUG_VALUE: HAL_RCCEx_GetPeriphCLKFreq:temp_reg <- $r3
	.loc	5 0 23 is_stmt 0                @ ../Drivers/STM32L0xx_HAL_Driver/Src/stm32l0xx_hal_rcc_ex.c:0:23
	movs	r4, #3
	lsls	r6, r4, #16
	.loc	5 404 16 is_stmt 1              @ ../Drivers/STM32L0xx_HAL_Driver/Src/stm32l0xx_hal_rcc_ex.c:404:16
	ldr	r5, [r2, #80]
	ands	r5, r6
.Ltmp121:
	@DEBUG_VALUE: HAL_RCCEx_GetPeriphCLKFreq:srcclk <- $r5
	.loc	5 0 16 is_stmt 0                @ ../Drivers/STM32L0xx_HAL_Driver/Src/stm32l0xx_hal_rcc_ex.c:0:16
	lsls	r7, r1, #16
.Ltmp122:
	.loc	5 407 44 is_stmt 1              @ ../Drivers/STM32L0xx_HAL_Driver/Src/stm32l0xx_hal_rcc_ex.c:407:44
	cmp	r5, r7
	bne	.LBB2_38
.Ltmp123:
@ %bb.18:
	@DEBUG_VALUE: HAL_RCCEx_GetPeriphCLKFreq:srcclk <- $r5
	@DEBUG_VALUE: HAL_RCCEx_GetPeriphCLKFreq:temp_reg <- $r3
	@DEBUG_VALUE: HAL_RCCEx_GetPeriphCLKFreq:frequency <- 0
	.loc	5 0 44 is_stmt 0                @ ../Drivers/STM32L0xx_HAL_Driver/Src/stm32l0xx_hal_rcc_ex.c:0:44
	lsls	r7, r1, #9
	ands	r7, r3
	.loc	5 407 44                        @ ../Drivers/STM32L0xx_HAL_Driver/Src/stm32l0xx_hal_rcc_ex.c:407:44
	beq	.LBB2_38
.Ltmp124:
@ %bb.19:
	@DEBUG_VALUE: HAL_RCCEx_GetPeriphCLKFreq:srcclk <- $r5
	@DEBUG_VALUE: HAL_RCCEx_GetPeriphCLKFreq:temp_reg <- $r3
	@DEBUG_VALUE: HAL_RCCEx_GetPeriphCLKFreq:frequency <- 0
	.loc	5 0 44                          @ ../Drivers/STM32L0xx_HAL_Driver/Src/stm32l0xx_hal_rcc_ex.c:0:44
	lsls	r0, r1, #15
	b	.LBB2_52
.Ltmp125:
.LBB2_20:
	@DEBUG_VALUE: HAL_RCCEx_GetPeriphCLKFreq:PeriphClk <- $r1
	@DEBUG_VALUE: HAL_RCCEx_GetPeriphCLKFreq:frequency <- 0
	.loc	5 393 3 is_stmt 1               @ ../Drivers/STM32L0xx_HAL_Driver/Src/stm32l0xx_hal_rcc_ex.c:393:3
	cmp	r1, #16
	bne	.LBB2_52
.Ltmp126:
@ %bb.21:
	@DEBUG_VALUE: HAL_RCCEx_GetPeriphCLKFreq:PeriphClk <- $r1
	@DEBUG_VALUE: HAL_RCCEx_GetPeriphCLKFreq:frequency <- 0
	.loc	5 0 3 is_stmt 0                 @ ../Drivers/STM32L0xx_HAL_Driver/Src/stm32l0xx_hal_rcc_ex.c:0:3
	ldr	r1, __arm_cp.2_0
.Ltmp127:
	.loc	5 689 11 is_stmt 1              @ ../Drivers/STM32L0xx_HAL_Driver/Src/stm32l0xx_hal_rcc_ex.c:689:11
	ldr	r1, [r1, #56]
.Ltmp128:
	.loc	5 689 11 is_stmt 0              @ ../Drivers/STM32L0xx_HAL_Driver/Src/stm32l0xx_hal_rcc_ex.c:689:11
	lsls	r1, r1, #9
	bmi	.LBB2_33
	b	.LBB2_52
.Ltmp129:
.LBB2_22:
	@DEBUG_VALUE: HAL_RCCEx_GetPeriphCLKFreq:frequency <- 0
	.loc	5 0 11                          @ ../Drivers/STM32L0xx_HAL_Driver/Src/stm32l0xx_hal_rcc_ex.c:0:11
	ldr	r1, __arm_cp.2_0
.Ltmp130:
	.loc	5 560 16 is_stmt 1              @ ../Drivers/STM32L0xx_HAL_Driver/Src/stm32l0xx_hal_rcc_ex.c:560:16
	ldr	r2, [r1, #76]
.Ltmp131:
	@DEBUG_VALUE: HAL_RCCEx_GetPeriphCLKFreq:srcclk <- [DW_OP_constu 12, DW_OP_and, DW_OP_stack_value] $r2
	.loc	5 563 11                        @ ../Drivers/STM32L0xx_HAL_Driver/Src/stm32l0xx_hal_rcc_ex.c:563:11
	lsls	r2, r2, #28
.Ltmp132:
	lsrs	r2, r2, #30
	.p2align	2
	add	r2, pc
	ldrb	r2, [r2, #4]
	lsls	r2, r2, #1
.LCPI2_12:
	add	pc, r2
.Ltmp133:
@ %bb.23:
	.loc	5 0 11 is_stmt 0                @ ../Drivers/STM32L0xx_HAL_Driver/Src/stm32l0xx_hal_rcc_ex.c:0:11
	.p2align	2
.LJTI2_2:
	.byte	(.LBB2_33-(.LCPI2_12+4))/2
	.byte	(.LBB2_37-(.LCPI2_12+4))/2
	.byte	(.LBB2_34-(.LCPI2_12+4))/2
	.byte	(.LBB2_26-(.LCPI2_12+4))/2
	.p2align	1
.LBB2_24:
.Ltmp134:
	@DEBUG_VALUE: HAL_RCCEx_GetPeriphCLKFreq:frequency <- 0
	ldr	r1, __arm_cp.2_0
.Ltmp135:
	.loc	5 605 16 is_stmt 1              @ ../Drivers/STM32L0xx_HAL_Driver/Src/stm32l0xx_hal_rcc_ex.c:605:16
	ldr	r2, [r1, #76]
.Ltmp136:
	@DEBUG_VALUE: HAL_RCCEx_GetPeriphCLKFreq:srcclk <- [DW_OP_constu 3072, DW_OP_and, DW_OP_stack_value] $r2
	.loc	5 608 11                        @ ../Drivers/STM32L0xx_HAL_Driver/Src/stm32l0xx_hal_rcc_ex.c:608:11
	lsls	r2, r2, #20
.Ltmp137:
	lsrs	r2, r2, #30
	.p2align	2
	add	r2, pc
	ldrb	r2, [r2, #4]
	lsls	r2, r2, #1
.LCPI2_13:
	add	pc, r2
.Ltmp138:
@ %bb.25:
	.loc	5 0 11 is_stmt 0                @ ../Drivers/STM32L0xx_HAL_Driver/Src/stm32l0xx_hal_rcc_ex.c:0:11
	.p2align	2
.LJTI2_1:
	.byte	(.LBB2_33-(.LCPI2_13+4))/2
	.byte	(.LBB2_37-(.LCPI2_13+4))/2
	.byte	(.LBB2_34-(.LCPI2_13+4))/2
	.byte	(.LBB2_26-(.LCPI2_13+4))/2
	.p2align	1
.LBB2_26:
.Ltmp139:
	@DEBUG_VALUE: HAL_RCCEx_GetPeriphCLKFreq:frequency <- 0
	movs	r0, #1
	lsls	r2, r0, #15
	ldr	r0, [r1, #80]
	lsls	r0, r0, #6
	ands	r0, r2
	b	.LBB2_52
.Ltmp140:
.LBB2_27:
	@DEBUG_VALUE: HAL_RCCEx_GetPeriphCLKFreq:frequency <- 0
	movs	r1, #3
	lsls	r3, r1, #12
	ldr	r1, __arm_cp.2_0
.Ltmp141:
	.loc	5 650 16 is_stmt 1              @ ../Drivers/STM32L0xx_HAL_Driver/Src/stm32l0xx_hal_rcc_ex.c:650:16
	ldr	r2, [r1, #76]
	ands	r2, r3
.Ltmp142:
	@DEBUG_VALUE: HAL_RCCEx_GetPeriphCLKFreq:srcclk <- $r2
	.loc	5 0 16 is_stmt 0                @ ../Drivers/STM32L0xx_HAL_Driver/Src/stm32l0xx_hal_rcc_ex.c:0:16
	movs	r3, #1
	lsls	r4, r3, #13
	.loc	5 653 11 is_stmt 1              @ ../Drivers/STM32L0xx_HAL_Driver/Src/stm32l0xx_hal_rcc_ex.c:653:11
	cmp	r2, r4
	beq	.LBB2_34
.Ltmp143:
@ %bb.28:
	@DEBUG_VALUE: HAL_RCCEx_GetPeriphCLKFreq:srcclk <- $r2
	@DEBUG_VALUE: HAL_RCCEx_GetPeriphCLKFreq:frequency <- 0
	.loc	5 0 11 is_stmt 0                @ ../Drivers/STM32L0xx_HAL_Driver/Src/stm32l0xx_hal_rcc_ex.c:0:11
	lsls	r1, r3, #12
	.loc	5 653 11                        @ ../Drivers/STM32L0xx_HAL_Driver/Src/stm32l0xx_hal_rcc_ex.c:653:11
	cmp	r2, r1
	beq	.LBB2_37
.Ltmp144:
@ %bb.29:
	@DEBUG_VALUE: HAL_RCCEx_GetPeriphCLKFreq:srcclk <- $r2
	@DEBUG_VALUE: HAL_RCCEx_GetPeriphCLKFreq:frequency <- 0
	cmp	r2, #0
	beq	.LBB2_33
	b	.LBB2_52
.Ltmp145:
.LBB2_30:
	@DEBUG_VALUE: HAL_RCCEx_GetPeriphCLKFreq:PeriphClk <- $r1
	@DEBUG_VALUE: HAL_RCCEx_GetPeriphCLKFreq:frequency <- 0
	.loc	5 0 11                          @ ../Drivers/STM32L0xx_HAL_Driver/Src/stm32l0xx_hal_rcc_ex.c:0:11
	movs	r1, #3
.Ltmp146:
	lsls	r4, r1, #16
	ldr	r1, __arm_cp.2_0
.Ltmp147:
	.loc	5 705 16 is_stmt 1              @ ../Drivers/STM32L0xx_HAL_Driver/Src/stm32l0xx_hal_rcc_ex.c:705:16
	ldr	r3, [r1, #76]
	ands	r3, r4
.Ltmp148:
	@DEBUG_VALUE: HAL_RCCEx_GetPeriphCLKFreq:srcclk <- $r3
	.loc	5 0 16 is_stmt 0                @ ../Drivers/STM32L0xx_HAL_Driver/Src/stm32l0xx_hal_rcc_ex.c:0:16
	lsls	r4, r2, #17
	.loc	5 708 11 is_stmt 1              @ ../Drivers/STM32L0xx_HAL_Driver/Src/stm32l0xx_hal_rcc_ex.c:708:11
	cmp	r3, r4
	beq	.LBB2_34
.Ltmp149:
@ %bb.31:
	@DEBUG_VALUE: HAL_RCCEx_GetPeriphCLKFreq:srcclk <- $r3
	@DEBUG_VALUE: HAL_RCCEx_GetPeriphCLKFreq:frequency <- 0
	.loc	5 0 11 is_stmt 0                @ ../Drivers/STM32L0xx_HAL_Driver/Src/stm32l0xx_hal_rcc_ex.c:0:11
	lsls	r1, r2, #16
	.loc	5 708 11                        @ ../Drivers/STM32L0xx_HAL_Driver/Src/stm32l0xx_hal_rcc_ex.c:708:11
	cmp	r3, r1
	beq	.LBB2_37
.Ltmp150:
@ %bb.32:
	@DEBUG_VALUE: HAL_RCCEx_GetPeriphCLKFreq:srcclk <- $r3
	@DEBUG_VALUE: HAL_RCCEx_GetPeriphCLKFreq:frequency <- 0
	cmp	r3, #0
	bne	.LBB2_52
.Ltmp151:
.LBB2_33:
	@DEBUG_VALUE: HAL_RCCEx_GetPeriphCLKFreq:frequency <- 0
	.loc	5 0 0                           @ ../Drivers/STM32L0xx_HAL_Driver/Src/stm32l0xx_hal_rcc_ex.c:0:0
	bl	HAL_RCC_GetPCLK1Freq
.Ltmp152:
	@DEBUG_VALUE: HAL_RCCEx_GetPeriphCLKFreq:frequency <- $r0
	b	.LBB2_52
.Ltmp153:
.LBB2_34:
	@DEBUG_VALUE: HAL_RCCEx_GetPeriphCLKFreq:frequency <- 0
	ldr	r2, [r1]
	lsls	r2, r2, #29
	bpl	.LBB2_52
.Ltmp154:
@ %bb.35:
	@DEBUG_VALUE: HAL_RCCEx_GetPeriphCLKFreq:frequency <- 0
	ldr	r0, [r1]
	lsls	r0, r0, #27
	bpl	.LBB2_48
.Ltmp155:
.LBB2_36:
	@DEBUG_VALUE: HAL_RCCEx_GetPeriphCLKFreq:frequency <- 0
	@DEBUG_VALUE: HAL_RCCEx_GetPeriphCLKFreq:frequency <- 4000000
	ldr	r0, __arm_cp.2_2
	b	.LBB2_52
.Ltmp156:
.LBB2_37:
	@DEBUG_VALUE: HAL_RCCEx_GetPeriphCLKFreq:frequency <- 0
	bl	HAL_RCC_GetSysClockFreq
.Ltmp157:
	@DEBUG_VALUE: HAL_RCCEx_GetPeriphCLKFreq:frequency <- $r0
	b	.LBB2_52
.Ltmp158:
.LBB2_38:
	@DEBUG_VALUE: HAL_RCCEx_GetPeriphCLKFreq:srcclk <- $r5
	@DEBUG_VALUE: HAL_RCCEx_GetPeriphCLKFreq:temp_reg <- $r3
	@DEBUG_VALUE: HAL_RCCEx_GetPeriphCLKFreq:frequency <- 0
	.loc	5 412 16 is_stmt 1              @ ../Drivers/STM32L0xx_HAL_Driver/Src/stm32l0xx_hal_rcc_ex.c:412:16
	cmp	r5, r6
	beq	.LBB2_43
.Ltmp159:
@ %bb.39:
	@DEBUG_VALUE: HAL_RCCEx_GetPeriphCLKFreq:srcclk <- $r5
	@DEBUG_VALUE: HAL_RCCEx_GetPeriphCLKFreq:temp_reg <- $r3
	@DEBUG_VALUE: HAL_RCCEx_GetPeriphCLKFreq:frequency <- 0
	.loc	5 0 16 is_stmt 0                @ ../Drivers/STM32L0xx_HAL_Driver/Src/stm32l0xx_hal_rcc_ex.c:0:16
	lsls	r1, r1, #17
	.loc	5 412 16                        @ ../Drivers/STM32L0xx_HAL_Driver/Src/stm32l0xx_hal_rcc_ex.c:412:16
	cmp	r5, r1
	bne	.LBB2_52
.Ltmp160:
@ %bb.40:
	@DEBUG_VALUE: HAL_RCCEx_GetPeriphCLKFreq:srcclk <- $r5
	@DEBUG_VALUE: HAL_RCCEx_GetPeriphCLKFreq:temp_reg <- $r3
	@DEBUG_VALUE: HAL_RCCEx_GetPeriphCLKFreq:frequency <- 0
	.loc	5 414 13 is_stmt 1              @ ../Drivers/STM32L0xx_HAL_Driver/Src/stm32l0xx_hal_rcc_ex.c:414:13
	lsls	r0, r3, #30
	asrs	r1, r0, #31
	ldr	r0, __arm_cp.2_9
	b	.LBB2_42
.Ltmp161:
.LBB2_41:
	@DEBUG_VALUE: HAL_RCCEx_GetPeriphCLKFreq:srcclk <- $r1
	@DEBUG_VALUE: HAL_RCCEx_GetPeriphCLKFreq:frequency <- 0
	.loc	5 498 13                        @ ../Drivers/STM32L0xx_HAL_Driver/Src/stm32l0xx_hal_rcc_ex.c:498:13
	ldr	r0, [r2, #8]
	lsls	r0, r0, #30
	asrs	r1, r0, #31
.Ltmp162:
	.loc	5 0 13 is_stmt 0                @ ../Drivers/STM32L0xx_HAL_Driver/Src/stm32l0xx_hal_rcc_ex.c:0:13
	ldr	r0, __arm_cp.2_3
.Ltmp163:
.LBB2_42:
	@DEBUG_VALUE: HAL_RCCEx_GetPeriphCLKFreq:frequency <- 0
	ands	r0, r1
	b	.LBB2_52
.Ltmp164:
.LBB2_43:
	@DEBUG_VALUE: HAL_RCCEx_GetPeriphCLKFreq:srcclk <- $r5
	@DEBUG_VALUE: HAL_RCCEx_GetPeriphCLKFreq:temp_reg <- $r3
	@DEBUG_VALUE: HAL_RCCEx_GetPeriphCLKFreq:frequency <- 0
	.loc	5 422 13 is_stmt 1              @ ../Drivers/STM32L0xx_HAL_Driver/Src/stm32l0xx_hal_rcc_ex.c:422:13
	ldr	r3, [r2]
.Ltmp165:
	.loc	5 422 13 is_stmt 0              @ ../Drivers/STM32L0xx_HAL_Driver/Src/stm32l0xx_hal_rcc_ex.c:422:13
	lsls	r3, r3, #14
	bpl	.LBB2_52
.Ltmp166:
@ %bb.44:
	@DEBUG_VALUE: HAL_RCCEx_GetPeriphCLKFreq:srcclk <- $r5
	@DEBUG_VALUE: HAL_RCCEx_GetPeriphCLKFreq:frequency <- 0
	.loc	5 0 13                          @ ../Drivers/STM32L0xx_HAL_Driver/Src/stm32l0xx_hal_rcc_ex.c:0:13
	lsls	r3, r4, #20
.Ltmp167:
	.loc	5 425 23 is_stmt 1              @ ../Drivers/STM32L0xx_HAL_Driver/Src/stm32l0xx_hal_rcc_ex.c:425:23
	ldr	r0, [r2]
	ands	r0, r3
.Ltmp168:
	@DEBUG_VALUE: HAL_RCCEx_GetPeriphCLKFreq:clkprediv <- $r0
	.loc	5 0 23 is_stmt 0                @ ../Drivers/STM32L0xx_HAL_Driver/Src/stm32l0xx_hal_rcc_ex.c:0:23
	lsls	r2, r1, #20
	.loc	5 427 11 is_stmt 1              @ ../Drivers/STM32L0xx_HAL_Driver/Src/stm32l0xx_hal_rcc_ex.c:427:11
	cmp	r0, r2
	beq	.LBB2_53
.Ltmp169:
@ %bb.45:
	@DEBUG_VALUE: HAL_RCCEx_GetPeriphCLKFreq:clkprediv <- $r0
	@DEBUG_VALUE: HAL_RCCEx_GetPeriphCLKFreq:srcclk <- $r5
	@DEBUG_VALUE: HAL_RCCEx_GetPeriphCLKFreq:frequency <- 0
	cmp	r0, r3
	beq	.LBB2_54
.Ltmp170:
@ %bb.46:
	@DEBUG_VALUE: HAL_RCCEx_GetPeriphCLKFreq:clkprediv <- $r0
	@DEBUG_VALUE: HAL_RCCEx_GetPeriphCLKFreq:srcclk <- $r5
	@DEBUG_VALUE: HAL_RCCEx_GetPeriphCLKFreq:frequency <- 0
	.loc	5 0 11 is_stmt 0                @ ../Drivers/STM32L0xx_HAL_Driver/Src/stm32l0xx_hal_rcc_ex.c:0:11
	lsls	r1, r1, #21
	.loc	5 427 11                        @ ../Drivers/STM32L0xx_HAL_Driver/Src/stm32l0xx_hal_rcc_ex.c:427:11
	cmp	r0, r1
	bne	.LBB2_36
.Ltmp171:
@ %bb.47:
	@DEBUG_VALUE: HAL_RCCEx_GetPeriphCLKFreq:clkprediv <- $r0
	@DEBUG_VALUE: HAL_RCCEx_GetPeriphCLKFreq:srcclk <- $r5
	@DEBUG_VALUE: HAL_RCCEx_GetPeriphCLKFreq:frequency <- 0
	@DEBUG_VALUE: HAL_RCCEx_GetPeriphCLKFreq:frequency <- 1000000
	.loc	5 0 11                          @ ../Drivers/STM32L0xx_HAL_Driver/Src/stm32l0xx_hal_rcc_ex.c:0:11
	ldr	r0, __arm_cp.2_8
.Ltmp172:
	b	.LBB2_52
.Ltmp173:
.LBB2_48:
	@DEBUG_VALUE: HAL_RCCEx_GetPeriphCLKFreq:frequency <- 0
	ldr	r0, __arm_cp.2_1
	b	.LBB2_52
.Ltmp174:
.LBB2_49:
	@DEBUG_VALUE: HAL_RCCEx_GetPeriphCLKFreq:plldiv <- $r1
	@DEBUG_VALUE: HAL_RCCEx_GetPeriphCLKFreq:pllmul <- $r0
	@DEBUG_VALUE: HAL_RCCEx_GetPeriphCLKFreq:frequency <- 0
	ldr	r2, __arm_cp.2_5
	b	.LBB2_51
.Ltmp175:
.LBB2_50:
	@DEBUG_VALUE: HAL_RCCEx_GetPeriphCLKFreq:plldiv <- $r1
	@DEBUG_VALUE: HAL_RCCEx_GetPeriphCLKFreq:pllmul <- $r0
	@DEBUG_VALUE: HAL_RCCEx_GetPeriphCLKFreq:frequency <- 0
	ldr	r2, __arm_cp.2_1
.Ltmp176:
.LBB2_51:
	@DEBUG_VALUE: HAL_RCCEx_GetPeriphCLKFreq:plldiv <- $r1
	@DEBUG_VALUE: HAL_RCCEx_GetPeriphCLKFreq:pllmul <- $r0
	@DEBUG_VALUE: HAL_RCCEx_GetPeriphCLKFreq:frequency <- 0
	@DEBUG_VALUE: HAL_RCCEx_GetPeriphCLKFreq:pllvco <- $r2
	.loc	5 492 28 is_stmt 1              @ ../Drivers/STM32L0xx_HAL_Driver/Src/stm32l0xx_hal_rcc_ex.c:492:28
	muls	r0, r2, r0
.Ltmp177:
	@DEBUG_VALUE: HAL_RCCEx_GetPeriphCLKFreq:pllvco <- $r0
	.loc	5 493 30                        @ ../Drivers/STM32L0xx_HAL_Driver/Src/stm32l0xx_hal_rcc_ex.c:493:30
	bl	__aeabi_uidiv
.Ltmp178:
	@DEBUG_VALUE: HAL_RCCEx_GetPeriphCLKFreq:frequency <- $r0
.LBB2_52:
	@DEBUG_VALUE: HAL_RCCEx_GetPeriphCLKFreq:frequency <- $r0
	.loc	5 745 3                         @ ../Drivers/STM32L0xx_HAL_Driver/Src/stm32l0xx_hal_rcc_ex.c:745:3
	add	sp, #4
	pop	{r4, r5, r6, r7, pc}
.Ltmp179:
.LBB2_53:
	@DEBUG_VALUE: HAL_RCCEx_GetPeriphCLKFreq:clkprediv <- $r0
	@DEBUG_VALUE: HAL_RCCEx_GetPeriphCLKFreq:srcclk <- $r5
	@DEBUG_VALUE: HAL_RCCEx_GetPeriphCLKFreq:frequency <- 0
	@DEBUG_VALUE: HAL_RCCEx_GetPeriphCLKFreq:frequency <- 2000000
	.loc	5 0 3 is_stmt 0                 @ ../Drivers/STM32L0xx_HAL_Driver/Src/stm32l0xx_hal_rcc_ex.c:0:3
	ldr	r0, __arm_cp.2_7
.Ltmp180:
	b	.LBB2_52
.Ltmp181:
.LBB2_54:
	@DEBUG_VALUE: HAL_RCCEx_GetPeriphCLKFreq:clkprediv <- $r0
	@DEBUG_VALUE: HAL_RCCEx_GetPeriphCLKFreq:srcclk <- $r5
	@DEBUG_VALUE: HAL_RCCEx_GetPeriphCLKFreq:frequency <- 0
	ldr	r0, __arm_cp.2_6
.Ltmp182:
	b	.LBB2_52
.Ltmp183:
	.p2align	2
@ %bb.55:
__arm_cp.2_0:
	.long	1073876992                      @ 0x40021000
.Lcpi_end5:
	.size	__arm_cp.2_0, .Lcpi_end5-__arm_cp.2_0
__arm_cp.2_1:
	.long	16000000                        @ 0xf42400
.Lcpi_end6:
	.size	__arm_cp.2_1, .Lcpi_end6-__arm_cp.2_1
__arm_cp.2_2:
	.long	4000000                         @ 0x3d0900
.Lcpi_end7:
	.size	__arm_cp.2_2, .Lcpi_end7-__arm_cp.2_2
__arm_cp.2_3:
	.long	48000000                        @ 0x2dc6c00
.Lcpi_end8:
	.size	__arm_cp.2_3, .Lcpi_end8-__arm_cp.2_3
__arm_cp.2_4:
	.long	PLLMulTable
.Lcpi_end9:
	.size	__arm_cp.2_4, .Lcpi_end9-__arm_cp.2_4
__arm_cp.2_5:
	.long	8000000                         @ 0x7a1200
.Lcpi_end10:
	.size	__arm_cp.2_5, .Lcpi_end10-__arm_cp.2_5
__arm_cp.2_6:
	.long	500000                          @ 0x7a120
.Lcpi_end11:
	.size	__arm_cp.2_6, .Lcpi_end11-__arm_cp.2_6
__arm_cp.2_7:
	.long	2000000                         @ 0x1e8480
.Lcpi_end12:
	.size	__arm_cp.2_7, .Lcpi_end12-__arm_cp.2_7
__arm_cp.2_8:
	.long	1000000                         @ 0xf4240
.Lcpi_end13:
	.size	__arm_cp.2_8, .Lcpi_end13-__arm_cp.2_8
__arm_cp.2_9:
	.long	37000                           @ 0x9088
.Lcpi_end14:
	.size	__arm_cp.2_9, .Lcpi_end14-__arm_cp.2_9
.Lfunc_end2:
	.size	HAL_RCCEx_GetPeriphCLKFreq, .Lfunc_end2-HAL_RCCEx_GetPeriphCLKFreq
	.cfi_endproc
	.cantunwind
	.fnend
                                        @ -- End function
	.section	.text.HAL_RCCEx_EnableLSECSS,"ax",%progbits
	.hidden	HAL_RCCEx_EnableLSECSS          @ -- Begin function HAL_RCCEx_EnableLSECSS
	.globl	HAL_RCCEx_EnableLSECSS
	.p2align	2
	.type	HAL_RCCEx_EnableLSECSS,%function
	.code	16                              @ @HAL_RCCEx_EnableLSECSS
	.thumb_func
HAL_RCCEx_EnableLSECSS:
.Lfunc_begin3:
	.loc	5 753 0 is_stmt 1               @ ../Drivers/STM32L0xx_HAL_Driver/Src/stm32l0xx_hal_rcc_ex.c:753:0
	.fnstart
	.cfi_startproc
@ %bb.0:
	movs	r0, #1
	lsls	r0, r0, #13
	ldr	r1, __arm_cp.3_0
.Ltmp184:
	.loc	5 754 3 prologue_end            @ ../Drivers/STM32L0xx_HAL_Driver/Src/stm32l0xx_hal_rcc_ex.c:754:3
	ldr	r2, [r1]
	orrs	r2, r0
	str	r2, [r1]
	.loc	5 755 1                         @ ../Drivers/STM32L0xx_HAL_Driver/Src/stm32l0xx_hal_rcc_ex.c:755:1
	bx	lr
.Ltmp185:
	.p2align	2
@ %bb.1:
	.loc	5 0 1 is_stmt 0                 @ ../Drivers/STM32L0xx_HAL_Driver/Src/stm32l0xx_hal_rcc_ex.c:0:1
__arm_cp.3_0:
	.long	1073877072                      @ 0x40021050
.Lcpi_end15:
	.size	__arm_cp.3_0, .Lcpi_end15-__arm_cp.3_0
.Lfunc_end3:
	.size	HAL_RCCEx_EnableLSECSS, .Lfunc_end3-HAL_RCCEx_EnableLSECSS
	.cfi_endproc
	.cantunwind
	.fnend
                                        @ -- End function
	.section	.text.HAL_RCCEx_DisableLSECSS,"ax",%progbits
	.hidden	HAL_RCCEx_DisableLSECSS         @ -- Begin function HAL_RCCEx_DisableLSECSS
	.globl	HAL_RCCEx_DisableLSECSS
	.p2align	2
	.type	HAL_RCCEx_DisableLSECSS,%function
	.code	16                              @ @HAL_RCCEx_DisableLSECSS
	.thumb_func
HAL_RCCEx_DisableLSECSS:
.Lfunc_begin4:
	.loc	5 765 0 is_stmt 1               @ ../Drivers/STM32L0xx_HAL_Driver/Src/stm32l0xx_hal_rcc_ex.c:765:0
	.fnstart
	.cfi_startproc
@ %bb.0:
	movs	r0, #1
	lsls	r0, r0, #13
	ldr	r1, __arm_cp.4_0
.Ltmp186:
	.loc	5 767 4 prologue_end            @ ../Drivers/STM32L0xx_HAL_Driver/Src/stm32l0xx_hal_rcc_ex.c:767:4
	ldr	r2, [r1, #64]
	bics	r2, r0
	str	r2, [r1, #64]
	.loc	5 770 3                         @ ../Drivers/STM32L0xx_HAL_Driver/Src/stm32l0xx_hal_rcc_ex.c:770:3
	ldr	r0, [r1]
	movs	r2, #128
	bics	r0, r2
	str	r0, [r1]
	.loc	5 771 1                         @ ../Drivers/STM32L0xx_HAL_Driver/Src/stm32l0xx_hal_rcc_ex.c:771:1
	bx	lr
.Ltmp187:
	.p2align	2
@ %bb.1:
	.loc	5 0 1 is_stmt 0                 @ ../Drivers/STM32L0xx_HAL_Driver/Src/stm32l0xx_hal_rcc_ex.c:0:1
__arm_cp.4_0:
	.long	1073877008                      @ 0x40021010
.Lcpi_end16:
	.size	__arm_cp.4_0, .Lcpi_end16-__arm_cp.4_0
.Lfunc_end4:
	.size	HAL_RCCEx_DisableLSECSS, .Lfunc_end4-HAL_RCCEx_DisableLSECSS
	.cfi_endproc
	.cantunwind
	.fnend
                                        @ -- End function
	.section	.text.HAL_RCCEx_EnableLSECSS_IT,"ax",%progbits
	.hidden	HAL_RCCEx_EnableLSECSS_IT       @ -- Begin function HAL_RCCEx_EnableLSECSS_IT
	.globl	HAL_RCCEx_EnableLSECSS_IT
	.p2align	2
	.type	HAL_RCCEx_EnableLSECSS_IT,%function
	.code	16                              @ @HAL_RCCEx_EnableLSECSS_IT
	.thumb_func
HAL_RCCEx_EnableLSECSS_IT:
.Lfunc_begin5:
	.loc	5 779 0 is_stmt 1               @ ../Drivers/STM32L0xx_HAL_Driver/Src/stm32l0xx_hal_rcc_ex.c:779:0
	.fnstart
	.cfi_startproc
@ %bb.0:
	movs	r0, #1
	lsls	r1, r0, #13
	ldr	r2, __arm_cp.5_0
.Ltmp188:
	.loc	5 781 4 prologue_end            @ ../Drivers/STM32L0xx_HAL_Driver/Src/stm32l0xx_hal_rcc_ex.c:781:4
	ldr	r3, [r2, #64]
	orrs	r3, r1
	str	r3, [r2, #64]
	.loc	5 784 3                         @ ../Drivers/STM32L0xx_HAL_Driver/Src/stm32l0xx_hal_rcc_ex.c:784:3
	ldr	r1, [r2]
	movs	r3, #128
	orrs	r3, r1
	str	r3, [r2]
	lsls	r0, r0, #19
	ldr	r1, __arm_cp.5_1
	.loc	5 787 3                         @ ../Drivers/STM32L0xx_HAL_Driver/Src/stm32l0xx_hal_rcc_ex.c:787:3
	ldr	r2, [r1]
	orrs	r2, r0
	str	r2, [r1]
	.loc	5 788 3                         @ ../Drivers/STM32L0xx_HAL_Driver/Src/stm32l0xx_hal_rcc_ex.c:788:3
	ldr	r2, [r1, #8]
	orrs	r2, r0
	str	r2, [r1, #8]
	.loc	5 789 1                         @ ../Drivers/STM32L0xx_HAL_Driver/Src/stm32l0xx_hal_rcc_ex.c:789:1
	bx	lr
.Ltmp189:
	.p2align	2
@ %bb.1:
	.loc	5 0 1 is_stmt 0                 @ ../Drivers/STM32L0xx_HAL_Driver/Src/stm32l0xx_hal_rcc_ex.c:0:1
__arm_cp.5_0:
	.long	1073877008                      @ 0x40021010
.Lcpi_end17:
	.size	__arm_cp.5_0, .Lcpi_end17-__arm_cp.5_0
__arm_cp.5_1:
	.long	1073808384                      @ 0x40010400
.Lcpi_end18:
	.size	__arm_cp.5_1, .Lcpi_end18-__arm_cp.5_1
.Lfunc_end5:
	.size	HAL_RCCEx_EnableLSECSS_IT, .Lfunc_end5-HAL_RCCEx_EnableLSECSS_IT
	.cfi_endproc
	.cantunwind
	.fnend
                                        @ -- End function
	.section	.text.HAL_RCCEx_LSECSS_IRQHandler,"ax",%progbits
	.hidden	HAL_RCCEx_LSECSS_IRQHandler     @ -- Begin function HAL_RCCEx_LSECSS_IRQHandler
	.globl	HAL_RCCEx_LSECSS_IRQHandler
	.p2align	2
	.type	HAL_RCCEx_LSECSS_IRQHandler,%function
	.code	16                              @ @HAL_RCCEx_LSECSS_IRQHandler
	.thumb_func
HAL_RCCEx_LSECSS_IRQHandler:
.Lfunc_begin6:
	.loc	5 796 0 is_stmt 1               @ ../Drivers/STM32L0xx_HAL_Driver/Src/stm32l0xx_hal_rcc_ex.c:796:0
	.fnstart
	.cfi_startproc
@ %bb.0:
	.save	{r4, lr}
	push	{r4, lr}
	.cfi_def_cfa_offset 8
	.cfi_offset lr, -4
	.cfi_offset r4, -8
	ldr	r4, __arm_cp.6_0
.Ltmp190:
	.loc	5 798 6 prologue_end            @ ../Drivers/STM32L0xx_HAL_Driver/Src/stm32l0xx_hal_rcc_ex.c:798:6
	ldr	r0, [r4]
.Ltmp191:
	.loc	5 798 6 is_stmt 0               @ ../Drivers/STM32L0xx_HAL_Driver/Src/stm32l0xx_hal_rcc_ex.c:798:6
	lsls	r0, r0, #24
	bpl	.LBB6_2
@ %bb.1:
.Ltmp192:
	.loc	5 801 5 is_stmt 1               @ ../Drivers/STM32L0xx_HAL_Driver/Src/stm32l0xx_hal_rcc_ex.c:801:5
	bl	HAL_RCCEx_LSECSS_Callback
.Ltmp193:
	.loc	5 0 5 is_stmt 0                 @ ../Drivers/STM32L0xx_HAL_Driver/Src/stm32l0xx_hal_rcc_ex.c:0:5
	movs	r0, #128
	.loc	5 804 5 is_stmt 1               @ ../Drivers/STM32L0xx_HAL_Driver/Src/stm32l0xx_hal_rcc_ex.c:804:5
	str	r0, [r4, #4]
.Ltmp194:
.LBB6_2:
	.loc	5 806 1                         @ ../Drivers/STM32L0xx_HAL_Driver/Src/stm32l0xx_hal_rcc_ex.c:806:1
	pop	{r4, pc}
.Ltmp195:
	.p2align	2
@ %bb.3:
	.loc	5 0 1 is_stmt 0                 @ ../Drivers/STM32L0xx_HAL_Driver/Src/stm32l0xx_hal_rcc_ex.c:0:1
__arm_cp.6_0:
	.long	1073877012                      @ 0x40021014
.Lcpi_end19:
	.size	__arm_cp.6_0, .Lcpi_end19-__arm_cp.6_0
.Lfunc_end6:
	.size	HAL_RCCEx_LSECSS_IRQHandler, .Lfunc_end6-HAL_RCCEx_LSECSS_IRQHandler
	.cfi_endproc
	.cantunwind
	.fnend
                                        @ -- End function
	.section	.text.HAL_RCCEx_LSECSS_Callback,"ax",%progbits
	.hidden	HAL_RCCEx_LSECSS_Callback       @ -- Begin function HAL_RCCEx_LSECSS_Callback
	.weak	HAL_RCCEx_LSECSS_Callback
	.p2align	1
	.type	HAL_RCCEx_LSECSS_Callback,%function
	.code	16                              @ @HAL_RCCEx_LSECSS_Callback
	.thumb_func
HAL_RCCEx_LSECSS_Callback:
.Lfunc_begin7:
	.loc	5 813 0 is_stmt 1               @ ../Drivers/STM32L0xx_HAL_Driver/Src/stm32l0xx_hal_rcc_ex.c:813:0
	.fnstart
	.cfi_startproc
@ %bb.0:
	.loc	5 817 1 prologue_end            @ ../Drivers/STM32L0xx_HAL_Driver/Src/stm32l0xx_hal_rcc_ex.c:817:1
	bx	lr
.Ltmp196:
.Lfunc_end7:
	.size	HAL_RCCEx_LSECSS_Callback, .Lfunc_end7-HAL_RCCEx_LSECSS_Callback
	.cfi_endproc
	.cantunwind
	.fnend
                                        @ -- End function
	.section	.text.HAL_RCCEx_EnableHSI48_VREFINT,"ax",%progbits
	.hidden	HAL_RCCEx_EnableHSI48_VREFINT   @ -- Begin function HAL_RCCEx_EnableHSI48_VREFINT
	.globl	HAL_RCCEx_EnableHSI48_VREFINT
	.p2align	2
	.type	HAL_RCCEx_EnableHSI48_VREFINT,%function
	.code	16                              @ @HAL_RCCEx_EnableHSI48_VREFINT
	.thumb_func
HAL_RCCEx_EnableHSI48_VREFINT:
.Lfunc_begin8:
	.loc	5 826 0                         @ ../Drivers/STM32L0xx_HAL_Driver/Src/stm32l0xx_hal_rcc_ex.c:826:0
	.fnstart
	.cfi_startproc
@ %bb.0:
	movs	r0, #1
	lsls	r0, r0, #13
	ldr	r1, __arm_cp.8_0
.Ltmp197:
	.loc	5 828 3 prologue_end            @ ../Drivers/STM32L0xx_HAL_Driver/Src/stm32l0xx_hal_rcc_ex.c:828:3
	ldr	r2, [r1]
	orrs	r2, r0
	str	r2, [r1]
	.loc	5 829 1                         @ ../Drivers/STM32L0xx_HAL_Driver/Src/stm32l0xx_hal_rcc_ex.c:829:1
	bx	lr
.Ltmp198:
	.p2align	2
@ %bb.1:
	.loc	5 0 1 is_stmt 0                 @ ../Drivers/STM32L0xx_HAL_Driver/Src/stm32l0xx_hal_rcc_ex.c:0:1
__arm_cp.8_0:
	.long	1073807392                      @ 0x40010020
.Lcpi_end20:
	.size	__arm_cp.8_0, .Lcpi_end20-__arm_cp.8_0
.Lfunc_end8:
	.size	HAL_RCCEx_EnableHSI48_VREFINT, .Lfunc_end8-HAL_RCCEx_EnableHSI48_VREFINT
	.cfi_endproc
	.cantunwind
	.fnend
                                        @ -- End function
	.section	.text.HAL_RCCEx_DisableHSI48_VREFINT,"ax",%progbits
	.hidden	HAL_RCCEx_DisableHSI48_VREFINT  @ -- Begin function HAL_RCCEx_DisableHSI48_VREFINT
	.globl	HAL_RCCEx_DisableHSI48_VREFINT
	.p2align	2
	.type	HAL_RCCEx_DisableHSI48_VREFINT,%function
	.code	16                              @ @HAL_RCCEx_DisableHSI48_VREFINT
	.thumb_func
HAL_RCCEx_DisableHSI48_VREFINT:
.Lfunc_begin9:
	.loc	5 837 0 is_stmt 1               @ ../Drivers/STM32L0xx_HAL_Driver/Src/stm32l0xx_hal_rcc_ex.c:837:0
	.fnstart
	.cfi_startproc
@ %bb.0:
	movs	r0, #1
	lsls	r0, r0, #13
	ldr	r1, __arm_cp.9_0
.Ltmp199:
	.loc	5 839 3 prologue_end            @ ../Drivers/STM32L0xx_HAL_Driver/Src/stm32l0xx_hal_rcc_ex.c:839:3
	ldr	r2, [r1]
	bics	r2, r0
	str	r2, [r1]
	.loc	5 840 1                         @ ../Drivers/STM32L0xx_HAL_Driver/Src/stm32l0xx_hal_rcc_ex.c:840:1
	bx	lr
.Ltmp200:
	.p2align	2
@ %bb.1:
	.loc	5 0 1 is_stmt 0                 @ ../Drivers/STM32L0xx_HAL_Driver/Src/stm32l0xx_hal_rcc_ex.c:0:1
__arm_cp.9_0:
	.long	1073807392                      @ 0x40010020
.Lcpi_end21:
	.size	__arm_cp.9_0, .Lcpi_end21-__arm_cp.9_0
.Lfunc_end9:
	.size	HAL_RCCEx_DisableHSI48_VREFINT, .Lfunc_end9-HAL_RCCEx_DisableHSI48_VREFINT
	.cfi_endproc
	.cantunwind
	.fnend
                                        @ -- End function
	.section	.text.HAL_RCCEx_CRSConfig,"ax",%progbits
	.hidden	HAL_RCCEx_CRSConfig             @ -- Begin function HAL_RCCEx_CRSConfig
	.globl	HAL_RCCEx_CRSConfig
	.p2align	2
	.type	HAL_RCCEx_CRSConfig,%function
	.code	16                              @ @HAL_RCCEx_CRSConfig
	.thumb_func
HAL_RCCEx_CRSConfig:
.Lfunc_begin10:
	.loc	5 920 0 is_stmt 1               @ ../Drivers/STM32L0xx_HAL_Driver/Src/stm32l0xx_hal_rcc_ex.c:920:0
	.fnstart
	.cfi_startproc
@ %bb.0:
	@DEBUG_VALUE: HAL_RCCEx_CRSConfig:pInit <- $r0
	movs	r1, #1
	lsls	r1, r1, #27
	ldr	r2, __arm_cp.10_0
.Ltmp201:
	.loc	5 934 3 prologue_end            @ ../Drivers/STM32L0xx_HAL_Driver/Src/stm32l0xx_hal_rcc_ex.c:934:3
	ldr	r3, [r2]
	orrs	r3, r1
	str	r3, [r2]
	.loc	5 935 3                         @ ../Drivers/STM32L0xx_HAL_Driver/Src/stm32l0xx_hal_rcc_ex.c:935:3
	ldr	r3, [r2]
	bics	r3, r1
	str	r3, [r2]
	.loc	5 940 19                        @ ../Drivers/STM32L0xx_HAL_Driver/Src/stm32l0xx_hal_rcc_ex.c:940:19
	ldm	r0!, {r1, r2}
.Ltmp202:
	@DEBUG_VALUE: HAL_RCCEx_CRSConfig:pInit <- [DW_OP_LLVM_entry_value 1] $r0
	.loc	5 940 29 is_stmt 0              @ ../Drivers/STM32L0xx_HAL_Driver/Src/stm32l0xx_hal_rcc_ex.c:940:29
	orrs	r2, r1
	.loc	5 940 54                        @ ../Drivers/STM32L0xx_HAL_Driver/Src/stm32l0xx_hal_rcc_ex.c:940:54
	ldr	r1, [r0]
	.loc	5 940 45                        @ ../Drivers/STM32L0xx_HAL_Driver/Src/stm32l0xx_hal_rcc_ex.c:940:45
	orrs	r1, r2
.Ltmp203:
	@DEBUG_VALUE: HAL_RCCEx_CRSConfig:value <- $r1
	.loc	5 942 19 is_stmt 1              @ ../Drivers/STM32L0xx_HAL_Driver/Src/stm32l0xx_hal_rcc_ex.c:942:19
	ldr	r2, [r0, #4]
	.loc	5 942 9 is_stmt 0               @ ../Drivers/STM32L0xx_HAL_Driver/Src/stm32l0xx_hal_rcc_ex.c:942:9
	orrs	r2, r1
.Ltmp204:
	@DEBUG_VALUE: HAL_RCCEx_CRSConfig:value <- $r2
	.loc	5 944 20 is_stmt 1              @ ../Drivers/STM32L0xx_HAL_Driver/Src/stm32l0xx_hal_rcc_ex.c:944:20
	ldr	r1, [r0, #8]
	.loc	5 944 36 is_stmt 0              @ ../Drivers/STM32L0xx_HAL_Driver/Src/stm32l0xx_hal_rcc_ex.c:944:36
	lsls	r1, r1, #16
	.loc	5 944 9                         @ ../Drivers/STM32L0xx_HAL_Driver/Src/stm32l0xx_hal_rcc_ex.c:944:9
	orrs	r1, r2
.Ltmp205:
	@DEBUG_VALUE: HAL_RCCEx_CRSConfig:value <- $r1
	.loc	5 0 9                           @ ../Drivers/STM32L0xx_HAL_Driver/Src/stm32l0xx_hal_rcc_ex.c:0:9
	ldr	r2, __arm_cp.10_1
	.loc	5 945 3 is_stmt 1               @ ../Drivers/STM32L0xx_HAL_Driver/Src/stm32l0xx_hal_rcc_ex.c:945:3
	str	r1, [r2, #4]
	movs	r1, #63
.Ltmp206:
	.loc	5 0 3 is_stmt 0                 @ ../Drivers/STM32L0xx_HAL_Driver/Src/stm32l0xx_hal_rcc_ex.c:0:3
	lsls	r1, r1, #8
	.loc	5 949 3 is_stmt 1               @ ../Drivers/STM32L0xx_HAL_Driver/Src/stm32l0xx_hal_rcc_ex.c:949:3
	ldr	r3, [r2]
	bics	r3, r1
	ldr	r0, [r0, #12]
	lsls	r0, r0, #8
	orrs	r0, r3
	str	r0, [r2]
	.loc	5 954 3                         @ ../Drivers/STM32L0xx_HAL_Driver/Src/stm32l0xx_hal_rcc_ex.c:954:3
	ldr	r0, [r2]
	movs	r1, #96
	orrs	r1, r0
	str	r1, [r2]
	.loc	5 955 1                         @ ../Drivers/STM32L0xx_HAL_Driver/Src/stm32l0xx_hal_rcc_ex.c:955:1
	bx	lr
.Ltmp207:
	.p2align	2
@ %bb.1:
	.loc	5 0 1 is_stmt 0                 @ ../Drivers/STM32L0xx_HAL_Driver/Src/stm32l0xx_hal_rcc_ex.c:0:1
__arm_cp.10_0:
	.long	1073877032                      @ 0x40021028
.Lcpi_end22:
	.size	__arm_cp.10_0, .Lcpi_end22-__arm_cp.10_0
__arm_cp.10_1:
	.long	1073769472                      @ 0x40006c00
.Lcpi_end23:
	.size	__arm_cp.10_1, .Lcpi_end23-__arm_cp.10_1
.Lfunc_end10:
	.size	HAL_RCCEx_CRSConfig, .Lfunc_end10-HAL_RCCEx_CRSConfig
	.cfi_endproc
	.cantunwind
	.fnend
                                        @ -- End function
	.section	.text.HAL_RCCEx_CRSSoftwareSynchronizationGenerate,"ax",%progbits
	.hidden	HAL_RCCEx_CRSSoftwareSynchronizationGenerate @ -- Begin function HAL_RCCEx_CRSSoftwareSynchronizationGenerate
	.globl	HAL_RCCEx_CRSSoftwareSynchronizationGenerate
	.p2align	2
	.type	HAL_RCCEx_CRSSoftwareSynchronizationGenerate,%function
	.code	16                              @ @HAL_RCCEx_CRSSoftwareSynchronizationGenerate
	.thumb_func
HAL_RCCEx_CRSSoftwareSynchronizationGenerate:
.Lfunc_begin11:
	.loc	5 962 0 is_stmt 1               @ ../Drivers/STM32L0xx_HAL_Driver/Src/stm32l0xx_hal_rcc_ex.c:962:0
	.fnstart
	.cfi_startproc
@ %bb.0:
	ldr	r0, __arm_cp.11_0
.Ltmp208:
	.loc	5 963 3 prologue_end            @ ../Drivers/STM32L0xx_HAL_Driver/Src/stm32l0xx_hal_rcc_ex.c:963:3
	ldr	r1, [r0]
	movs	r2, #128
	orrs	r2, r1
	str	r2, [r0]
	.loc	5 964 1                         @ ../Drivers/STM32L0xx_HAL_Driver/Src/stm32l0xx_hal_rcc_ex.c:964:1
	bx	lr
.Ltmp209:
	.p2align	2
@ %bb.1:
	.loc	5 0 1 is_stmt 0                 @ ../Drivers/STM32L0xx_HAL_Driver/Src/stm32l0xx_hal_rcc_ex.c:0:1
__arm_cp.11_0:
	.long	1073769472                      @ 0x40006c00
.Lcpi_end24:
	.size	__arm_cp.11_0, .Lcpi_end24-__arm_cp.11_0
.Lfunc_end11:
	.size	HAL_RCCEx_CRSSoftwareSynchronizationGenerate, .Lfunc_end11-HAL_RCCEx_CRSSoftwareSynchronizationGenerate
	.cfi_endproc
	.cantunwind
	.fnend
                                        @ -- End function
	.section	.text.HAL_RCCEx_CRSGetSynchronizationInfo,"ax",%progbits
	.hidden	HAL_RCCEx_CRSGetSynchronizationInfo @ -- Begin function HAL_RCCEx_CRSGetSynchronizationInfo
	.globl	HAL_RCCEx_CRSGetSynchronizationInfo
	.p2align	2
	.type	HAL_RCCEx_CRSGetSynchronizationInfo,%function
	.code	16                              @ @HAL_RCCEx_CRSGetSynchronizationInfo
	.thumb_func
HAL_RCCEx_CRSGetSynchronizationInfo:
.Lfunc_begin12:
	.loc	5 972 0 is_stmt 1               @ ../Drivers/STM32L0xx_HAL_Driver/Src/stm32l0xx_hal_rcc_ex.c:972:0
	.fnstart
	.cfi_startproc
@ %bb.0:
	@DEBUG_VALUE: HAL_RCCEx_CRSGetSynchronizationInfo:pSynchroInfo <- $r0
	ldr	r1, __arm_cp.12_0
.Ltmp210:
	.loc	5 977 42 prologue_end           @ ../Drivers/STM32L0xx_HAL_Driver/Src/stm32l0xx_hal_rcc_ex.c:977:42
	ldr	r2, [r1, #4]
	uxth	r2, r2
	.loc	5 977 29 is_stmt 0              @ ../Drivers/STM32L0xx_HAL_Driver/Src/stm32l0xx_hal_rcc_ex.c:977:29
	str	r2, [r0]
	.loc	5 980 52 is_stmt 1              @ ../Drivers/STM32L0xx_HAL_Driver/Src/stm32l0xx_hal_rcc_ex.c:980:52
	ldr	r2, [r1]
	.loc	5 983 47                        @ ../Drivers/STM32L0xx_HAL_Driver/Src/stm32l0xx_hal_rcc_ex.c:983:47
	ldr	r3, [r1, #8]
	.loc	5 983 81 is_stmt 0              @ ../Drivers/STM32L0xx_HAL_Driver/Src/stm32l0xx_hal_rcc_ex.c:983:81
	lsrs	r3, r3, #16
	.loc	5 983 34                        @ ../Drivers/STM32L0xx_HAL_Driver/Src/stm32l0xx_hal_rcc_ex.c:983:34
	str	r3, [r0, #8]
	.loc	5 980 83 is_stmt 1              @ ../Drivers/STM32L0xx_HAL_Driver/Src/stm32l0xx_hal_rcc_ex.c:980:83
	lsls	r2, r2, #18
	lsrs	r2, r2, #26
	.loc	5 980 39 is_stmt 0              @ ../Drivers/STM32L0xx_HAL_Driver/Src/stm32l0xx_hal_rcc_ex.c:980:39
	str	r2, [r0, #4]
	movs	r2, #1
	lsls	r2, r2, #15
	.loc	5 986 49 is_stmt 1              @ ../Drivers/STM32L0xx_HAL_Driver/Src/stm32l0xx_hal_rcc_ex.c:986:49
	ldr	r1, [r1, #8]
	ands	r1, r2
	.loc	5 986 36 is_stmt 0              @ ../Drivers/STM32L0xx_HAL_Driver/Src/stm32l0xx_hal_rcc_ex.c:986:36
	str	r1, [r0, #12]
	.loc	5 987 1 is_stmt 1               @ ../Drivers/STM32L0xx_HAL_Driver/Src/stm32l0xx_hal_rcc_ex.c:987:1
	bx	lr
.Ltmp211:
	.p2align	2
@ %bb.1:
	.loc	5 0 1 is_stmt 0                 @ ../Drivers/STM32L0xx_HAL_Driver/Src/stm32l0xx_hal_rcc_ex.c:0:1
__arm_cp.12_0:
	.long	1073769472                      @ 0x40006c00
.Lcpi_end25:
	.size	__arm_cp.12_0, .Lcpi_end25-__arm_cp.12_0
.Lfunc_end12:
	.size	HAL_RCCEx_CRSGetSynchronizationInfo, .Lfunc_end12-HAL_RCCEx_CRSGetSynchronizationInfo
	.cfi_endproc
	.cantunwind
	.fnend
                                        @ -- End function
	.section	.text.HAL_RCCEx_CRSWaitSynchronization,"ax",%progbits
	.hidden	HAL_RCCEx_CRSWaitSynchronization @ -- Begin function HAL_RCCEx_CRSWaitSynchronization
	.globl	HAL_RCCEx_CRSWaitSynchronization
	.p2align	2
	.type	HAL_RCCEx_CRSWaitSynchronization,%function
	.code	16                              @ @HAL_RCCEx_CRSWaitSynchronization
	.thumb_func
HAL_RCCEx_CRSWaitSynchronization:
.Lfunc_begin13:
	.loc	5 1005 0 is_stmt 1              @ ../Drivers/STM32L0xx_HAL_Driver/Src/stm32l0xx_hal_rcc_ex.c:1005:0
	.fnstart
	.cfi_startproc
@ %bb.0:
	@DEBUG_VALUE: HAL_RCCEx_CRSWaitSynchronization:Timeout <- $r0
	.save	{r4, r5, r6, r7, lr}
	push	{r4, r5, r6, r7, lr}
	.cfi_def_cfa_offset 20
	.cfi_offset lr, -4
	.cfi_offset r7, -8
	.cfi_offset r6, -12
	.cfi_offset r5, -16
	.cfi_offset r4, -20
	.pad	#4
	sub	sp, #4
	.cfi_def_cfa_offset 24
	mov	r4, r0
.Ltmp212:
	@DEBUG_VALUE: HAL_RCCEx_CRSWaitSynchronization:crsstatus <- 0
	@DEBUG_VALUE: HAL_RCCEx_CRSWaitSynchronization:Timeout <- $r4
	ldr	r7, __arm_cp.13_0
.Ltmp213:
	.loc	5 1010 15 prologue_end          @ ../Drivers/STM32L0xx_HAL_Driver/Src/stm32l0xx_hal_rcc_ex.c:1010:15
	bl	HAL_GetTick
.Ltmp214:
	mov	r5, r0
.Ltmp215:
	@DEBUG_VALUE: HAL_RCCEx_CRSWaitSynchronization:tickstart <- $r5
.LBB13_1:                               @ =>This Inner Loop Header: Depth=1
	@DEBUG_VALUE: HAL_RCCEx_CRSWaitSynchronization:tickstart <- $r5
	@DEBUG_VALUE: HAL_RCCEx_CRSWaitSynchronization:Timeout <- $r4
	@DEBUG_VALUE: HAL_RCCEx_CRSWaitSynchronization:crsstatus <- 0
	.loc	5 1015 8                        @ ../Drivers/STM32L0xx_HAL_Driver/Src/stm32l0xx_hal_rcc_ex.c:1015:8
	adds	r0, r4, #1
	beq	.LBB13_4
.Ltmp216:
@ %bb.2:                                @   in Loop: Header=BB13_1 Depth=1
	@DEBUG_VALUE: HAL_RCCEx_CRSWaitSynchronization:tickstart <- $r5
	@DEBUG_VALUE: HAL_RCCEx_CRSWaitSynchronization:Timeout <- $r4
	@DEBUG_VALUE: HAL_RCCEx_CRSWaitSynchronization:crsstatus <- 0
	.loc	5 0 8 is_stmt 0                 @ ../Drivers/STM32L0xx_HAL_Driver/Src/stm32l0xx_hal_rcc_ex.c:0:8
	rsbs	r6, r4, #0
	adcs	r6, r4
.Ltmp217:
	.loc	5 1017 12 is_stmt 1             @ ../Drivers/STM32L0xx_HAL_Driver/Src/stm32l0xx_hal_rcc_ex.c:1017:12
	bl	HAL_GetTick
.Ltmp218:
	.loc	5 1017 26 is_stmt 0             @ ../Drivers/STM32L0xx_HAL_Driver/Src/stm32l0xx_hal_rcc_ex.c:1017:26
	subs	r0, r0, r5
	.loc	5 1017 39                       @ ../Drivers/STM32L0xx_HAL_Driver/Src/stm32l0xx_hal_rcc_ex.c:1017:39
	cmp	r0, r4
	bhi	.LBB13_5
.Ltmp219:
@ %bb.3:                                @   in Loop: Header=BB13_1 Depth=1
	@DEBUG_VALUE: HAL_RCCEx_CRSWaitSynchronization:tickstart <- $r5
	@DEBUG_VALUE: HAL_RCCEx_CRSWaitSynchronization:Timeout <- $r4
	@DEBUG_VALUE: HAL_RCCEx_CRSWaitSynchronization:crsstatus <- 0
	.loc	5 0 39                          @ ../Drivers/STM32L0xx_HAL_Driver/Src/stm32l0xx_hal_rcc_ex.c:0:39
	movs	r0, #0
	b	.LBB13_6
.Ltmp220:
.LBB13_4:                               @   in Loop: Header=BB13_1 Depth=1
	@DEBUG_VALUE: HAL_RCCEx_CRSWaitSynchronization:tickstart <- $r5
	@DEBUG_VALUE: HAL_RCCEx_CRSWaitSynchronization:Timeout <- $r4
	@DEBUG_VALUE: HAL_RCCEx_CRSWaitSynchronization:crsstatus <- 0
	movs	r6, #0
	b	.LBB13_7
.Ltmp221:
.LBB13_5:                               @   in Loop: Header=BB13_1 Depth=1
	@DEBUG_VALUE: HAL_RCCEx_CRSWaitSynchronization:tickstart <- $r5
	@DEBUG_VALUE: HAL_RCCEx_CRSWaitSynchronization:Timeout <- $r4
	@DEBUG_VALUE: HAL_RCCEx_CRSWaitSynchronization:crsstatus <- 0
	movs	r0, #1
.Ltmp222:
.LBB13_6:                               @   in Loop: Header=BB13_1 Depth=1
	@DEBUG_VALUE: HAL_RCCEx_CRSWaitSynchronization:tickstart <- $r5
	@DEBUG_VALUE: HAL_RCCEx_CRSWaitSynchronization:Timeout <- $r4
	@DEBUG_VALUE: HAL_RCCEx_CRSWaitSynchronization:crsstatus <- 0
	.loc	5 1017 50                       @ ../Drivers/STM32L0xx_HAL_Driver/Src/stm32l0xx_hal_rcc_ex.c:1017:50
	orrs	r6, r0
.Ltmp223:
.LBB13_7:                               @   in Loop: Header=BB13_1 Depth=1
	@DEBUG_VALUE: HAL_RCCEx_CRSWaitSynchronization:tickstart <- $r5
	@DEBUG_VALUE: HAL_RCCEx_CRSWaitSynchronization:Timeout <- $r4
	@DEBUG_VALUE: HAL_RCCEx_CRSWaitSynchronization:crsstatus <- 0
	@DEBUG_VALUE: HAL_RCCEx_CRSWaitSynchronization:crsstatus <- $r6
	.loc	5 1023 8 is_stmt 1              @ ../Drivers/STM32L0xx_HAL_Driver/Src/stm32l0xx_hal_rcc_ex.c:1023:8
	ldr	r0, [r7]
.Ltmp224:
	.loc	5 1023 8 is_stmt 0              @ ../Drivers/STM32L0xx_HAL_Driver/Src/stm32l0xx_hal_rcc_ex.c:1023:8
	lsls	r0, r0, #31
	beq	.LBB13_9
.Ltmp225:
@ %bb.8:                                @   in Loop: Header=BB13_1 Depth=1
	@DEBUG_VALUE: HAL_RCCEx_CRSWaitSynchronization:crsstatus <- $r6
	@DEBUG_VALUE: HAL_RCCEx_CRSWaitSynchronization:tickstart <- $r5
	@DEBUG_VALUE: HAL_RCCEx_CRSWaitSynchronization:Timeout <- $r4
	.loc	5 0 8                           @ ../Drivers/STM32L0xx_HAL_Driver/Src/stm32l0xx_hal_rcc_ex.c:0:8
	movs	r0, #1
.Ltmp226:
	.loc	5 1029 7 is_stmt 1              @ ../Drivers/STM32L0xx_HAL_Driver/Src/stm32l0xx_hal_rcc_ex.c:1029:7
	str	r0, [r7, #4]
.Ltmp227:
	.loc	5 1026 17                       @ ../Drivers/STM32L0xx_HAL_Driver/Src/stm32l0xx_hal_rcc_ex.c:1026:17
	adds	r6, r6, #2
.Ltmp228:
	@DEBUG_VALUE: HAL_RCCEx_CRSWaitSynchronization:crsstatus <- $r6
.LBB13_9:                               @   in Loop: Header=BB13_1 Depth=1
	@DEBUG_VALUE: HAL_RCCEx_CRSWaitSynchronization:crsstatus <- $r6
	@DEBUG_VALUE: HAL_RCCEx_CRSWaitSynchronization:tickstart <- $r5
	@DEBUG_VALUE: HAL_RCCEx_CRSWaitSynchronization:Timeout <- $r4
	@DEBUG_VALUE: HAL_RCCEx_CRSWaitSynchronization:crsstatus <- $r6
	.loc	5 1033 8                        @ ../Drivers/STM32L0xx_HAL_Driver/Src/stm32l0xx_hal_rcc_ex.c:1033:8
	ldr	r0, [r7]
.Ltmp229:
	.loc	5 1033 8 is_stmt 0              @ ../Drivers/STM32L0xx_HAL_Driver/Src/stm32l0xx_hal_rcc_ex.c:1033:8
	lsls	r0, r0, #30
	bpl	.LBB13_11
.Ltmp230:
@ %bb.10:                               @   in Loop: Header=BB13_1 Depth=1
	@DEBUG_VALUE: HAL_RCCEx_CRSWaitSynchronization:crsstatus <- $r6
	@DEBUG_VALUE: HAL_RCCEx_CRSWaitSynchronization:tickstart <- $r5
	@DEBUG_VALUE: HAL_RCCEx_CRSWaitSynchronization:Timeout <- $r4
	.loc	5 0 8                           @ ../Drivers/STM32L0xx_HAL_Driver/Src/stm32l0xx_hal_rcc_ex.c:0:8
	movs	r0, #2
.Ltmp231:
	.loc	5 1039 7 is_stmt 1              @ ../Drivers/STM32L0xx_HAL_Driver/Src/stm32l0xx_hal_rcc_ex.c:1039:7
	str	r0, [r7, #4]
.Ltmp232:
	.loc	5 1036 17                       @ ../Drivers/STM32L0xx_HAL_Driver/Src/stm32l0xx_hal_rcc_ex.c:1036:17
	adds	r6, r6, #4
.Ltmp233:
	@DEBUG_VALUE: HAL_RCCEx_CRSWaitSynchronization:crsstatus <- $r6
.LBB13_11:                              @   in Loop: Header=BB13_1 Depth=1
	@DEBUG_VALUE: HAL_RCCEx_CRSWaitSynchronization:crsstatus <- $r6
	@DEBUG_VALUE: HAL_RCCEx_CRSWaitSynchronization:tickstart <- $r5
	@DEBUG_VALUE: HAL_RCCEx_CRSWaitSynchronization:Timeout <- $r4
	@DEBUG_VALUE: HAL_RCCEx_CRSWaitSynchronization:crsstatus <- $r6
	.loc	5 1043 8                        @ ../Drivers/STM32L0xx_HAL_Driver/Src/stm32l0xx_hal_rcc_ex.c:1043:8
	ldr	r0, [r7]
.Ltmp234:
	.loc	5 1043 8 is_stmt 0              @ ../Drivers/STM32L0xx_HAL_Driver/Src/stm32l0xx_hal_rcc_ex.c:1043:8
	lsls	r0, r0, #21
	bpl	.LBB13_13
.Ltmp235:
@ %bb.12:                               @   in Loop: Header=BB13_1 Depth=1
	@DEBUG_VALUE: HAL_RCCEx_CRSWaitSynchronization:crsstatus <- $r6
	@DEBUG_VALUE: HAL_RCCEx_CRSWaitSynchronization:tickstart <- $r5
	@DEBUG_VALUE: HAL_RCCEx_CRSWaitSynchronization:Timeout <- $r4
	.loc	5 0 8                           @ ../Drivers/STM32L0xx_HAL_Driver/Src/stm32l0xx_hal_rcc_ex.c:0:8
	movs	r0, #4
.Ltmp236:
	.loc	5 1049 7 is_stmt 1              @ ../Drivers/STM32L0xx_HAL_Driver/Src/stm32l0xx_hal_rcc_ex.c:1049:7
	str	r0, [r7, #4]
.Ltmp237:
	.loc	5 1046 17                       @ ../Drivers/STM32L0xx_HAL_Driver/Src/stm32l0xx_hal_rcc_ex.c:1046:17
	adds	r6, #32
.Ltmp238:
	@DEBUG_VALUE: HAL_RCCEx_CRSWaitSynchronization:crsstatus <- $r6
.LBB13_13:                              @   in Loop: Header=BB13_1 Depth=1
	@DEBUG_VALUE: HAL_RCCEx_CRSWaitSynchronization:crsstatus <- $r6
	@DEBUG_VALUE: HAL_RCCEx_CRSWaitSynchronization:tickstart <- $r5
	@DEBUG_VALUE: HAL_RCCEx_CRSWaitSynchronization:Timeout <- $r4
	@DEBUG_VALUE: HAL_RCCEx_CRSWaitSynchronization:crsstatus <- $r6
	.loc	5 1053 8                        @ ../Drivers/STM32L0xx_HAL_Driver/Src/stm32l0xx_hal_rcc_ex.c:1053:8
	ldr	r0, [r7]
.Ltmp239:
	.loc	5 1053 8 is_stmt 0              @ ../Drivers/STM32L0xx_HAL_Driver/Src/stm32l0xx_hal_rcc_ex.c:1053:8
	lsls	r0, r0, #23
	bpl	.LBB13_15
.Ltmp240:
@ %bb.14:                               @   in Loop: Header=BB13_1 Depth=1
	@DEBUG_VALUE: HAL_RCCEx_CRSWaitSynchronization:crsstatus <- $r6
	@DEBUG_VALUE: HAL_RCCEx_CRSWaitSynchronization:tickstart <- $r5
	@DEBUG_VALUE: HAL_RCCEx_CRSWaitSynchronization:Timeout <- $r4
	.loc	5 0 8                           @ ../Drivers/STM32L0xx_HAL_Driver/Src/stm32l0xx_hal_rcc_ex.c:0:8
	movs	r0, #4
.Ltmp241:
	.loc	5 1059 7 is_stmt 1              @ ../Drivers/STM32L0xx_HAL_Driver/Src/stm32l0xx_hal_rcc_ex.c:1059:7
	str	r0, [r7, #4]
	movs	r0, #8
.Ltmp242:
	.loc	5 1056 17                       @ ../Drivers/STM32L0xx_HAL_Driver/Src/stm32l0xx_hal_rcc_ex.c:1056:17
	orrs	r6, r0
.Ltmp243:
	@DEBUG_VALUE: HAL_RCCEx_CRSWaitSynchronization:crsstatus <- $r6
.LBB13_15:                              @   in Loop: Header=BB13_1 Depth=1
	@DEBUG_VALUE: HAL_RCCEx_CRSWaitSynchronization:crsstatus <- $r6
	@DEBUG_VALUE: HAL_RCCEx_CRSWaitSynchronization:tickstart <- $r5
	@DEBUG_VALUE: HAL_RCCEx_CRSWaitSynchronization:Timeout <- $r4
	@DEBUG_VALUE: HAL_RCCEx_CRSWaitSynchronization:crsstatus <- $r6
	.loc	5 1063 8                        @ ../Drivers/STM32L0xx_HAL_Driver/Src/stm32l0xx_hal_rcc_ex.c:1063:8
	ldr	r0, [r7]
.Ltmp244:
	.loc	5 1063 8 is_stmt 0              @ ../Drivers/STM32L0xx_HAL_Driver/Src/stm32l0xx_hal_rcc_ex.c:1063:8
	lsls	r0, r0, #22
	bpl	.LBB13_17
.Ltmp245:
@ %bb.16:                               @   in Loop: Header=BB13_1 Depth=1
	@DEBUG_VALUE: HAL_RCCEx_CRSWaitSynchronization:crsstatus <- $r6
	@DEBUG_VALUE: HAL_RCCEx_CRSWaitSynchronization:tickstart <- $r5
	@DEBUG_VALUE: HAL_RCCEx_CRSWaitSynchronization:Timeout <- $r4
	.loc	5 0 8                           @ ../Drivers/STM32L0xx_HAL_Driver/Src/stm32l0xx_hal_rcc_ex.c:0:8
	movs	r0, #4
.Ltmp246:
	.loc	5 1069 7 is_stmt 1              @ ../Drivers/STM32L0xx_HAL_Driver/Src/stm32l0xx_hal_rcc_ex.c:1069:7
	str	r0, [r7, #4]
	movs	r0, #16
.Ltmp247:
	.loc	5 1066 17                       @ ../Drivers/STM32L0xx_HAL_Driver/Src/stm32l0xx_hal_rcc_ex.c:1066:17
	orrs	r6, r0
.Ltmp248:
	@DEBUG_VALUE: HAL_RCCEx_CRSWaitSynchronization:crsstatus <- $r6
.LBB13_17:                              @   in Loop: Header=BB13_1 Depth=1
	@DEBUG_VALUE: HAL_RCCEx_CRSWaitSynchronization:crsstatus <- $r6
	@DEBUG_VALUE: HAL_RCCEx_CRSWaitSynchronization:tickstart <- $r5
	@DEBUG_VALUE: HAL_RCCEx_CRSWaitSynchronization:Timeout <- $r4
	@DEBUG_VALUE: HAL_RCCEx_CRSWaitSynchronization:crsstatus <- $r6
	.loc	5 1073 8                        @ ../Drivers/STM32L0xx_HAL_Driver/Src/stm32l0xx_hal_rcc_ex.c:1073:8
	ldr	r0, [r7]
.Ltmp249:
	.loc	5 1073 8 is_stmt 0              @ ../Drivers/STM32L0xx_HAL_Driver/Src/stm32l0xx_hal_rcc_ex.c:1073:8
	lsls	r0, r0, #28
	bpl	.LBB13_19
.Ltmp250:
@ %bb.18:                               @   in Loop: Header=BB13_1 Depth=1
	@DEBUG_VALUE: HAL_RCCEx_CRSWaitSynchronization:crsstatus <- $r6
	@DEBUG_VALUE: HAL_RCCEx_CRSWaitSynchronization:tickstart <- $r5
	@DEBUG_VALUE: HAL_RCCEx_CRSWaitSynchronization:Timeout <- $r4
	.loc	5 0 8                           @ ../Drivers/STM32L0xx_HAL_Driver/Src/stm32l0xx_hal_rcc_ex.c:0:8
	movs	r0, #8
.Ltmp251:
	.loc	5 1076 7 is_stmt 1              @ ../Drivers/STM32L0xx_HAL_Driver/Src/stm32l0xx_hal_rcc_ex.c:1076:7
	str	r0, [r7, #4]
.Ltmp252:
.LBB13_19:                              @   in Loop: Header=BB13_1 Depth=1
	@DEBUG_VALUE: HAL_RCCEx_CRSWaitSynchronization:crsstatus <- $r6
	@DEBUG_VALUE: HAL_RCCEx_CRSWaitSynchronization:tickstart <- $r5
	@DEBUG_VALUE: HAL_RCCEx_CRSWaitSynchronization:Timeout <- $r4
	.loc	5 1078 3                        @ ../Drivers/STM32L0xx_HAL_Driver/Src/stm32l0xx_hal_rcc_ex.c:1078:3
	cmp	r6, #0
	beq	.LBB13_1
.Ltmp253:
@ %bb.20:
	@DEBUG_VALUE: HAL_RCCEx_CRSWaitSynchronization:crsstatus <- $r6
	@DEBUG_VALUE: HAL_RCCEx_CRSWaitSynchronization:tickstart <- $r5
	@DEBUG_VALUE: HAL_RCCEx_CRSWaitSynchronization:Timeout <- $r4
	.loc	5 1080 3                        @ ../Drivers/STM32L0xx_HAL_Driver/Src/stm32l0xx_hal_rcc_ex.c:1080:3
	mov	r0, r6
	add	sp, #4
	pop	{r4, r5, r6, r7, pc}
.Ltmp254:
	.p2align	2
@ %bb.21:
	.loc	5 0 3 is_stmt 0                 @ ../Drivers/STM32L0xx_HAL_Driver/Src/stm32l0xx_hal_rcc_ex.c:0:3
__arm_cp.13_0:
	.long	1073769480                      @ 0x40006c08
.Lcpi_end26:
	.size	__arm_cp.13_0, .Lcpi_end26-__arm_cp.13_0
.Lfunc_end13:
	.size	HAL_RCCEx_CRSWaitSynchronization, .Lfunc_end13-HAL_RCCEx_CRSWaitSynchronization
	.cfi_endproc
	.cantunwind
	.fnend
                                        @ -- End function
	.section	.text.HAL_RCCEx_CRS_IRQHandler,"ax",%progbits
	.hidden	HAL_RCCEx_CRS_IRQHandler        @ -- Begin function HAL_RCCEx_CRS_IRQHandler
	.globl	HAL_RCCEx_CRS_IRQHandler
	.p2align	2
	.type	HAL_RCCEx_CRS_IRQHandler,%function
	.code	16                              @ @HAL_RCCEx_CRS_IRQHandler
	.thumb_func
HAL_RCCEx_CRS_IRQHandler:
.Lfunc_begin14:
	.loc	5 1088 0 is_stmt 1              @ ../Drivers/STM32L0xx_HAL_Driver/Src/stm32l0xx_hal_rcc_ex.c:1088:0
	.fnstart
	.cfi_startproc
@ %bb.0:
	.save	{r4, r5, r6, lr}
	push	{r4, r5, r6, lr}
	.cfi_def_cfa_offset 16
	.cfi_offset lr, -4
	.cfi_offset r6, -8
	.cfi_offset r5, -12
	.cfi_offset r4, -16
.Ltmp255:
	@DEBUG_VALUE: HAL_RCCEx_CRS_IRQHandler:crserror <- 0
	ldr	r0, __arm_cp.14_0
.Ltmp256:
	.loc	5 1091 22 prologue_end          @ ../Drivers/STM32L0xx_HAL_Driver/Src/stm32l0xx_hal_rcc_ex.c:1091:22
	ldr	r1, [r0, #8]
.Ltmp257:
	@DEBUG_VALUE: HAL_RCCEx_CRS_IRQHandler:itflags <- $r1
	.loc	5 0 22 is_stmt 0                @ ../Drivers/STM32L0xx_HAL_Driver/Src/stm32l0xx_hal_rcc_ex.c:0:22
	movs	r2, #1
.Ltmp258:
	.loc	5 1095 16 is_stmt 1             @ ../Drivers/STM32L0xx_HAL_Driver/Src/stm32l0xx_hal_rcc_ex.c:1095:16
	mov	r3, r1
	ands	r3, r2
	.loc	5 1095 39 is_stmt 0             @ ../Drivers/STM32L0xx_HAL_Driver/Src/stm32l0xx_hal_rcc_ex.c:1095:39
	rsbs	r4, r3, #0
	adcs	r4, r3
.Ltmp259:
	.loc	5 1092 24 is_stmt 1             @ ../Drivers/STM32L0xx_HAL_Driver/Src/stm32l0xx_hal_rcc_ex.c:1092:24
	ldr	r3, [r0]
.Ltmp260:
	@DEBUG_VALUE: HAL_RCCEx_CRS_IRQHandler:itsources <- $r3
	.loc	5 0 24 is_stmt 0                @ ../Drivers/STM32L0xx_HAL_Driver/Src/stm32l0xx_hal_rcc_ex.c:0:24
	mov	r5, r3
	ands	r5, r2
	rsbs	r6, r5, #0
	adcs	r6, r5
.Ltmp261:
	.loc	5 1095 46 is_stmt 1             @ ../Drivers/STM32L0xx_HAL_Driver/Src/stm32l0xx_hal_rcc_ex.c:1095:46
	orrs	r6, r4
	beq	.LBB14_12
.Ltmp262:
@ %bb.1:
	@DEBUG_VALUE: HAL_RCCEx_CRS_IRQHandler:itsources <- $r3
	@DEBUG_VALUE: HAL_RCCEx_CRS_IRQHandler:itflags <- $r1
	@DEBUG_VALUE: HAL_RCCEx_CRS_IRQHandler:crserror <- 0
	.loc	5 0 46 is_stmt 0                @ ../Drivers/STM32L0xx_HAL_Driver/Src/stm32l0xx_hal_rcc_ex.c:0:46
	movs	r4, #2
	mov	r6, r3
	ands	r6, r4
	rsbs	r5, r6, #0
	adcs	r5, r6
.Ltmp263:
	.loc	5 1104 53 is_stmt 1             @ ../Drivers/STM32L0xx_HAL_Driver/Src/stm32l0xx_hal_rcc_ex.c:1104:53
	lsls	r6, r1, #30
	mov	r6, r2
	bpl	.LBB14_3
.Ltmp264:
@ %bb.2:
	@DEBUG_VALUE: HAL_RCCEx_CRS_IRQHandler:itsources <- $r3
	@DEBUG_VALUE: HAL_RCCEx_CRS_IRQHandler:itflags <- $r1
	@DEBUG_VALUE: HAL_RCCEx_CRS_IRQHandler:crserror <- 0
	.loc	5 0 53 is_stmt 0                @ ../Drivers/STM32L0xx_HAL_Driver/Src/stm32l0xx_hal_rcc_ex.c:0:53
	mov	r6, r5
.Ltmp265:
.LBB14_3:
	@DEBUG_VALUE: HAL_RCCEx_CRS_IRQHandler:itsources <- $r3
	@DEBUG_VALUE: HAL_RCCEx_CRS_IRQHandler:itflags <- $r1
	@DEBUG_VALUE: HAL_RCCEx_CRS_IRQHandler:crserror <- 0
	.loc	5 1104 53                       @ ../Drivers/STM32L0xx_HAL_Driver/Src/stm32l0xx_hal_rcc_ex.c:1104:53
	cmp	r6, #0
	beq	.LBB14_13
.Ltmp266:
@ %bb.4:
	@DEBUG_VALUE: HAL_RCCEx_CRS_IRQHandler:itsources <- $r3
	@DEBUG_VALUE: HAL_RCCEx_CRS_IRQHandler:itflags <- $r1
	@DEBUG_VALUE: HAL_RCCEx_CRS_IRQHandler:crserror <- 0
	.loc	5 0 53                          @ ../Drivers/STM32L0xx_HAL_Driver/Src/stm32l0xx_hal_rcc_ex.c:0:53
	movs	r4, #8
	mov	r6, r3
	ands	r6, r4
	rsbs	r5, r6, #0
	adcs	r5, r6
.Ltmp267:
	.loc	5 1113 50 is_stmt 1             @ ../Drivers/STM32L0xx_HAL_Driver/Src/stm32l0xx_hal_rcc_ex.c:1113:50
	lsls	r6, r1, #28
	mov	r6, r2
	bpl	.LBB14_6
.Ltmp268:
@ %bb.5:
	@DEBUG_VALUE: HAL_RCCEx_CRS_IRQHandler:itsources <- $r3
	@DEBUG_VALUE: HAL_RCCEx_CRS_IRQHandler:itflags <- $r1
	@DEBUG_VALUE: HAL_RCCEx_CRS_IRQHandler:crserror <- 0
	.loc	5 0 50 is_stmt 0                @ ../Drivers/STM32L0xx_HAL_Driver/Src/stm32l0xx_hal_rcc_ex.c:0:50
	mov	r6, r5
.Ltmp269:
.LBB14_6:
	@DEBUG_VALUE: HAL_RCCEx_CRS_IRQHandler:itsources <- $r3
	@DEBUG_VALUE: HAL_RCCEx_CRS_IRQHandler:itflags <- $r1
	@DEBUG_VALUE: HAL_RCCEx_CRS_IRQHandler:crserror <- 0
	.loc	5 1113 50                       @ ../Drivers/STM32L0xx_HAL_Driver/Src/stm32l0xx_hal_rcc_ex.c:1113:50
	cmp	r6, #0
	beq	.LBB14_14
.Ltmp270:
@ %bb.7:
	@DEBUG_VALUE: HAL_RCCEx_CRS_IRQHandler:itsources <- $r3
	@DEBUG_VALUE: HAL_RCCEx_CRS_IRQHandler:itflags <- $r1
	@DEBUG_VALUE: HAL_RCCEx_CRS_IRQHandler:crserror <- 0
	.loc	5 0 50                          @ ../Drivers/STM32L0xx_HAL_Driver/Src/stm32l0xx_hal_rcc_ex.c:0:50
	movs	r4, #4
	ands	r3, r4
.Ltmp271:
	rsbs	r5, r3, #0
	adcs	r5, r3
.Ltmp272:
	.loc	5 1124 45 is_stmt 1             @ ../Drivers/STM32L0xx_HAL_Driver/Src/stm32l0xx_hal_rcc_ex.c:1124:45
	lsls	r3, r1, #29
	bpl	.LBB14_9
.Ltmp273:
@ %bb.8:
	@DEBUG_VALUE: HAL_RCCEx_CRS_IRQHandler:itflags <- $r1
	@DEBUG_VALUE: HAL_RCCEx_CRS_IRQHandler:crserror <- 0
	.loc	5 0 45 is_stmt 0                @ ../Drivers/STM32L0xx_HAL_Driver/Src/stm32l0xx_hal_rcc_ex.c:0:45
	mov	r2, r5
.Ltmp274:
.LBB14_9:
	@DEBUG_VALUE: HAL_RCCEx_CRS_IRQHandler:itflags <- $r1
	@DEBUG_VALUE: HAL_RCCEx_CRS_IRQHandler:crserror <- 0
	.loc	5 1124 45                       @ ../Drivers/STM32L0xx_HAL_Driver/Src/stm32l0xx_hal_rcc_ex.c:1124:45
	cmp	r2, #0
	bne	.LBB14_11
.Ltmp275:
@ %bb.10:
	@DEBUG_VALUE: HAL_RCCEx_CRS_IRQHandler:itflags <- $r1
	@DEBUG_VALUE: HAL_RCCEx_CRS_IRQHandler:crserror <- 0
	.loc	5 1140 7 is_stmt 1              @ ../Drivers/STM32L0xx_HAL_Driver/Src/stm32l0xx_hal_rcc_ex.c:1140:7
	str	r4, [r0, #12]
	.loc	5 1126 10                       @ ../Drivers/STM32L0xx_HAL_Driver/Src/stm32l0xx_hal_rcc_ex.c:1126:10
	lsrs	r1, r1, #5
.Ltmp276:
	@DEBUG_VALUE: HAL_RCCEx_CRS_IRQHandler:crserror <- [DW_OP_constu 24, DW_OP_and, DW_OP_stack_value] $r1
	.loc	5 0 10 is_stmt 0                @ ../Drivers/STM32L0xx_HAL_Driver/Src/stm32l0xx_hal_rcc_ex.c:0:10
	movs	r0, #56
	.loc	5 1134 10 is_stmt 1             @ ../Drivers/STM32L0xx_HAL_Driver/Src/stm32l0xx_hal_rcc_ex.c:1134:10
	ands	r0, r1
.Ltmp277:
	@DEBUG_VALUE: HAL_RCCEx_CRS_IRQHandler:crserror <- $r0
	.loc	5 1143 7                        @ ../Drivers/STM32L0xx_HAL_Driver/Src/stm32l0xx_hal_rcc_ex.c:1143:7
	bl	HAL_RCCEx_CRS_ErrorCallback
.Ltmp278:
.LBB14_11:
	.loc	5 1146 1                        @ ../Drivers/STM32L0xx_HAL_Driver/Src/stm32l0xx_hal_rcc_ex.c:1146:1
	pop	{r4, r5, r6, pc}
.LBB14_12:
.Ltmp279:
	@DEBUG_VALUE: HAL_RCCEx_CRS_IRQHandler:itsources <- $r3
	@DEBUG_VALUE: HAL_RCCEx_CRS_IRQHandler:itflags <- $r1
	@DEBUG_VALUE: HAL_RCCEx_CRS_IRQHandler:crserror <- 0
	.loc	5 0 1 is_stmt 0                 @ ../Drivers/STM32L0xx_HAL_Driver/Src/stm32l0xx_hal_rcc_ex.c:0:1
	movs	r1, #1
.Ltmp280:
	.loc	5 1098 5 is_stmt 1              @ ../Drivers/STM32L0xx_HAL_Driver/Src/stm32l0xx_hal_rcc_ex.c:1098:5
	str	r1, [r0, #12]
	.loc	5 1101 5                        @ ../Drivers/STM32L0xx_HAL_Driver/Src/stm32l0xx_hal_rcc_ex.c:1101:5
	bl	HAL_RCCEx_CRS_SyncOkCallback
.Ltmp281:
	.loc	5 1146 1                        @ ../Drivers/STM32L0xx_HAL_Driver/Src/stm32l0xx_hal_rcc_ex.c:1146:1
	pop	{r4, r5, r6, pc}
.Ltmp282:
.LBB14_13:
	@DEBUG_VALUE: HAL_RCCEx_CRS_IRQHandler:itsources <- $r3
	@DEBUG_VALUE: HAL_RCCEx_CRS_IRQHandler:itflags <- $r1
	@DEBUG_VALUE: HAL_RCCEx_CRS_IRQHandler:crserror <- 0
	.loc	5 1107 5                        @ ../Drivers/STM32L0xx_HAL_Driver/Src/stm32l0xx_hal_rcc_ex.c:1107:5
	str	r4, [r0, #12]
	.loc	5 1110 5                        @ ../Drivers/STM32L0xx_HAL_Driver/Src/stm32l0xx_hal_rcc_ex.c:1110:5
	bl	HAL_RCCEx_CRS_SyncWarnCallback
.Ltmp283:
	.loc	5 1146 1                        @ ../Drivers/STM32L0xx_HAL_Driver/Src/stm32l0xx_hal_rcc_ex.c:1146:1
	pop	{r4, r5, r6, pc}
.Ltmp284:
.LBB14_14:
	@DEBUG_VALUE: HAL_RCCEx_CRS_IRQHandler:itsources <- $r3
	@DEBUG_VALUE: HAL_RCCEx_CRS_IRQHandler:itflags <- $r1
	@DEBUG_VALUE: HAL_RCCEx_CRS_IRQHandler:crserror <- 0
	.loc	5 1116 5                        @ ../Drivers/STM32L0xx_HAL_Driver/Src/stm32l0xx_hal_rcc_ex.c:1116:5
	str	r4, [r0, #12]
	.loc	5 1119 5                        @ ../Drivers/STM32L0xx_HAL_Driver/Src/stm32l0xx_hal_rcc_ex.c:1119:5
	bl	HAL_RCCEx_CRS_ExpectedSyncCallback
.Ltmp285:
	.loc	5 1146 1                        @ ../Drivers/STM32L0xx_HAL_Driver/Src/stm32l0xx_hal_rcc_ex.c:1146:1
	pop	{r4, r5, r6, pc}
.Ltmp286:
	.p2align	2
@ %bb.15:
	.loc	5 0 1 is_stmt 0                 @ ../Drivers/STM32L0xx_HAL_Driver/Src/stm32l0xx_hal_rcc_ex.c:0:1
__arm_cp.14_0:
	.long	1073769472                      @ 0x40006c00
.Lcpi_end27:
	.size	__arm_cp.14_0, .Lcpi_end27-__arm_cp.14_0
.Lfunc_end14:
	.size	HAL_RCCEx_CRS_IRQHandler, .Lfunc_end14-HAL_RCCEx_CRS_IRQHandler
	.cfi_endproc
	.cantunwind
	.fnend
                                        @ -- End function
	.section	.text.HAL_RCCEx_CRS_SyncOkCallback,"ax",%progbits
	.hidden	HAL_RCCEx_CRS_SyncOkCallback    @ -- Begin function HAL_RCCEx_CRS_SyncOkCallback
	.weak	HAL_RCCEx_CRS_SyncOkCallback
	.p2align	1
	.type	HAL_RCCEx_CRS_SyncOkCallback,%function
	.code	16                              @ @HAL_RCCEx_CRS_SyncOkCallback
	.thumb_func
HAL_RCCEx_CRS_SyncOkCallback:
.Lfunc_begin15:
	.loc	5 1153 0 is_stmt 1              @ ../Drivers/STM32L0xx_HAL_Driver/Src/stm32l0xx_hal_rcc_ex.c:1153:0
	.fnstart
	.cfi_startproc
@ %bb.0:
	.loc	5 1157 1 prologue_end           @ ../Drivers/STM32L0xx_HAL_Driver/Src/stm32l0xx_hal_rcc_ex.c:1157:1
	bx	lr
.Ltmp287:
.Lfunc_end15:
	.size	HAL_RCCEx_CRS_SyncOkCallback, .Lfunc_end15-HAL_RCCEx_CRS_SyncOkCallback
	.cfi_endproc
	.cantunwind
	.fnend
                                        @ -- End function
	.section	.text.HAL_RCCEx_CRS_SyncWarnCallback,"ax",%progbits
	.hidden	HAL_RCCEx_CRS_SyncWarnCallback  @ -- Begin function HAL_RCCEx_CRS_SyncWarnCallback
	.weak	HAL_RCCEx_CRS_SyncWarnCallback
	.p2align	1
	.type	HAL_RCCEx_CRS_SyncWarnCallback,%function
	.code	16                              @ @HAL_RCCEx_CRS_SyncWarnCallback
	.thumb_func
HAL_RCCEx_CRS_SyncWarnCallback:
.Lfunc_begin16:
	.loc	5 1164 0                        @ ../Drivers/STM32L0xx_HAL_Driver/Src/stm32l0xx_hal_rcc_ex.c:1164:0
	.fnstart
	.cfi_startproc
@ %bb.0:
	.loc	5 1168 1 prologue_end           @ ../Drivers/STM32L0xx_HAL_Driver/Src/stm32l0xx_hal_rcc_ex.c:1168:1
	bx	lr
.Ltmp288:
.Lfunc_end16:
	.size	HAL_RCCEx_CRS_SyncWarnCallback, .Lfunc_end16-HAL_RCCEx_CRS_SyncWarnCallback
	.cfi_endproc
	.cantunwind
	.fnend
                                        @ -- End function
	.section	.text.HAL_RCCEx_CRS_ExpectedSyncCallback,"ax",%progbits
	.hidden	HAL_RCCEx_CRS_ExpectedSyncCallback @ -- Begin function HAL_RCCEx_CRS_ExpectedSyncCallback
	.weak	HAL_RCCEx_CRS_ExpectedSyncCallback
	.p2align	1
	.type	HAL_RCCEx_CRS_ExpectedSyncCallback,%function
	.code	16                              @ @HAL_RCCEx_CRS_ExpectedSyncCallback
	.thumb_func
HAL_RCCEx_CRS_ExpectedSyncCallback:
.Lfunc_begin17:
	.loc	5 1175 0                        @ ../Drivers/STM32L0xx_HAL_Driver/Src/stm32l0xx_hal_rcc_ex.c:1175:0
	.fnstart
	.cfi_startproc
@ %bb.0:
	.loc	5 1179 1 prologue_end           @ ../Drivers/STM32L0xx_HAL_Driver/Src/stm32l0xx_hal_rcc_ex.c:1179:1
	bx	lr
.Ltmp289:
.Lfunc_end17:
	.size	HAL_RCCEx_CRS_ExpectedSyncCallback, .Lfunc_end17-HAL_RCCEx_CRS_ExpectedSyncCallback
	.cfi_endproc
	.cantunwind
	.fnend
                                        @ -- End function
	.section	.text.HAL_RCCEx_CRS_ErrorCallback,"ax",%progbits
	.hidden	HAL_RCCEx_CRS_ErrorCallback     @ -- Begin function HAL_RCCEx_CRS_ErrorCallback
	.weak	HAL_RCCEx_CRS_ErrorCallback
	.p2align	1
	.type	HAL_RCCEx_CRS_ErrorCallback,%function
	.code	16                              @ @HAL_RCCEx_CRS_ErrorCallback
	.thumb_func
HAL_RCCEx_CRS_ErrorCallback:
.Lfunc_begin18:
	.loc	5 1191 0                        @ ../Drivers/STM32L0xx_HAL_Driver/Src/stm32l0xx_hal_rcc_ex.c:1191:0
	.fnstart
	.cfi_startproc
@ %bb.0:
	@DEBUG_VALUE: HAL_RCCEx_CRS_ErrorCallback:Error <- $r0
	.loc	5 1198 1 prologue_end           @ ../Drivers/STM32L0xx_HAL_Driver/Src/stm32l0xx_hal_rcc_ex.c:1198:1
	bx	lr
.Ltmp290:
.Lfunc_end18:
	.size	HAL_RCCEx_CRS_ErrorCallback, .Lfunc_end18-HAL_RCCEx_CRS_ErrorCallback
	.cfi_endproc
	.cantunwind
	.fnend
                                        @ -- End function
	.file	6 "C:\\Users\\ignas\\Downloads\\V2\\V2\\MDK-ARM" "../Drivers/STM32L0xx_HAL_Driver/Inc/stm32l0xx_hal_rcc_ex.h"
	.section	".note.GNU-stack","",%progbits
	.eabi_attribute	30, 3	@ Tag_ABI_optimization_goals
	.ARM_attribute	16, 1	@ Tag_AV_eba