	.text
	.syntax unified
	.eabi_attribute	67, "2.09"	@ Tag_conformance
	.cpu	cortex-m0plus
	.eabi_attribute	6, 12	@ Tag_CPU_arch
	.eabi_attribute	7, 77	@ Tag_CPU_arch_profile
	.eabi_attribute	8, 0	@ Tag_ARM_ISA_use
	.eabi_attribute	9, 1	@ Tag_THUMB_ISA_use
	.eabi_attribute	34, 0	@ Tag_CPU_unaligned_access
	.eabi_attribute	17, 1	@ Tag_ABI_PCS_GOT_use
	.eabi_attribute	20, 2	@ Tag_ABI_FP_denormal
	.eabi_attribute	21, 0	@ Tag_ABI_FP_exceptions
	.eabi_attribute	23, 1	@ Tag_ABI_FP_number_model
	.eabi_attribute	24, 1	@ Tag_ABI_align_needed
	.eabi_attribute	25, 1	@ Tag_ABI_align_preserved
	.eabi_attribute	38, 1	@ Tag_ABI_FP_16bit_format
	.eabi_attribute	18, 2	@ Tag_ABI_PCS_wchar_t
	.eabi_attribute	26, 1	@ Tag_ABI_enum_size
	.eabi_attribute	14, 0	@ Tag_ABI_PCS_R9_use
	.file	"stm32l0xx_hal_flash_ramfunc.c"
	.file	1 "C:\\Users\\ignas\\Downloads\\V2\\V2\\MDK-ARM" "../Drivers/STM32L0xx_HAL_Driver/Inc/stm32l0xx_hal_def.h"
	.file	2 "C:\\Keil_v5\\ARM\\ARMCLANG\\Bin\\..\\include" "stdint.h"
	.file	3 "C:\\Users\\ignas\\Downloads\\V2\\V2\\MDK-ARM" "../Drivers/CMSIS/Device/ST/STM32L0xx/Include/stm32l073xx.h"
	.section	.text.HAL_FLASHEx_EnableRunPowerDown,"ax",%progbits
	.hidden	HAL_FLASHEx_EnableRunPowerDown  @ -- Begin function HAL_FLASHEx_EnableRunPowerDown
	.globl	HAL_FLASHEx_EnableRunPowerDown
	.p2align	2
	.type	HAL_FLASHEx_EnableRunPowerDown,%function
	.code	16                              @ @HAL_FLASHEx_EnableRunPowerDown
	.thumb_func
HAL_FLASHEx_EnableRunPowerDown:
.Lfunc_begin0:
	.file	4 "C:\\Users\\ignas\\Downloads\\V2\\V2\\MDK-ARM" "../Drivers/STM32L0xx_HAL_Driver/Src/stm32l0xx_hal_flash_ramfunc.c"
	.loc	4 114 0                         @ ../Drivers/STM32L0xx_HAL_Driver/Src/stm32l0xx_hal_flash_ramfunc.c:114:0
	.fnstart
	.cfi_sections .debug_frame
	.cfi_startproc
@ %bb.0:
	ldr	r0, __arm_cp.0_0
	ldr	r1, __arm_cp.0_1
.Ltmp0:
	.loc	4 116 3 prologue_end            @ ../Drivers/STM32L0xx_HAL_Driver/Src/stm32l0xx_hal_flash_ramfunc.c:116:3
	str	r1, [r0, #8]
	ldr	r1, __arm_cp.0_2
	str	r1, [r0, #8]
	ldr	r1, [r0]
	movs	r2, #16
	orrs	r2, r1
	str	r2, [r0]
	movs	r0, #0
.Ltmp1:
	.loc	4 118 3                         @ ../Drivers/STM32L0xx_HAL_Driver/Src/stm32l0xx_hal_flash_ramfunc.c:118:3
	bx	lr
.Ltmp2:
	.p2align	2
@ %bb.1:
	.loc	4 0 3 is_stmt 0                 @ ../Drivers/STM32L0xx_HAL_Driver/Src/stm32l0xx_hal_flash_ramfunc.c:0:3
__arm_cp.0_0:
	.long	1073881088                      @ 0x40022000
.Lcpi_end0:
	.size	__arm_cp.0_0, .Lcpi_end0-__arm_cp.0_0
__arm_cp.0_1:
	.long	68494903                        @ 0x4152637
.Lcpi_end1:
	.size	__arm_cp.0_1, .Lcpi_end1-__arm_cp.0_1
__arm_cp.0_2:
	.long	4210818301                      @ 0xfafbfcfd
.Lcpi_end2:
	.size	__arm_cp.0_2, .Lcpi_end2-__arm_cp.0_2
.Lfunc_end0:
	.size	HAL_FLASHEx_EnableRunPowerDown, .Lfunc_end0-HAL_FLASHEx_EnableRunPowerDown
	.cfi_endproc
	.cantunwind
	.fnend
                                        @ -- End function
	.section	.text.HAL_FLASHEx_DisableRunPowerDown,"ax",%progbits
	.hidden	HAL_FLASHEx_DisableRunPowerDown @ -- Begin function HAL_FLASHEx_DisableRunPowerDown
	.globl	HAL_FLASHEx_DisableRunPowerDown
	.p2align	2
	.type	HAL_FLASHEx_DisableRunPowerDown,%function
	.code	16                              @ @HAL_FLASHEx_DisableRunPowerDown
	.thumb_func
HAL_FLASHEx_DisableRunPowerDown:
.Lfunc_begin1:
	.loc	4 127 0 is_stmt 1               @ ../Drivers/STM32L0xx_HAL_Driver/Src/stm32l0xx_hal_flash_ramfunc.c:127:0
	.fnstart
	.cfi_startproc
@ %bb.0:
	ldr	r0, __arm_cp.1_0
	ldr	r1, __arm_cp.1_1
.Ltmp3:
	.loc	4 129 3 prologue_end            @ ../Drivers/STM32L0xx_HAL_Driver/Src/stm32l0xx_hal_flash_ramfunc.c:129:3
	str	r1, [r0, #8]
	ldr	r1, __arm_cp.1_2
	str	r1, [r0, #8]
	ldr	r1, [r0]
	movs	r2, #16
	bics	r1, r2
	str	r1, [r0]
	movs	r0, #0
.Ltmp4:
	.loc	4 131 3                         @ ../Drivers/STM32L0xx_HAL_Driver/Src/stm32l0xx_hal_flash_ramfunc.c:131:3
	bx	lr
.Ltmp5:
	.p2align	2
@ %bb.1:
	.loc	4 0 3 is_stmt 0                 @ ../Drivers/STM32L0xx_HAL_Driver/Src/stm32l0xx_hal_flash_ramfunc.c:0:3
__arm_cp.1_0:
	.long	1073881088                      @ 0x40022000
.Lcpi_end3:
	.size	__arm_cp.1_0, .Lcpi_end3-__arm_cp.1_0
__arm_cp.1_1:
	.long	68494903                        @ 0x4152637
.Lcpi_end4:
	.size	__arm_cp.1_1, .Lcpi_end4-__arm_cp.1_1
__arm_cp.1_2:
	.long	4210818301                      @ 0xfafbfcfd
.Lcpi_end5:
	.size	__arm_cp.1_2, .Lcpi_end5-__arm_cp.1_2
.Lfunc_end1:
	.size	HAL_FLASHEx_DisableRunPowerDown, .Lfunc_end1-HAL_FLASHEx_DisableRunPowerDown
	.cfi_endproc
	.cantunwind
	.fnend
                                        @ -- End function
	.section	.text.HAL_FLASHEx_EraseParallelPage,"ax",%progbits
	.hidden	HAL_FLASHEx_EraseParallelPage   @ -- Begin function HAL_FLASHEx_EraseParallelPage
	.globl	HAL_FLASHEx_EraseParallelPage
	.p2align	2
	.type	HAL_FLASHEx_EraseParallelPage,%function
	.code	16                              @ @HAL_FLASHEx_EraseParallelPage
	.thumb_func
HAL_FLASHEx_EraseParallelPage:
.Lfunc_begin2:
	.loc	4 164 0 is_stmt 1               @ ../Drivers/STM32L0xx_HAL_Driver/Src/stm32l0xx_hal_flash_ramfunc.c:164:0
	.fnstart
	.cfi_startproc
@ %bb.0:
	@DEBUG_VALUE: HAL_FLASHEx_EraseParallelPage:Page_Address1 <- $r0
	@DEBUG_VALUE: HAL_FLASHEx_EraseParallelPage:Page_Address2 <- $r1
	.save	{r4, r5, r6, r7, lr}
	push	{r4, r5, r6, r7, lr}
	.cfi_def_cfa_offset 20
	.cfi_offset lr, -4
	.cfi_offset r7, -8
	.cfi_offset r6, -12
	.cfi_offset r5, -16
	.cfi_offset r4, -20
	.pad	#12
	sub	sp, #12
	.cfi_def_cfa_offset 32
	mov	r4, r1
.Ltmp6:
	@DEBUG_VALUE: HAL_FLASHEx_EraseParallelPage:Page_Address2 <- $r4
	mov	r5, r0
.Ltmp7:
	@DEBUG_VALUE: HAL_FLASHEx_EraseParallelPage:status <- 0
	@DEBUG_VALUE: HAL_FLASHEx_EraseParallelPage:Page_Address1 <- $r5
	.loc	4 168 12 prologue_end           @ ../Drivers/STM32L0xx_HAL_Driver/Src/stm32l0xx_hal_flash_ramfunc.c:168:12
	bl	FLASHRAM_WaitForLastOperation
.Ltmp8:
	@DEBUG_VALUE: HAL_FLASHEx_EraseParallelPage:status <- $r0
	.loc	4 170 6                         @ ../Drivers/STM32L0xx_HAL_Driver/Src/stm32l0xx_hal_flash_ramfunc.c:170:6
	cmp	r0, #0
	bne	.LBB2_2
.Ltmp9:
@ %bb.1:
	@DEBUG_VALUE: HAL_FLASHEx_EraseParallelPage:status <- $r0
	@DEBUG_VALUE: HAL_FLASHEx_EraseParallelPage:Page_Address1 <- $r5
	@DEBUG_VALUE: HAL_FLASHEx_EraseParallelPage:Page_Address2 <- $r4
	.loc	4 0 6 is_stmt 0                 @ ../Drivers/STM32L0xx_HAL_Driver/Src/stm32l0xx_hal_flash_ramfunc.c:0:6
	movs	r0, #1
.Ltmp10:
	lsls	r2, r0, #15
	str	r2, [sp, #8]                    @ 4-byte Spill
	ldr	r7, __arm_cp.2_0
.Ltmp11:
	.loc	4 173 5 is_stmt 1               @ ../Drivers/STM32L0xx_HAL_Driver/Src/stm32l0xx_hal_flash_ramfunc.c:173:5
	ldr	r1, [r7]
	orrs	r1, r2
	str	r1, [r7]
	lsls	r1, r0, #9
	.loc	4 174 5                         @ ../Drivers/STM32L0xx_HAL_Driver/Src/stm32l0xx_hal_flash_ramfunc.c:174:5
	str	r1, [sp, #4]                    @ 4-byte Spill
	ldr	r0, [r7]
	orrs	r0, r1
	str	r0, [r7]
	.loc	4 175 5                         @ ../Drivers/STM32L0xx_HAL_Driver/Src/stm32l0xx_hal_flash_ramfunc.c:175:5
	ldr	r0, [r7]
	movs	r6, #8
	orrs	r0, r6
	str	r0, [r7]
	movs	r0, #0
	.loc	4 178 37                        @ ../Drivers/STM32L0xx_HAL_Driver/Src/stm32l0xx_hal_flash_ramfunc.c:178:37
	str	r0, [r5]
	.loc	4 180 37                        @ ../Drivers/STM32L0xx_HAL_Driver/Src/stm32l0xx_hal_flash_ramfunc.c:180:37
	str	r0, [r4]
	.loc	4 183 14                        @ ../Drivers/STM32L0xx_HAL_Driver/Src/stm32l0xx_hal_flash_ramfunc.c:183:14
	bl	FLASHRAM_WaitForLastOperation
.Ltmp12:
	@DEBUG_VALUE: HAL_FLASHEx_EraseParallelPage:status <- undef
	.loc	4 186 5                         @ ../Drivers/STM32L0xx_HAL_Driver/Src/stm32l0xx_hal_flash_ramfunc.c:186:5
	ldr	r1, [r7]
	bics	r1, r6
	str	r1, [r7]
	.loc	4 187 5                         @ ../Drivers/STM32L0xx_HAL_Driver/Src/stm32l0xx_hal_flash_ramfunc.c:187:5
	ldr	r1, [r7]
	ldr	r2, [sp, #4]                    @ 4-byte Reload
	bics	r1, r2
	str	r1, [r7]
	.loc	4 188 5                         @ ../Drivers/STM32L0xx_HAL_Driver/Src/stm32l0xx_hal_flash_ramfunc.c:188:5
	ldr	r1, [r7]
	ldr	r2, [sp, #8]                    @ 4-byte Reload
	bics	r1, r2
	str	r1, [r7]
.Ltmp13:
.LBB2_2:
	@DEBUG_VALUE: HAL_FLASHEx_EraseParallelPage:Page_Address1 <- $r5
	@DEBUG_VALUE: HAL_FLASHEx_EraseParallelPage:Page_Address2 <- $r4
	@DEBUG_VALUE: HAL_FLASHEx_EraseParallelPage:status <- $r0
	.loc	4 191 3                         @ ../Drivers/STM32L0xx_HAL_Driver/Src/stm32l0xx_hal_flash_ramfunc.c:191:3
	add	sp, #12
	pop	{r4, r5, r6, r7, pc}
.Ltmp14:
	.p2align	2
@ %bb.3:
	.loc	4 0 3 is_stmt 0                 @ ../Drivers/STM32L0xx_HAL_Driver/Src/stm32l0xx_hal_flash_ramfunc.c:0:3
__arm_cp.2_0:
	.long	1073881092                      @ 0x40022004
.Lcpi_end6:
	.size	__arm_cp.2_0, .Lcpi_end6-__arm_cp.2_0
.Lfunc_end2:
	.size	HAL_FLASHEx_EraseParallelPage, .Lfunc_end2-HAL_FLASHEx_EraseParallelPage
	.cfi_endproc
	.cantunwind
	.fnend
                                        @ -- End function
	.section	.text.FLASHRAM_WaitForLastOperation,"ax",%progbits
	.p2align	2                               @ -- Begin function FLASHRAM_WaitForLastOperation
	.type	FLASHRAM_WaitForLastOperation,%function
	.code	16                              @ @FLASHRAM_WaitForLastOperation
	.thumb_func
FLASHRAM_WaitForLastOperation:
.Lfunc_begin3:
	.loc	4 457 0 is_stmt 1               @ ../Drivers/STM32L0xx_HAL_Driver/Src/stm32l0xx_hal_flash_ramfunc.c:457:0
	.fnstart
	.cfi_startproc
@ %bb.0:
	.save	{r4, r5, r6, r7, lr}
	push	{r4, r5, r6, r7, lr}
	.cfi_def_cfa_offset 20
	.cfi_offset lr, -4
	.cfi_offset r7, -8
	.cfi_offset r6, -12
	.cfi_offset r5, -16
	.cfi_offset r4, -20
	.pad	#16
	sub	sp, #16
	.cfi_def_cfa_offset 36
	ldr	r0, __arm_cp.3_0
	ldr	r1, __arm_cp.3_1
	@DEBUG_VALUE: FLASHRAM_WaitForLastOperation:Timeout <- 50000
.Ltmp15:
.LBB3_1:                                @ =>This Inner Loop Header: Depth=1
	@DEBUG_VALUE: FLASHRAM_WaitForLastOperation:Timeout <- [DW_OP_consts 18446744073709501615, DW_OP_minus, DW_OP_consts 18446744073709551615, DW_OP_mul, DW_OP_consts 50000, DW_OP_plus, DW_OP_stack_value] $r0
	.loc	4 462 11 prologue_end           @ ../Drivers/STM32L0xx_HAL_Driver/Src/stm32l0xx_hal_flash_ramfunc.c:462:11
	adds	r0, r0, #1
.Ltmp16:
	ldr	r2, [r1]
	.loc	4 462 5 is_stmt 0               @ ../Drivers/STM32L0xx_HAL_Driver/Src/stm32l0xx_hal_flash_ramfunc.c:462:5
	lsls	r2, r2, #31
.Ltmp17:
	@DEBUG_VALUE: FLASHRAM_WaitForLastOperation:Timeout <- [DW_OP_consts 18446744073709501615, DW_OP_minus, DW_OP_consts 18446744073709551615, DW_OP_mul, DW_OP_consts 49999, DW_OP_plus, DW_OP_stack_value] $r0
	beq	.LBB3_3
.Ltmp18:
@ %bb.2:                                @   in Loop: Header=BB3_1 Depth=1
	@DEBUG_VALUE: FLASHRAM_WaitForLastOperation:Timeout <- [DW_OP_consts 18446744073709501615, DW_OP_minus, DW_OP_consts 18446744073709551615, DW_OP_mul, DW_OP_consts 49999, DW_OP_plus, DW_OP_stack_value] $r0
	cmp	r0, #0
	bne	.LBB3_1
.Ltmp19:
.LBB3_3:
	@DEBUG_VALUE: FLASHRAM_WaitForLastOperation:Timeout <- [DW_OP_consts 18446744073709501615, DW_OP_minus, DW_OP_consts 18446744073709551615, DW_OP_mul, DW_OP_consts 49999, DW_OP_plus, DW_OP_stack_value] $r0
	.loc	4 467 8 is_stmt 1               @ ../Drivers/STM32L0xx_HAL_Driver/Src/stm32l0xx_hal_flash_ramfunc.c:467:8
	cmp	r0, #0
	beq	.LBB3_16
.Ltmp20:
@ %bb.4:
	@DEBUG_VALUE: FLASHRAM_WaitForLastOperation:Timeout <- [DW_OP_consts 18446744073709501615, DW_OP_minus, DW_OP_consts 18446744073709551615, DW_OP_mul, DW_OP_consts 49999, DW_OP_plus, DW_OP_stack_value] $r0
	.loc	4 473 7                         @ ../Drivers/STM32L0xx_HAL_Driver/Src/stm32l0xx_hal_flash_ramfunc.c:473:7
	ldr	r0, [r1]
.Ltmp21:
	.loc	4 473 7 is_stmt 0               @ ../Drivers/STM32L0xx_HAL_Driver/Src/stm32l0xx_hal_flash_ramfunc.c:473:7
	lsls	r0, r0, #30
	bpl	.LBB3_6
@ %bb.5:
	.loc	4 0 7                           @ ../Drivers/STM32L0xx_HAL_Driver/Src/stm32l0xx_hal_flash_ramfunc.c:0:7
	movs	r0, #2
.Ltmp22:
	.loc	4 476 5 is_stmt 1               @ ../Drivers/STM32L0xx_HAL_Driver/Src/stm32l0xx_hal_flash_ramfunc.c:476:5
	str	r0, [r1]
.Ltmp23:
.LBB3_6:
	.loc	4 0 5 is_stmt 0                 @ ../Drivers/STM32L0xx_HAL_Driver/Src/stm32l0xx_hal_flash_ramfunc.c:0:5
	movs	r0, #1
	lsls	r3, r0, #9
	lsls	r7, r0, #10
	lsls	r2, r0, #11
	str	r2, [sp, #8]                    @ 4-byte Spill
	lsls	r2, r0, #13
	str	r2, [sp, #4]                    @ 4-byte Spill
	lsls	r2, r0, #16
	str	r2, [sp, #12]                   @ 4-byte Spill
	lsls	r5, r0, #17
.Ltmp24:
	.loc	4 479 7 is_stmt 1               @ ../Drivers/STM32L0xx_HAL_Driver/Src/stm32l0xx_hal_flash_ramfunc.c:479:7
	ldr	r4, [r1]
	.loc	4 479 51 is_stmt 0              @ ../Drivers/STM32L0xx_HAL_Driver/Src/stm32l0xx_hal_flash_ramfunc.c:479:51
	lsls	r4, r4, #23
	bmi	.LBB3_14
@ %bb.7:
	.loc	4 480 7 is_stmt 1               @ ../Drivers/STM32L0xx_HAL_Driver/Src/stm32l0xx_hal_flash_ramfunc.c:480:7
	ldr	r4, [r1]
	.loc	4 480 51 is_stmt 0              @ ../Drivers/STM32L0xx_HAL_Driver/Src/stm32l0xx_hal_flash_ramfunc.c:480:51
	tst	r4, r3
	bne	.LBB3_14
@ %bb.8:
	.loc	4 481 7 is_stmt 1               @ ../Drivers/STM32L0xx_HAL_Driver/Src/stm32l0xx_hal_flash_ramfunc.c:481:7
	ldr	r4, [r1]
	.loc	4 481 51 is_stmt 0              @ ../Drivers/STM32L0xx_HAL_Driver/Src/stm32l0xx_hal_flash_ramfunc.c:481:51
	tst	r4, r7
	bne	.LBB3_14
@ %bb.9:
	.loc	4 482 7 is_stmt 1               @ ../Drivers/STM32L0xx_HAL_Driver/Src/stm32l0xx_hal_flash_ramfunc.c:482:7
	ldr	r4, [r1]
	.loc	4 482 51 is_stmt 0              @ ../Drivers/STM32L0xx_HAL_Driver/Src/stm32l0xx_hal_flash_ramfunc.c:482:51
	ldr	r2, [sp, #8]                    @ 4-byte Reload
	tst	r4, r2
	bne	.LBB3_14
@ %bb.10:
	.loc	4 483 7 is_stmt 1               @ ../Drivers/STM32L0xx_HAL_Driver/Src/stm32l0xx_hal_flash_ramfunc.c:483:7
	ldr	r4, [r1]
	.loc	4 483 51 is_stmt 0              @ ../Drivers/STM32L0xx_HAL_Driver/Src/stm32l0xx_hal_flash_ramfunc.c:483:51
	ldr	r2, [sp, #4]                    @ 4-byte Reload
	tst	r4, r2
	bne	.LBB3_14
@ %bb.11:
	.loc	4 484 7 is_stmt 1               @ ../Drivers/STM32L0xx_HAL_Driver/Src/stm32l0xx_hal_flash_ramfunc.c:484:7
	ldr	r4, [r1]
	.loc	4 484 51 is_stmt 0              @ ../Drivers/STM32L0xx_HAL_Driver/Src/stm32l0xx_hal_flash_ramfunc.c:484:51
	tst	r4, r5
	bne	.LBB3_14
@ %bb.12:
	.loc	4 485 7 is_stmt 1               @ ../Drivers/STM32L0xx_HAL_Driver/Src/stm32l0xx_hal_flash_ramfunc.c:485:7
	ldr	r4, [r1]
.Ltmp25:
	.loc	4 479 7                         @ ../Drivers/STM32L0xx_HAL_Driver/Src/stm32l0xx_hal_flash_ramfunc.c:479:7
	ldr	r2, [sp, #12]                   @ 4-byte Reload
	tst	r4, r2
	bne	.LBB3_14
@ %bb.13:
	.loc	4 0 7 is_stmt 0                 @ ../Drivers/STM32L0xx_HAL_Driver/Src/stm32l0xx_hal_flash_ramfunc.c:0:7
	movs	r0, #0
	b	.LBB3_31
.LBB3_14:
	lsls	r4, r0, #8
.Ltmp26:
	@DEBUG_VALUE: FLASHRAM_SetErrorCode:flags <- 0
	.loc	4 400 6 is_stmt 1               @ ../Drivers/STM32L0xx_HAL_Driver/Src/stm32l0xx_hal_flash_ramfunc.c:400:6
	ldr	r2, [r1]
.Ltmp27:
	.loc	4 400 6 is_stmt 0               @ ../Drivers/STM32L0xx_HAL_Driver/Src/stm32l0xx_hal_flash_ramfunc.c:400:6
	tst	r2, r4
	str	r5, [sp]                        @ 4-byte Spill
	bne	.LBB3_17
.Ltmp28:
@ %bb.15:
	@DEBUG_VALUE: FLASHRAM_SetErrorCode:flags <- 0
	.loc	4 0 6                           @ ../Drivers/STM32L0xx_HAL_Driver/Src/stm32l0xx_hal_flash_ramfunc.c:0:6
	movs	r4, #0
	b	.LBB3_18
.Ltmp29:
.LBB3_16:
	@DEBUG_VALUE: FLASHRAM_WaitForLastOperation:Timeout <- [DW_OP_consts 18446744073709501615, DW_OP_minus, DW_OP_consts 18446744073709551615, DW_OP_mul, DW_OP_consts 49999, DW_OP_plus, DW_OP_stack_value] $r0
	movs	r0, #3
.Ltmp30:
	b	.LBB3_31
.LBB3_17:
.Ltmp31:
	@DEBUG_VALUE: FLASHRAM_SetErrorCode:flags <- 0
	.loc	4 402 22 is_stmt 1              @ ../Drivers/STM32L0xx_HAL_Driver/Src/stm32l0xx_hal_flash_ramfunc.c:402:22
	ldr	r2, __arm_cp.3_2
	ldr	r5, [r2, #20]
	movs	r6, #2
	orrs	r6, r5
	str	r6, [r2, #20]
.Ltmp32:
	@DEBUG_VALUE: FLASHRAM_SetErrorCode:flags <- 256
.LBB3_18:
	@DEBUG_VALUE: FLASHRAM_SetErrorCode:flags <- $r4
	.loc	4 405 6                         @ ../Drivers/STM32L0xx_HAL_Driver/Src/stm32l0xx_hal_flash_ramfunc.c:405:6
	ldr	r2, [r1]
.Ltmp33:
	.loc	4 405 6 is_stmt 0               @ ../Drivers/STM32L0xx_HAL_Driver/Src/stm32l0xx_hal_flash_ramfunc.c:405:6
	tst	r2, r3
	beq	.LBB3_20
.Ltmp34:
@ %bb.19:
	@DEBUG_VALUE: FLASHRAM_SetErrorCode:flags <- $r4
	.loc	4 407 22 is_stmt 1              @ ../Drivers/STM32L0xx_HAL_Driver/Src/stm32l0xx_hal_flash_ramfunc.c:407:22
	ldr	r2, __arm_cp.3_2
	ldr	r5, [r2, #20]
	orrs	r5, r0
	str	r5, [r2, #20]
	.loc	4 408 11                        @ ../Drivers/STM32L0xx_HAL_Driver/Src/stm32l0xx_hal_flash_ramfunc.c:408:11
	orrs	r4, r3
.Ltmp35:
	@DEBUG_VALUE: FLASHRAM_SetErrorCode:flags <- $r4
.LBB3_20:
	@DEBUG_VALUE: FLASHRAM_SetErrorCode:flags <- $r4
	@DEBUG_VALUE: FLASHRAM_SetErrorCode:flags <- $r4
	.loc	4 410 6                         @ ../Drivers/STM32L0xx_HAL_Driver/Src/stm32l0xx_hal_flash_ramfunc.c:410:6
	ldr	r2, [r1]
.Ltmp36:
	.loc	4 410 6 is_stmt 0               @ ../Drivers/STM32L0xx_HAL_Driver/Src/stm32l0xx_hal_flash_ramfunc.c:410:6
	tst	r2, r7
	beq	.LBB3_22
.Ltmp37:
@ %bb.21:
	@DEBUG_VALUE: FLASHRAM_SetErrorCode:flags <- $r4
	.loc	4 412 22 is_stmt 1              @ ../Drivers/STM32L0xx_HAL_Driver/Src/stm32l0xx_hal_flash_ramfunc.c:412:22
	ldr	r2, __arm_cp.3_2
	ldr	r3, [r2, #20]
	movs	r5, #8
	orrs	r5, r3
	str	r5, [r2, #20]
	.loc	4 413 11                        @ ../Drivers/STM32L0xx_HAL_Driver/Src/stm32l0xx_hal_flash_ramfunc.c:413:11
	orrs	r4, r7
.Ltmp38:
	@DEBUG_VALUE: FLASHRAM_SetErrorCode:flags <- $r4
.LBB3_22:
	@DEBUG_VALUE: FLASHRAM_SetErrorCode:flags <- $r4
	.loc	4 0 11 is_stmt 0                @ ../Drivers/STM32L0xx_HAL_Driver/Src/stm32l0xx_hal_flash_ramfunc.c:0:11
	ldr	r7, [sp, #4]                    @ 4-byte Reload
	ldr	r6, [sp, #8]                    @ 4-byte Reload
	@DEBUG_VALUE: FLASHRAM_SetErrorCode:flags <- $r4
.Ltmp39:
	.loc	4 415 6 is_stmt 1               @ ../Drivers/STM32L0xx_HAL_Driver/Src/stm32l0xx_hal_flash_ramfunc.c:415:6
	ldr	r2, [r1]
.Ltmp40:
	.loc	4 415 6 is_stmt 0               @ ../Drivers/STM32L0xx_HAL_Driver/Src/stm32l0xx_hal_flash_ramfunc.c:415:6
	tst	r2, r6
	beq	.LBB3_24
.Ltmp41:
@ %bb.23:
	@DEBUG_VALUE: FLASHRAM_SetErrorCode:flags <- $r4
	.loc	4 425 22 is_stmt 1              @ ../Drivers/STM32L0xx_HAL_Driver/Src/stm32l0xx_hal_flash_ramfunc.c:425:22
	ldr	r2, __arm_cp.3_2
	ldr	r3, [r2, #20]
	movs	r5, #4
	orrs	r5, r3
	str	r5, [r2, #20]
	.loc	4 426 11                        @ ../Drivers/STM32L0xx_HAL_Driver/Src/stm32l0xx_hal_flash_ramfunc.c:426:11
	orrs	r4, r6
.Ltmp42:
	@DEBUG_VALUE: FLASHRAM_SetErrorCode:flags <- $r4
.LBB3_24:
	@DEBUG_VALUE: FLASHRAM_SetErrorCode:flags <- $r4
	@DEBUG_VALUE: FLASHRAM_SetErrorCode:flags <- $r4
	.loc	4 429 6                         @ ../Drivers/STM32L0xx_HAL_Driver/Src/stm32l0xx_hal_flash_ramfunc.c:429:6
	ldr	r2, [r1]
.Ltmp43:
	.loc	4 429 6 is_stmt 0               @ ../Drivers/STM32L0xx_HAL_Driver/Src/stm32l0xx_hal_flash_ramfunc.c:429:6
	tst	r2, r7
	beq	.LBB3_26
.Ltmp44:
@ %bb.25:
	@DEBUG_VALUE: FLASHRAM_SetErrorCode:flags <- $r4
	.loc	4 431 22 is_stmt 1              @ ../Drivers/STM32L0xx_HAL_Driver/Src/stm32l0xx_hal_flash_ramfunc.c:431:22
	ldr	r2, __arm_cp.3_2
	ldr	r3, [r2, #20]
	movs	r5, #16
	orrs	r5, r3
	str	r5, [r2, #20]
	.loc	4 432 11                        @ ../Drivers/STM32L0xx_HAL_Driver/Src/stm32l0xx_hal_flash_ramfunc.c:432:11
	orrs	r4, r7
.Ltmp45:
	@DEBUG_VALUE: FLASHRAM_SetErrorCode:flags <- $r4
.LBB3_26:
	@DEBUG_VALUE: FLASHRAM_SetErrorCode:flags <- $r4
	.loc	4 0 11 is_stmt 0                @ ../Drivers/STM32L0xx_HAL_Driver/Src/stm32l0xx_hal_flash_ramfunc.c:0:11
	ldr	r3, [sp]                        @ 4-byte Reload
	@DEBUG_VALUE: FLASHRAM_SetErrorCode:flags <- $r4
.Ltmp46:
	.loc	4 434 6 is_stmt 1               @ ../Drivers/STM32L0xx_HAL_Driver/Src/stm32l0xx_hal_flash_ramfunc.c:434:6
	ldr	r2, [r1]
.Ltmp47:
	.loc	4 434 6 is_stmt 0               @ ../Drivers/STM32L0xx_HAL_Driver/Src/stm32l0xx_hal_flash_ramfunc.c:434:6
	tst	r2, r3
	beq	.LBB3_28
.Ltmp48:
@ %bb.27:
	@DEBUG_VALUE: FLASHRAM_SetErrorCode:flags <- $r4
	.loc	4 436 22 is_stmt 1              @ ../Drivers/STM32L0xx_HAL_Driver/Src/stm32l0xx_hal_flash_ramfunc.c:436:22
	ldr	r2, __arm_cp.3_2
	ldr	r3, [r2, #20]
	movs	r5, #32
	orrs	r3, r5
	str	r3, [r2, #20]
	.loc	4 437 11                        @ ../Drivers/STM32L0xx_HAL_Driver/Src/stm32l0xx_hal_flash_ramfunc.c:437:11
	orrs	r4, r5
.Ltmp49:
	@DEBUG_VALUE: FLASHRAM_SetErrorCode:flags <- $r4
.LBB3_28:
	@DEBUG_VALUE: FLASHRAM_SetErrorCode:flags <- $r4
	@DEBUG_VALUE: FLASHRAM_SetErrorCode:flags <- $r4
	.loc	4 439 6                         @ ../Drivers/STM32L0xx_HAL_Driver/Src/stm32l0xx_hal_flash_ramfunc.c:439:6
	ldr	r2, [r1]
.Ltmp50:
	.loc	4 439 6 is_stmt 0               @ ../Drivers/STM32L0xx_HAL_Driver/Src/stm32l0xx_hal_flash_ramfunc.c:439:6
	ldr	r3, [sp, #12]                   @ 4-byte Reload
	tst	r2, r3
	beq	.LBB3_30
.Ltmp51:
@ %bb.29:
	@DEBUG_VALUE: FLASHRAM_SetErrorCode:flags <- $r4
	.loc	4 441 22 is_stmt 1              @ ../Drivers/STM32L0xx_HAL_Driver/Src/stm32l0xx_hal_flash_ramfunc.c:441:22
	ldr	r2, __arm_cp.3_2
	ldr	r3, [r2, #20]
	movs	r5, #64
	orrs	r5, r3
	str	r5, [r2, #20]
	.loc	4 442 11                        @ ../Drivers/STM32L0xx_HAL_Driver/Src/stm32l0xx_hal_flash_ramfunc.c:442:11
	ldr	r2, [sp, #12]                   @ 4-byte Reload
	orrs	r4, r2
.Ltmp52:
	@DEBUG_VALUE: FLASHRAM_SetErrorCode:flags <- $r4
.LBB3_30:
	@DEBUG_VALUE: FLASHRAM_SetErrorCode:flags <- $r4
	@DEBUG_VALUE: FLASHRAM_SetErrorCode:flags <- $r4
	.loc	4 446 3                         @ ../Drivers/STM32L0xx_HAL_Driver/Src/stm32l0xx_hal_flash_ramfunc.c:446:3
	str	r4, [r1]
.Ltmp53:
.LBB3_31:
	.loc	4 503 1                         @ ../Drivers/STM32L0xx_HAL_Driver/Src/stm32l0xx_hal_flash_ramfunc.c:503:1
	add	sp, #16
	pop	{r4, r5, r6, r7, pc}
.Ltmp54:
	.p2align	2
@ %bb.32:
	.loc	4 0 1 is_stmt 0                 @ ../Drivers/STM32L0xx_HAL_Driver/Src/stm32l0xx_hal_flash_ramfunc.c:0:1
__arm_cp.3_0:
	.long	4294917295                      @ 0xffff3caf
.Lcpi_end7:
	.size	__arm_cp.3_0, .Lcpi_end7-__arm_cp.3_0
__arm_cp.3_1:
	.long	1073881112                      @ 0x40022018
.Lcpi_end8:
	.size	__arm_cp.3_1, .Lcpi_end8-__arm_cp.3_1
__arm_cp.3_2:
	.long	pFlash
.Lcpi_end9:
	.size	__arm_cp.3_2, .Lcpi_end9-__arm_cp.3_2
.Lfunc_end3:
	.size	FLASHRAM_WaitForLastOperation, .Lfunc_end3-FLASHRAM_WaitForLastOperation
	.cfi_endproc
	.cantunwind
	.fnend
                                        @ -- End function
	.section	.text.HAL_FLASHEx_ProgramParallelHalfPage,"ax",%progbits
	.hidden	HAL_FLASHEx_ProgramParallelHalfPage @ -- Begin function HAL_FLASHEx_ProgramParallelHalfPage
	.globl	HAL_FLASHEx_ProgramParallelHalfPage
	.p2align	2
	.type	HAL_FLASHEx_ProgramParallelHalfPage,%function
	.code	16                              @ @HAL_FLASHEx_ProgramParallelHalfPage
	.thumb_func
HAL_FLASHEx_ProgramParallelHalfPage:
.Lfunc_begin4:
	.loc	4 223 0 is_stmt 1               @ ../Drivers/STM32L0xx_HAL_Driver/Src/stm32l0xx_hal_flash_ramfunc.c:223:0
	.fnstart
	.cfi_startproc
@ %bb.0:
	@DEBUG_VALUE: HAL_FLASHEx_ProgramParallelHalfPage:Address1 <- $r0
	@DEBUG_VALUE: HAL_FLASHEx_ProgramParallelHalfPage:pBuffer1 <- $r1
	@DEBUG_VALUE: HAL_FLASHEx_ProgramParallelHalfPage:Address2 <- $r2
	@DEBUG_VALUE: HAL_FLASHEx_ProgramParallelHalfPage:pBuffer2 <- $r3
	.save	{r4, r5, r6, r7, lr}
	push	{r4, r5, r6, r7, lr}
	.cfi_def_cfa_offset 20
	.cfi_offset lr, -4
	.cfi_offset r7, -8
	.cfi_offset r6, -12
	.cfi_offset r5, -16
	.cfi_offset r4, -20
	.pad	#20
	sub	sp, #20
	.cfi_def_cfa_offset 40
	mov	r4, r3
.Ltmp55:
	@DEBUG_VALUE: HAL_FLASHEx_ProgramParallelHalfPage:pBuffer2 <- $r4
	mov	r5, r2
.Ltmp56:
	@DEBUG_VALUE: HAL_FLASHEx_ProgramParallelHalfPage:Address2 <- $r5
	mov	r6, r1
.Ltmp57:
	@DEBUG_VALUE: HAL_FLASHEx_ProgramParallelHalfPage:pBuffer1 <- $r6
	mov	r7, r0
.Ltmp58:
	@DEBUG_VALUE: HAL_FLASHEx_ProgramParallelHalfPage:status <- 0
	@DEBUG_VALUE: HAL_FLASHEx_ProgramParallelHalfPage:count <- 0
	@DEBUG_VALUE: HAL_FLASHEx_ProgramParallelHalfPage:Address1 <- $r7
	.loc	4 228 12 prologue_end           @ ../Drivers/STM32L0xx_HAL_Driver/Src/stm32l0xx_hal_flash_ramfunc.c:228:12
	bl	FLASHRAM_WaitForLastOperation
.Ltmp59:
	@DEBUG_VALUE: HAL_FLASHEx_ProgramParallelHalfPage:status <- $r0
	.loc	4 230 6                         @ ../Drivers/STM32L0xx_HAL_Driver/Src/stm32l0xx_hal_flash_ramfunc.c:230:6
	cmp	r0, #0
	bne	.LBB4_8
.Ltmp60:
@ %bb.1:
	@DEBUG_VALUE: HAL_FLASHEx_ProgramParallelHalfPage:status <- $r0
	@DEBUG_VALUE: HAL_FLASHEx_ProgramParallelHalfPage:Address1 <- $r7
	@DEBUG_VALUE: HAL_FLASHEx_ProgramParallelHalfPage:count <- 0
	@DEBUG_VALUE: HAL_FLASHEx_ProgramParallelHalfPage:pBuffer1 <- $r6
	@DEBUG_VALUE: HAL_FLASHEx_ProgramParallelHalfPage:Address2 <- $r5
	@DEBUG_VALUE: HAL_FLASHEx_ProgramParallelHalfPage:pBuffer2 <- $r4
	.loc	4 0 6 is_stmt 0                 @ ../Drivers/STM32L0xx_HAL_Driver/Src/stm32l0xx_hal_flash_ramfunc.c:0:6
	str	r4, [sp, #4]                    @ 4-byte Spill
.Ltmp61:
	@DEBUG_VALUE: HAL_FLASHEx_ProgramParallelHalfPage:pBuffer2 <- [DW_OP_plus_uconst 4] [$sp+0]
	movs	r0, #1
.Ltmp62:
	lsls	r2, r0, #15
	str	r2, [sp, #16]                   @ 4-byte Spill
	ldr	r4, __arm_cp.4_0
.Ltmp63:
	.loc	4 233 5 is_stmt 1               @ ../Drivers/STM32L0xx_HAL_Driver/Src/stm32l0xx_hal_flash_ramfunc.c:233:5
	ldr	r1, [r4]
	orrs	r1, r2
	str	r1, [r4]
	lsls	r1, r0, #10
	.loc	4 234 5                         @ ../Drivers/STM32L0xx_HAL_Driver/Src/stm32l0xx_hal_flash_ramfunc.c:234:5
	str	r1, [sp, #12]                   @ 4-byte Spill
	ldr	r0, [r4]
	orrs	r0, r1
	str	r0, [r4]
	.loc	4 235 5                         @ ../Drivers/STM32L0xx_HAL_Driver/Src/stm32l0xx_hal_flash_ramfunc.c:235:5
	ldr	r0, [r4]
	movs	r1, #8
	str	r1, [sp, #8]                    @ 4-byte Spill
	orrs	r0, r1
	str	r0, [r4]
	.loc	4 238 14                        @ ../Drivers/STM32L0xx_HAL_Driver/Src/stm32l0xx_hal_flash_ramfunc.c:238:14
	bl	FLASHRAM_WaitForLastOperation
.Ltmp64:
	.loc	4 0 14 is_stmt 0                @ ../Drivers/STM32L0xx_HAL_Driver/Src/stm32l0xx_hal_flash_ramfunc.c:0:14
	ldr	r3, [sp, #12]                   @ 4-byte Reload
	ldr	r2, [sp, #16]                   @ 4-byte Reload
.Ltmp65:
	@DEBUG_VALUE: HAL_FLASHEx_ProgramParallelHalfPage:status <- $r0
	.loc	4 239 8 is_stmt 1               @ ../Drivers/STM32L0xx_HAL_Driver/Src/stm32l0xx_hal_flash_ramfunc.c:239:8
	cmp	r0, #0
	bne	.LBB4_7
.Ltmp66:
@ %bb.2:
	@DEBUG_VALUE: HAL_FLASHEx_ProgramParallelHalfPage:pBuffer2 <- [DW_OP_plus_uconst 4] [$sp+0]
	@DEBUG_VALUE: HAL_FLASHEx_ProgramParallelHalfPage:status <- $r0
	@DEBUG_VALUE: HAL_FLASHEx_ProgramParallelHalfPage:Address1 <- $r7
	@DEBUG_VALUE: HAL_FLASHEx_ProgramParallelHalfPage:count <- 0
	@DEBUG_VALUE: HAL_FLASHEx_ProgramParallelHalfPage:pBuffer1 <- $r6
	@DEBUG_VALUE: HAL_FLASHEx_ProgramParallelHalfPage:Address2 <- $r5
	.loc	4 242 7                         @ ../Drivers/STM32L0xx_HAL_Driver/Src/stm32l0xx_hal_flash_ramfunc.c:242:7
	@APP
	mrs	r0, primask
	cpsid i

	@NO_APP
.Ltmp67:
	.loc	4 0 7 is_stmt 0                 @ ../Drivers/STM32L0xx_HAL_Driver/Src/stm32l0xx_hal_flash_ramfunc.c:0:7
	movs	r0, #0
	@DEBUG_VALUE: HAL_FLASHEx_ProgramParallelHalfPage:count <- 0
.Ltmp68:
	@DEBUG_VALUE: HAL_FLASHEx_ProgramParallelHalfPage:pBuffer1 <- undef
.LBB4_3:                                @ =>This Inner Loop Header: Depth=1
	@DEBUG_VALUE: HAL_FLASHEx_ProgramParallelHalfPage:pBuffer2 <- [DW_OP_plus_uconst 4] [$sp+0]
	@DEBUG_VALUE: HAL_FLASHEx_ProgramParallelHalfPage:Address1 <- $r7
	@DEBUG_VALUE: HAL_FLASHEx_ProgramParallelHalfPage:Address2 <- $r5
	@DEBUG_VALUE: HAL_FLASHEx_ProgramParallelHalfPage:pBuffer1 <- [DW_OP_LLVM_arg 0, DW_OP_consts 4, DW_OP_div, DW_OP_consts 4, DW_OP_mul, DW_OP_LLVM_arg 0, DW_OP_plus, DW_OP_stack_value] undef
	@DEBUG_VALUE: HAL_FLASHEx_ProgramParallelHalfPage:count <- [DW_OP_consts 4, DW_OP_div, DW_OP_stack_value] $r0
	.loc	4 248 38 is_stmt 1              @ ../Drivers/STM32L0xx_HAL_Driver/Src/stm32l0xx_hal_flash_ramfunc.c:248:38
	ldr	r1, [r6, r0]
	.loc	4 248 36 is_stmt 0              @ ../Drivers/STM32L0xx_HAL_Driver/Src/stm32l0xx_hal_flash_ramfunc.c:248:36
	str	r1, [r7]
.Ltmp69:
	@DEBUG_VALUE: HAL_FLASHEx_ProgramParallelHalfPage:count <- [DW_OP_consts 4, DW_OP_div, DW_OP_consts 1, DW_OP_plus, DW_OP_stack_value] $r0
	@DEBUG_VALUE: HAL_FLASHEx_ProgramParallelHalfPage:pBuffer1 <- [DW_OP_LLVM_arg 0, DW_OP_consts 4, DW_OP_div, DW_OP_consts 4, DW_OP_mul, DW_OP_consts 4, DW_OP_LLVM_arg 0, DW_OP_plus, DW_OP_plus, DW_OP_stack_value] undef
	.loc	4 245 19 is_stmt 1              @ ../Drivers/STM32L0xx_HAL_Driver/Src/stm32l0xx_hal_flash_ramfunc.c:245:19
	adds	r0, r0, #4
.Ltmp70:
	.loc	4 245 7 is_stmt 0               @ ../Drivers/STM32L0xx_HAL_Driver/Src/stm32l0xx_hal_flash_ramfunc.c:245:7
	cmp	r0, #64
	bne	.LBB4_3
.Ltmp71:
@ %bb.4:
	@DEBUG_VALUE: HAL_FLASHEx_ProgramParallelHalfPage:pBuffer2 <- [DW_OP_plus_uconst 4] [$sp+0]
	@DEBUG_VALUE: HAL_FLASHEx_ProgramParallelHalfPage:Address1 <- $r7
	@DEBUG_VALUE: HAL_FLASHEx_ProgramParallelHalfPage:Address2 <- $r5
	@DEBUG_VALUE: HAL_FLASHEx_ProgramParallelHalfPage:count <- 0
	.loc	4 0 7                           @ ../Drivers/STM32L0xx_HAL_Driver/Src/stm32l0xx_hal_flash_ramfunc.c:0:7
	movs	r0, #0
.Ltmp72:
	@DEBUG_VALUE: HAL_FLASHEx_ProgramParallelHalfPage:pBuffer2 <- undef
	ldr	r2, [sp, #4]                    @ 4-byte Reload
.Ltmp73:
.LBB4_5:                                @ =>This Inner Loop Header: Depth=1
	@DEBUG_VALUE: HAL_FLASHEx_ProgramParallelHalfPage:Address1 <- $r7
	@DEBUG_VALUE: HAL_FLASHEx_ProgramParallelHalfPage:Address2 <- $r5
	@DEBUG_VALUE: HAL_FLASHEx_ProgramParallelHalfPage:pBuffer2 <- [DW_OP_LLVM_arg 0, DW_OP_consts 4, DW_OP_div, DW_OP_consts 4, DW_OP_mul, DW_OP_LLVM_arg 0, DW_OP_plus, DW_OP_stack_value] undef
	@DEBUG_VALUE: HAL_FLASHEx_ProgramParallelHalfPage:count <- [DW_OP_consts 4, DW_OP_div, DW_OP_stack_value] $r0
	.loc	4 258 38 is_stmt 1              @ ../Drivers/STM32L0xx_HAL_Driver/Src/stm32l0xx_hal_flash_ramfunc.c:258:38
	ldr	r1, [r2, r0]
	.loc	4 258 36 is_stmt 0              @ ../Drivers/STM32L0xx_HAL_Driver/Src/stm32l0xx_hal_flash_ramfunc.c:258:36
	str	r1, [r5]
.Ltmp74:
	@DEBUG_VALUE: HAL_FLASHEx_ProgramParallelHalfPage:count <- [DW_OP_consts 4, DW_OP_div, DW_OP_consts 1, DW_OP_plus, DW_OP_stack_value] $r0
	@DEBUG_VALUE: HAL_FLASHEx_ProgramParallelHalfPage:pBuffer2 <- [DW_OP_LLVM_arg 0, DW_OP_consts 4, DW_OP_div, DW_OP_consts 4, DW_OP_mul, DW_OP_consts 4, DW_OP_LLVM_arg 0, DW_OP_plus, DW_OP_plus, DW_OP_stack_value] undef
	.loc	4 255 19 is_stmt 1              @ ../Drivers/STM32L0xx_HAL_Driver/Src/stm32l0xx_hal_flash_ramfunc.c:255:19
	adds	r0, r0, #4
.Ltmp75:
	.loc	4 255 7 is_stmt 0               @ ../Drivers/STM32L0xx_HAL_Driver/Src/stm32l0xx_hal_flash_ramfunc.c:255:7
	cmp	r0, #64
	bne	.LBB4_5
.Ltmp76:
@ %bb.6:
	@DEBUG_VALUE: HAL_FLASHEx_ProgramParallelHalfPage:Address1 <- $r7
	@DEBUG_VALUE: HAL_FLASHEx_ProgramParallelHalfPage:Address2 <- $r5
	.loc	4 264 7 is_stmt 1               @ ../Drivers/STM32L0xx_HAL_Driver/Src/stm32l0xx_hal_flash_ramfunc.c:264:7
	@APP
	cpsie i
	@NO_APP
	.loc	4 267 16                        @ ../Drivers/STM32L0xx_HAL_Driver/Src/stm32l0xx_hal_flash_ramfunc.c:267:16
	bl	FLASHRAM_WaitForLastOperation
.Ltmp77:
	@DEBUG_VALUE: HAL_FLASHEx_ProgramParallelHalfPage:status <- undef
	.loc	4 0 16 is_stmt 0                @ ../Drivers/STM32L0xx_HAL_Driver/Src/stm32l0xx_hal_flash_ramfunc.c:0:16
	ldr	r2, [sp, #16]                   @ 4-byte Reload
	ldr	r3, [sp, #12]                   @ 4-byte Reload
.Ltmp78:
.LBB4_7:
	@DEBUG_VALUE: HAL_FLASHEx_ProgramParallelHalfPage:Address1 <- $r7
	@DEBUG_VALUE: HAL_FLASHEx_ProgramParallelHalfPage:Address2 <- $r5
	@DEBUG_VALUE: HAL_FLASHEx_ProgramParallelHalfPage:status <- $r0
	.loc	4 271 5 is_stmt 1               @ ../Drivers/STM32L0xx_HAL_Driver/Src/stm32l0xx_hal_flash_ramfunc.c:271:5
	ldr	r1, [r4]
	ldr	r5, [sp, #8]                    @ 4-byte Reload
.Ltmp79:
	@DEBUG_VALUE: HAL_FLASHEx_ProgramParallelHalfPage:Address2 <- [DW_OP_LLVM_entry_value 1] $r2
	bics	r1, r5
	str	r1, [r4]
	.loc	4 272 5                         @ ../Drivers/STM32L0xx_HAL_Driver/Src/stm32l0xx_hal_flash_ramfunc.c:272:5
	ldr	r1, [r4]
	bics	r1, r3
	str	r1, [r4]
	.loc	4 273 5                         @ ../Drivers/STM32L0xx_HAL_Driver/Src/stm32l0xx_hal_flash_ramfunc.c:273:5
	ldr	r1, [r4]
	bics	r1, r2
	str	r1, [r4]
.Ltmp80:
.LBB4_8:
	@DEBUG_VALUE: HAL_FLASHEx_ProgramParallelHalfPage:status <- $r0
	@DEBUG_VALUE: HAL_FLASHEx_ProgramParallelHalfPage:Address1 <- $r7
	@DEBUG_VALUE: HAL_FLASHEx_ProgramParallelHalfPage:status <- $r0
	.loc	4 277 3                         @ ../Drivers/STM32L0xx_HAL_Driver/Src/stm32l0xx_hal_flash_ramfunc.c:277:3
	add	sp, #20
	pop	{r4, r5, r6, r7, pc}
.Ltmp81:
	.p2align	2
@ %bb.9:
	.loc	4 0 3 is_stmt 0                 @ ../Drivers/STM32L0xx_HAL_Driver/Src/stm32l0xx_hal_flash_ramfunc.c:0:3
__arm_cp.4_0:
	.long	1073881092                      @ 0x40022004
.Lcpi_end10:
	.size	__arm_cp.4_0, .Lcpi_end10-__arm_cp.4_0
.Lfunc_end4:
	.size	HAL_FLASHEx_ProgramParallelHalfPage, .Lfunc_end4-HAL_FLASHEx_ProgramParallelHalfPage
	.cfi_endproc
	.cantunwind
	.fnend
                                        @ -- End function
	.section	.text.HAL_FLASHEx_HalfPageProgram,"ax",%progbits
	.hidden	HAL_FLASHEx_HalfPageProgram     @ -- Begin function HAL_FLASHEx_HalfPageProgram
	.globl	HAL_FLASHEx_HalfPageProgram
	.p2align	2
	.type	HAL_FLASHEx_HalfPageProgram,%function
	.code	16                              @ @HAL_FLASHEx_HalfPageProgram
	.thumb_func
HAL_FLASHEx_HalfPageProgram:
.Lfunc_begin5:
	.loc	4 304 0 is_stmt 1               @ ../Drivers/STM32L0xx_HAL_Driver/Src/stm32l0xx_hal_flash_ramfunc.c:304:0
	.fnstart
	.cfi_startproc
@ %bb.0:
	@DEBUG_VALUE: HAL_FLASHEx_HalfPageProgram:Address <- $r0
	@DEBUG_VALUE: HAL_FLASHEx_HalfPageProgram:pBuffer <- $r1
	.save	{r4, r5, r6, r7, lr}
	push	{r4, r5, r6, r7, lr}
	.cfi_def_cfa_offset 20
	.cfi_offset lr, -4
	.cfi_offset r7, -8
	.cfi_offset r6, -12
	.cfi_offset r5, -16
	.cfi_offset r4, -20
	.pad	#4
	sub	sp, #4
	.cfi_def_cfa_offset 24
	mov	r4, r1
.Ltmp82:
	@DEBUG_VALUE: HAL_FLASHEx_HalfPageProgram:pBuffer <- $r4
	mov	r5, r0
.Ltmp83:
	@DEBUG_VALUE: HAL_FLASHEx_HalfPageProgram:status <- 0
	@DEBUG_VALUE: HAL_FLASHEx_HalfPageProgram:count <- 0
	@DEBUG_VALUE: HAL_FLASHEx_HalfPageProgram:Address <- $r5
	.loc	4 309 12 prologue_end           @ ../Drivers/STM32L0xx_HAL_Driver/Src/stm32l0xx_hal_flash_ramfunc.c:309:12
	bl	FLASHRAM_WaitForLastOperation
.Ltmp84:
	@DEBUG_VALUE: HAL_FLASHEx_HalfPageProgram:status <- $r0
	.loc	4 311 6                         @ ../Drivers/STM32L0xx_HAL_Driver/Src/stm32l0xx_hal_flash_ramfunc.c:311:6
	cmp	r0, #0
	bne	.LBB5_4
.Ltmp85:
@ %bb.1:
	@DEBUG_VALUE: HAL_FLASHEx_HalfPageProgram:status <- $r0
	@DEBUG_VALUE: HAL_FLASHEx_HalfPageProgram:Address <- $r5
	@DEBUG_VALUE: HAL_FLASHEx_HalfPageProgram:count <- 0
	@DEBUG_VALUE: HAL_FLASHEx_HalfPageProgram:pBuffer <- $r4
	.loc	4 0 6 is_stmt 0                 @ ../Drivers/STM32L0xx_HAL_Driver/Src/stm32l0xx_hal_flash_ramfunc.c:0:6
	movs	r0, #1
.Ltmp86:
	lsls	r1, r0, #10
	ldr	r6, __arm_cp.5_0
.Ltmp87:
	.loc	4 314 5 is_stmt 1               @ ../Drivers/STM32L0xx_HAL_Driver/Src/stm32l0xx_hal_flash_ramfunc.c:314:5
	ldr	r0, [r6]
	str	r1, [sp]                        @ 4-byte Spill
	orrs	r0, r1
	str	r0, [r6]
	.loc	4 315 5                         @ ../Drivers/STM32L0xx_HAL_Driver/Src/stm32l0xx_hal_flash_ramfunc.c:315:5
	ldr	r0, [r6]
	movs	r7, #8
	orrs	r0, r7
	str	r0, [r6]
	.loc	4 318 5                         @ ../Drivers/STM32L0xx_HAL_Driver/Src/stm32l0xx_hal_flash_ramfunc.c:318:5
	@APP
	mrs	r0, primask
	cpsid i

	@NO_APP
	movs	r0, #0
	@DEBUG_VALUE: HAL_FLASHEx_HalfPageProgram:count <- 0
.Ltmp88:
	@DEBUG_VALUE: HAL_FLASHEx_HalfPageProgram:pBuffer <- undef
.LBB5_2:                                @ =>This Inner Loop Header: Depth=1
	@DEBUG_VALUE: HAL_FLASHEx_HalfPageProgram:Address <- $r5
	@DEBUG_VALUE: HAL_FLASHEx_HalfPageProgram:pBuffer <- [DW_OP_LLVM_arg 0, DW_OP_consts 4, DW_OP_div, DW_OP_consts 4, DW_OP_mul, DW_OP_LLVM_arg 0, DW_OP_plus, DW_OP_stack_value] undef
	@DEBUG_VALUE: HAL_FLASHEx_HalfPageProgram:count <- [DW_OP_consts 4, DW_OP_div, DW_OP_stack_value] $r0
	.loc	4 324 35                        @ ../Drivers/STM32L0xx_HAL_Driver/Src/stm32l0xx_hal_flash_ramfunc.c:324:35
	ldr	r1, [r4, r0]
	.loc	4 324 33 is_stmt 0              @ ../Drivers/STM32L0xx_HAL_Driver/Src/stm32l0xx_hal_flash_ramfunc.c:324:33
	str	r1, [r5]
.Ltmp89:
	@DEBUG_VALUE: HAL_FLASHEx_HalfPageProgram:count <- [DW_OP_consts 4, DW_OP_div, DW_OP_consts 1, DW_OP_plus, DW_OP_stack_value] $r0
	@DEBUG_VALUE: HAL_FLASHEx_HalfPageProgram:pBuffer <- [DW_OP_LLVM_arg 0, DW_OP_consts 4, DW_OP_div, DW_OP_consts 4, DW_OP_mul, DW_OP_consts 4, DW_OP_LLVM_arg 0, DW_OP_plus, DW_OP_plus, DW_OP_stack_value] undef
	.loc	4 321 17 is_stmt 1              @ ../Drivers/STM32L0xx_HAL_Driver/Src/stm32l0xx_hal_flash_ramfunc.c:321:17
	adds	r0, r0, #4
.Ltmp90:
	.loc	4 321 5 is_stmt 0               @ ../Drivers/STM32L0xx_HAL_Driver/Src/stm32l0xx_hal_flash_ramfunc.c:321:5
	cmp	r0, #64
	bne	.LBB5_2
.Ltmp91:
@ %bb.3:
	@DEBUG_VALUE: HAL_FLASHEx_HalfPageProgram:Address <- $r5
	.loc	4 330 5 is_stmt 1               @ ../Drivers/STM32L0xx_HAL_Driver/Src/stm32l0xx_hal_flash_ramfunc.c:330:5
	@APP
	cpsie i
	@NO_APP
	.loc	4 333 14                        @ ../Drivers/STM32L0xx_HAL_Driver/Src/stm32l0xx_hal_flash_ramfunc.c:333:14
	bl	FLASHRAM_WaitForLastOperation
.Ltmp92:
	@DEBUG_VALUE: HAL_FLASHEx_HalfPageProgram:status <- undef
	.loc	4 336 5                         @ ../Drivers/STM32L0xx_HAL_Driver/Src/stm32l0xx_hal_flash_ramfunc.c:336:5
	ldr	r1, [r6]
	bics	r1, r7
	str	r1, [r6]
	.loc	4 337 5                         @ ../Drivers/STM32L0xx_HAL_Driver/Src/stm32l0xx_hal_flash_ramfunc.c:337:5
	ldr	r1, [r6]
	ldr	r2, [sp]                        @ 4-byte Reload
	bics	r1, r2
	str	r1, [r6]
.Ltmp93:
.LBB5_4:
	@DEBUG_VALUE: HAL_FLASHEx_HalfPageProgram:Address <- $r5
	@DEBUG_VALUE: HAL_FLASHEx_HalfPageProgram:status <- $r0
	.loc	4 341 3                         @ ../Drivers/STM32L0xx_HAL_Driver/Src/stm32l0xx_hal_flash_ramfunc.c:341:3
	add	sp, #4
	pop	{r4, r5, r6, r7, pc}
.Ltmp94:
	.p2align	2
@ %bb.5:
	.loc	4 0 3 is_stmt 0                 @ ../Drivers/STM32L0xx_HAL_Driver/Src/stm32l0xx_hal_flash_ramfunc.c:0:3
__arm_cp.5_0:
	.long	1073881092                      @ 0x40022004
.Lcpi_end11:
	.size	__arm_cp.5_0, .Lcpi_end11-__arm_cp.5_0
.Lfunc_end5:
	.size	HAL_FLASHEx_HalfPageProgram, .Lfunc_end5-HAL_FLASHEx_HalfPageProgram
	.cfi_endproc
	.cantunwind
	.fnend
                                        @ -- End function
	.section	.text.HAL_FLASHEx_GetError,"ax",%progbits
	.hidden	HAL_FLASHEx_GetError            @ -- Begin function HAL_FLASHEx_GetError
	.globl	HAL_FLASHEx_GetError
	.p2align	2
	.type	HAL_FLASHEx_GetError,%function
	.code	16                              @ @HAL_FLASHEx_GetError
	.thumb_func
HAL_FLASHEx_GetError:
.Lfunc_begin6:
	.loc	4 375 0 is_stmt 1               @ ../Drivers/STM32L0xx_HAL_Driver/Src/stm32l0xx_hal_flash_ramfunc.c:375:0
	.fnstart
	.cfi_startproc
@ %bb.0:
	@DEBUG_VALUE: HAL_FLASHEx_GetError:Error <- $r0
	.loc	4 376 19 prologue_end           @ ../Drivers/STM32L0xx_HAL_Driver/Src/stm32l0xx_hal_flash_ramfunc.c:376:19
	ldr	r1, __arm_cp.6_0
	ldr	r1, [r1, #20]
	.loc	4 376 10 is_stmt 0              @ ../Drivers/STM32L0xx_HAL_Driver/Src/stm32l0xx_hal_flash_ramfunc.c:376:10
	str	r1, [r0]
	movs	r0, #0
.Ltmp95:
	@DEBUG_VALUE: HAL_FLASHEx_GetError:Error <- [DW_OP_LLVM_entry_value 1] $r0
	.loc	4 377 3 is_stmt 1               @ ../Drivers/STM32L0xx_HAL_Driver/Src/stm32l0xx_hal_flash_ramfunc.c:377:3
	bx	lr
.Ltmp96:
	.p2align	2
@ %bb.1:
	.loc	4 0 3 is_stmt 0                 @ ../Drivers/STM32L0xx_HAL_Driver/Src/stm32l0xx_hal_flash_ramfunc.c:0:3
__arm_cp.6_0:
	.long	pFlash
.Lcpi_end12:
	.size	__arm_cp.6_0, .Lcpi_end12-__arm_cp.6_0
.Lfunc_end6:
	.size	HAL_FLASHEx_GetError, .Lfunc_end6-HAL_FLASHEx_GetError
	.cfi_endproc
	.cantunwind
	.fnend
                                        @ -- End function
	.section	".note.GNU-stack","",%progbits
	.eabi_attribute	30, 3	@ Tag_ABI_optimization_goals
	.ARM_attribute	16, 1	@ Tag_AV_eba