	.text
	.syntax unified
	.eabi_attribute	67, "2.09"	@ Tag_conformance
	.cpu	cortex-m0plus
	.eabi_attribute	6, 12	@ Tag_CPU_arch
	.eabi_attribute	7, 77	@ Tag_CPU_arch_profile
	.eabi_attribute	8, 0	@ Tag_ARM_ISA_use
	.eabi_attribute	9, 1	@ Tag_THUMB_ISA_use
	.eabi_attribute	34, 0	@ Tag_CPU_unaligned_access
	.eabi_attribute	17, 1	@ Tag_ABI_PCS_GOT_use
	.eabi_attribute	20, 2	@ Tag_ABI_FP_denormal
	.eabi_attribute	21, 0	@ Tag_ABI_FP_exceptions
	.eabi_attribute	23, 1	@ Tag_ABI_FP_number_model
	.eabi_attribute	24, 1	@ Tag_ABI_align_needed
	.eabi_attribute	25, 1	@ Tag_ABI_align_preserved
	.eabi_attribute	38, 1	@ Tag_ABI_FP_16bit_format
	.eabi_attribute	18, 2	@ Tag_ABI_PCS_wchar_t
	.eabi_attribute	26, 1	@ Tag_ABI_enum_size
	.eabi_attribute	14, 0	@ Tag_ABI_PCS_R9_use
	.file	"stm32l0xx_hal_pwr.c"
	.file	1 "C:\\Users\\ignas\\Downloads\\V2\\V2\\MDK-ARM" "../Drivers/CMSIS/Device/ST/STM32L0xx/Include\\stm32l0xx.h"
	.file	2 "C:\\Keil_v5\\ARM\\ARMCLANG\\Bin\\..\\include" "stdint.h"
	.file	3 "C:\\Users\\ignas\\Downloads\\V2\\V2\\MDK-ARM" "../Drivers/CMSIS/Device/ST/STM32L0xx/Include/stm32l073xx.h"
	.file	4 "C:\\Users\\ignas\\Downloads\\V2\\V2\\MDK-ARM" "../Drivers/CMSIS/Include\\core_cm0plus.h"
	.section	.text.HAL_PWR_DeInit,"ax",%progbits
	.hidden	HAL_PWR_DeInit                  @ -- Begin function HAL_PWR_DeInit
	.globl	HAL_PWR_DeInit
	.p2align	2
	.type	HAL_PWR_DeInit,%function
	.code	16                              @ @HAL_PWR_DeInit
	.thumb_func
HAL_PWR_DeInit:
.Lfunc_begin0:
	.file	5 "C:\\Users\\ignas\\Downloads\\V2\\V2\\MDK-ARM" "../Drivers/STM32L0xx_HAL_Driver/Src/stm32l0xx_hal_pwr.c"
	.loc	5 80 0                          @ ../Drivers/STM32L0xx_HAL_Driver/Src/stm32l0xx_hal_pwr.c:80:0
	.fnstart
	.cfi_sections .debug_frame
	.cfi_startproc
@ %bb.0:
	movs	r0, #1
	lsls	r0, r0, #28
	ldr	r1, __arm_cp.0_0
.Ltmp0:
	.loc	5 81 3 prologue_end             @ ../Drivers/STM32L0xx_HAL_Driver/Src/stm32l0xx_hal_pwr.c:81:3
	ldr	r2, [r1]
	orrs	r2, r0
	str	r2, [r1]
	.loc	5 82 3                          @ ../Drivers/STM32L0xx_HAL_Driver/Src/stm32l0xx_hal_pwr.c:82:3
	ldr	r2, [r1]
	bics	r2, r0
	str	r2, [r1]
	.loc	5 83 1                          @ ../Drivers/STM32L0xx_HAL_Driver/Src/stm32l0xx_hal_pwr.c:83:1
	bx	lr
.Ltmp1:
	.p2align	2
@ %bb.1:
	.loc	5 0 1 is_stmt 0                 @ ../Drivers/STM32L0xx_HAL_Driver/Src/stm32l0xx_hal_pwr.c:0:1
__arm_cp.0_0:
	.long	1073877032                      @ 0x40021028
.Lcpi_end0:
	.size	__arm_cp.0_0, .Lcpi_end0-__arm_cp.0_0
.Lfunc_end0:
	.size	HAL_PWR_DeInit, .Lfunc_end0-HAL_PWR_DeInit
	.cfi_endproc
	.cantunwind
	.fnend
                                        @ -- End function
	.section	.text.HAL_PWR_EnableBkUpAccess,"ax",%progbits
	.hidden	HAL_PWR_EnableBkUpAccess        @ -- Begin function HAL_PWR_EnableBkUpAccess
	.globl	HAL_PWR_EnableBkUpAccess
	.p2align	2
	.type	HAL_PWR_EnableBkUpAccess,%function
	.code	16                              @ @HAL_PWR_EnableBkUpAccess
	.thumb_func
HAL_PWR_EnableBkUpAccess:
.Lfunc_begin1:
	.loc	5 327 0 is_stmt 1               @ ../Drivers/STM32L0xx_HAL_Driver/Src/stm32l0xx_hal_pwr.c:327:0
	.fnstart
	.cfi_startproc
@ %bb.0:
	movs	r0, #1
	lsls	r0, r0, #8
	ldr	r1, __arm_cp.1_0
.Ltmp2:
	.loc	5 329 3 prologue_end            @ ../Drivers/STM32L0xx_HAL_Driver/Src/stm32l0xx_hal_pwr.c:329:3
	ldr	r2, [r1]
	orrs	r2, r0
	str	r2, [r1]
	.loc	5 330 1                         @ ../Drivers/STM32L0xx_HAL_Driver/Src/stm32l0xx_hal_pwr.c:330:1
	bx	lr
.Ltmp3:
	.p2align	2
@ %bb.1:
	.loc	5 0 1 is_stmt 0                 @ ../Drivers/STM32L0xx_HAL_Driver/Src/stm32l0xx_hal_pwr.c:0:1
__arm_cp.1_0:
	.long	1073770496                      @ 0x40007000
.Lcpi_end1:
	.size	__arm_cp.1_0, .Lcpi_end1-__arm_cp.1_0
.Lfunc_end1:
	.size	HAL_PWR_EnableBkUpAccess, .Lfunc_end1-HAL_PWR_EnableBkUpAccess
	.cfi_endproc
	.cantunwind
	.fnend
                                        @ -- End function
	.section	.text.HAL_PWR_DisableBkUpAccess,"ax",%progbits
	.hidden	HAL_PWR_DisableBkUpAccess       @ -- Begin function HAL_PWR_DisableBkUpAccess
	.globl	HAL_PWR_DisableBkUpAccess
	.p2align	2
	.type	HAL_PWR_DisableBkUpAccess,%function
	.code	16                              @ @HAL_PWR_DisableBkUpAccess
	.thumb_func
HAL_PWR_DisableBkUpAccess:
.Lfunc_begin2:
	.loc	5 340 0 is_stmt 1               @ ../Drivers/STM32L0xx_HAL_Driver/Src/stm32l0xx_hal_pwr.c:340:0
	.fnstart
	.cfi_startproc
@ %bb.0:
	movs	r0, #1
	lsls	r0, r0, #8
	ldr	r1, __arm_cp.2_0
.Ltmp4:
	.loc	5 342 3 prologue_end            @ ../Drivers/STM32L0xx_HAL_Driver/Src/stm32l0xx_hal_pwr.c:342:3
	ldr	r2, [r1]
	bics	r2, r0
	str	r2, [r1]
	.loc	5 343 1                         @ ../Drivers/STM32L0xx_HAL_Driver/Src/stm32l0xx_hal_pwr.c:343:1
	bx	lr
.Ltmp5:
	.p2align	2
@ %bb.1:
	.loc	5 0 1 is_stmt 0                 @ ../Drivers/STM32L0xx_HAL_Driver/Src/stm32l0xx_hal_pwr.c:0:1
__arm_cp.2_0:
	.long	1073770496                      @ 0x40007000
.Lcpi_end2:
	.size	__arm_cp.2_0, .Lcpi_end2-__arm_cp.2_0
.Lfunc_end2:
	.size	HAL_PWR_DisableBkUpAccess, .Lfunc_end2-HAL_PWR_DisableBkUpAccess
	.cfi_endproc
	.cantunwind
	.fnend
                                        @ -- End function
	.section	.text.HAL_PWR_ConfigPVD,"ax",%progbits
	.hidden	HAL_PWR_ConfigPVD               @ -- Begin function HAL_PWR_ConfigPVD
	.globl	HAL_PWR_ConfigPVD
	.p2align	2
	.type	HAL_PWR_ConfigPVD,%function
	.code	16                              @ @HAL_PWR_ConfigPVD
	.thumb_func
HAL_PWR_ConfigPVD:
.Lfunc_begin3:
	.loc	5 356 0 is_stmt 1               @ ../Drivers/STM32L0xx_HAL_Driver/Src/stm32l0xx_hal_pwr.c:356:0
	.fnstart
	.cfi_startproc
@ %bb.0:
	@DEBUG_VALUE: HAL_PWR_ConfigPVD:sConfigPVD <- $r0
	ldr	r1, __arm_cp.3_0
.Ltmp6:
	.loc	5 362 3 prologue_end            @ ../Drivers/STM32L0xx_HAL_Driver/Src/stm32l0xx_hal_pwr.c:362:3
	ldr	r2, [r1]
	movs	r3, #224
	bics	r2, r3
	ldr	r3, [r0]
	orrs	r3, r2
	str	r3, [r1]
	ldr	r1, __arm_cp.3_1
	.loc	5 365 3                         @ ../Drivers/STM32L0xx_HAL_Driver/Src/stm32l0xx_hal_pwr.c:365:3
	ldr	r2, [r1, #4]
	ldr	r3, __arm_cp.3_2
	ands	r2, r3
	str	r2, [r1, #4]
	.loc	5 366 3                         @ ../Drivers/STM32L0xx_HAL_Driver/Src/stm32l0xx_hal_pwr.c:366:3
	ldr	r2, [r1]
	ands	r2, r3
	str	r2, [r1]
	.loc	5 367 3                         @ ../Drivers/STM32L0xx_HAL_Driver/Src/stm32l0xx_hal_pwr.c:367:3
	ldr	r2, [r1, #12]
	ands	r2, r3
	str	r2, [r1, #12]
	.loc	5 368 3                         @ ../Drivers/STM32L0xx_HAL_Driver/Src/stm32l0xx_hal_pwr.c:368:3
	ldr	r2, [r1, #8]
	ands	r2, r3
	str	r2, [r1, #8]
	movs	r2, #1
	lsls	r2, r2, #16
.Ltmp7:
	.loc	5 371 19                        @ ../Drivers/STM32L0xx_HAL_Driver/Src/stm32l0xx_hal_pwr.c:371:19
	ldr	r0, [r0, #4]
.Ltmp8:
	@DEBUG_VALUE: HAL_PWR_ConfigPVD:sConfigPVD <- [DW_OP_LLVM_entry_value 1] $r0
	.loc	5 371 6 is_stmt 0               @ ../Drivers/STM32L0xx_HAL_Driver/Src/stm32l0xx_hal_pwr.c:371:6
	lsls	r3, r0, #15
	bpl	.LBB3_2
.Ltmp9:
@ %bb.1:
	@DEBUG_VALUE: HAL_PWR_ConfigPVD:sConfigPVD <- [DW_OP_LLVM_entry_value 1] $r0
	.loc	5 373 5 is_stmt 1               @ ../Drivers/STM32L0xx_HAL_Driver/Src/stm32l0xx_hal_pwr.c:373:5
	ldr	r3, [r1]
	orrs	r3, r2
	str	r3, [r1]
.Ltmp10:
.LBB3_2:
	@DEBUG_VALUE: HAL_PWR_ConfigPVD:sConfigPVD <- [DW_OP_LLVM_entry_value 1] $r0
	.loc	5 377 6                         @ ../Drivers/STM32L0xx_HAL_Driver/Src/stm32l0xx_hal_pwr.c:377:6
	lsls	r3, r0, #14
	bpl	.LBB3_4
.Ltmp11:
@ %bb.3:
	@DEBUG_VALUE: HAL_PWR_ConfigPVD:sConfigPVD <- [DW_OP_LLVM_entry_value 1] $r0
	.loc	5 379 5                         @ ../Drivers/STM32L0xx_HAL_Driver/Src/stm32l0xx_hal_pwr.c:379:5
	ldr	r3, [r1, #4]
	orrs	r3, r2
	str	r3, [r1, #4]
.Ltmp12:
.LBB3_4:
	@DEBUG_VALUE: HAL_PWR_ConfigPVD:sConfigPVD <- [DW_OP_LLVM_entry_value 1] $r0
	.loc	5 383 6                         @ ../Drivers/STM32L0xx_HAL_Driver/Src/stm32l0xx_hal_pwr.c:383:6
	lsls	r3, r0, #31
	beq	.LBB3_6
.Ltmp13:
@ %bb.5:
	@DEBUG_VALUE: HAL_PWR_ConfigPVD:sConfigPVD <- [DW_OP_LLVM_entry_value 1] $r0
	.loc	5 385 5                         @ ../Drivers/STM32L0xx_HAL_Driver/Src/stm32l0xx_hal_pwr.c:385:5
	ldr	r3, [r1, #8]
	orrs	r3, r2
	str	r3, [r1, #8]
.Ltmp14:
.LBB3_6:
	@DEBUG_VALUE: HAL_PWR_ConfigPVD:sConfigPVD <- [DW_OP_LLVM_entry_value 1] $r0
	.loc	5 388 6                         @ ../Drivers/STM32L0xx_HAL_Driver/Src/stm32l0xx_hal_pwr.c:388:6
	lsls	r0, r0, #30
	bpl	.LBB3_8
.Ltmp15:
@ %bb.7:
	@DEBUG_VALUE: HAL_PWR_ConfigPVD:sConfigPVD <- [DW_OP_LLVM_entry_value 1] $r0
	.loc	5 390 5                         @ ../Drivers/STM32L0xx_HAL_Driver/Src/stm32l0xx_hal_pwr.c:390:5
	ldr	r0, [r1, #12]
	orrs	r0, r2
	str	r0, [r1, #12]
.Ltmp16:
.LBB3_8:
	@DEBUG_VALUE: HAL_PWR_ConfigPVD:sConfigPVD <- [DW_OP_LLVM_entry_value 1] $r0
	.loc	5 392 1                         @ ../Drivers/STM32L0xx_HAL_Driver/Src/stm32l0xx_hal_pwr.c:392:1
	bx	lr
.Ltmp17:
	.p2align	2
@ %bb.9:
	.loc	5 0 1 is_stmt 0                 @ ../Drivers/STM32L0xx_HAL_Driver/Src/stm32l0xx_hal_pwr.c:0:1
__arm_cp.3_0:
	.long	1073770496                      @ 0x40007000
.Lcpi_end3:
	.size	__arm_cp.3_0, .Lcpi_end3-__arm_cp.3_0
__arm_cp.3_1:
	.long	1073808384                      @ 0x40010400
.Lcpi_end4:
	.size	__arm_cp.3_1, .Lcpi_end4-__arm_cp.3_1
__arm_cp.3_2:
	.long	4294901759                      @ 0xfffeffff
.Lcpi_end5:
	.size	__arm_cp.3_2, .Lcpi_end5-__arm_cp.3_2
.Lfunc_end3:
	.size	HAL_PWR_ConfigPVD, .Lfunc_end3-HAL_PWR_ConfigPVD
	.cfi_endproc
	.cantunwind
	.fnend
                                        @ -- End function
	.section	.text.HAL_PWR_EnablePVD,"ax",%progbits
	.hidden	HAL_PWR_EnablePVD               @ -- Begin function HAL_PWR_EnablePVD
	.globl	HAL_PWR_EnablePVD
	.p2align	2
	.type	HAL_PWR_EnablePVD,%function
	.code	16                              @ @HAL_PWR_EnablePVD
	.thumb_func
HAL_PWR_EnablePVD:
.Lfunc_begin4:
	.loc	5 399 0 is_stmt 1               @ ../Drivers/STM32L0xx_HAL_Driver/Src/stm32l0xx_hal_pwr.c:399:0
	.fnstart
	.cfi_startproc
@ %bb.0:
	ldr	r0, __arm_cp.4_0
.Ltmp18:
	.loc	5 401 3 prologue_end            @ ../Drivers/STM32L0xx_HAL_Driver/Src/stm32l0xx_hal_pwr.c:401:3
	ldr	r1, [r0]
	movs	r2, #16
	orrs	r2, r1
	str	r2, [r0]
	.loc	5 402 1                         @ ../Drivers/STM32L0xx_HAL_Driver/Src/stm32l0xx_hal_pwr.c:402:1
	bx	lr
.Ltmp19:
	.p2align	2
@ %bb.1:
	.loc	5 0 1 is_stmt 0                 @ ../Drivers/STM32L0xx_HAL_Driver/Src/stm32l0xx_hal_pwr.c:0:1
__arm_cp.4_0:
	.long	1073770496                      @ 0x40007000
.Lcpi_end6:
	.size	__arm_cp.4_0, .Lcpi_end6-__arm_cp.4_0
.Lfunc_end4:
	.size	HAL_PWR_EnablePVD, .Lfunc_end4-HAL_PWR_EnablePVD
	.cfi_endproc
	.cantunwind
	.fnend
                                        @ -- End function
	.section	.text.HAL_PWR_DisablePVD,"ax",%progbits
	.hidden	HAL_PWR_DisablePVD              @ -- Begin function HAL_PWR_DisablePVD
	.globl	HAL_PWR_DisablePVD
	.p2align	2
	.type	HAL_PWR_DisablePVD,%function
	.code	16                              @ @HAL_PWR_DisablePVD
	.thumb_func
HAL_PWR_DisablePVD:
.Lfunc_begin5:
	.loc	5 409 0 is_stmt 1               @ ../Drivers/STM32L0xx_HAL_Driver/Src/stm32l0xx_hal_pwr.c:409:0
	.fnstart
	.cfi_startproc
@ %bb.0:
	ldr	r0, __arm_cp.5_0
.Ltmp20:
	.loc	5 411 3 prologue_end            @ ../Drivers/STM32L0xx_HAL_Driver/Src/stm32l0xx_hal_pwr.c:411:3
	ldr	r1, [r0]
	movs	r2, #16
	bics	r1, r2
	str	r1, [r0]
	.loc	5 412 1                         @ ../Drivers/STM32L0xx_HAL_Driver/Src/stm32l0xx_hal_pwr.c:412:1
	bx	lr
.Ltmp21:
	.p2align	2
@ %bb.1:
	.loc	5 0 1 is_stmt 0                 @ ../Drivers/STM32L0xx_HAL_Driver/Src/stm32l0xx_hal_pwr.c:0:1
__arm_cp.5_0:
	.long	1073770496                      @ 0x40007000
.Lcpi_end7:
	.size	__arm_cp.5_0, .Lcpi_end7-__arm_cp.5_0
.Lfunc_end5:
	.size	HAL_PWR_DisablePVD, .Lfunc_end5-HAL_PWR_DisablePVD
	.cfi_endproc
	.cantunwind
	.fnend
                                        @ -- End function
	.section	.text.HAL_PWR_EnableWakeUpPin,"ax",%progbits
	.hidden	HAL_PWR_EnableWakeUpPin         @ -- Begin function HAL_PWR_EnableWakeUpPin
	.globl	HAL_PWR_EnableWakeUpPin
	.p2align	2
	.type	HAL_PWR_EnableWakeUpPin,%function
	.code	16                              @ @HAL_PWR_EnableWakeUpPin
	.thumb_func
HAL_PWR_EnableWakeUpPin:
.Lfunc_begin6:
	.loc	5 425 0 is_stmt 1               @ ../Drivers/STM32L0xx_HAL_Driver/Src/stm32l0xx_hal_pwr.c:425:0
	.fnstart
	.cfi_startproc
@ %bb.0:
	@DEBUG_VALUE: HAL_PWR_EnableWakeUpPin:WakeUpPinx <- $r0
	ldr	r1, __arm_cp.6_0
.Ltmp22:
	.loc	5 429 3 prologue_end            @ ../Drivers/STM32L0xx_HAL_Driver/Src/stm32l0xx_hal_pwr.c:429:3
	ldr	r2, [r1]
	orrs	r2, r0
	str	r2, [r1]
	.loc	5 430 1                         @ ../Drivers/STM32L0xx_HAL_Driver/Src/stm32l0xx_hal_pwr.c:430:1
	bx	lr
.Ltmp23:
	.p2align	2
@ %bb.1:
	.loc	5 0 1 is_stmt 0                 @ ../Drivers/STM32L0xx_HAL_Driver/Src/stm32l0xx_hal_pwr.c:0:1
__arm_cp.6_0:
	.long	1073770500                      @ 0x40007004
.Lcpi_end8:
	.size	__arm_cp.6_0, .Lcpi_end8-__arm_cp.6_0
.Lfunc_end6:
	.size	HAL_PWR_EnableWakeUpPin, .Lfunc_end6-HAL_PWR_EnableWakeUpPin
	.cfi_endproc
	.cantunwind
	.fnend
                                        @ -- End function
	.section	.text.HAL_PWR_DisableWakeUpPin,"ax",%progbits
	.hidden	HAL_PWR_DisableWakeUpPin        @ -- Begin function HAL_PWR_DisableWakeUpPin
	.globl	HAL_PWR_DisableWakeUpPin
	.p2align	2
	.type	HAL_PWR_DisableWakeUpPin,%function
	.code	16                              @ @HAL_PWR_DisableWakeUpPin
	.thumb_func
HAL_PWR_DisableWakeUpPin:
.Lfunc_begin7:
	.loc	5 442 0 is_stmt 1               @ ../Drivers/STM32L0xx_HAL_Driver/Src/stm32l0xx_hal_pwr.c:442:0
	.fnstart
	.cfi_startproc
@ %bb.0:
	@DEBUG_VALUE: HAL_PWR_DisableWakeUpPin:WakeUpPinx <- $r0
	ldr	r1, __arm_cp.7_0
.Ltmp24:
	.loc	5 446 3 prologue_end            @ ../Drivers/STM32L0xx_HAL_Driver/Src/stm32l0xx_hal_pwr.c:446:3
	ldr	r2, [r1]
	bics	r2, r0
	str	r2, [r1]
	.loc	5 447 1                         @ ../Drivers/STM32L0xx_HAL_Driver/Src/stm32l0xx_hal_pwr.c:447:1
	bx	lr
.Ltmp25:
	.p2align	2
@ %bb.1:
	.loc	5 0 1 is_stmt 0                 @ ../Drivers/STM32L0xx_HAL_Driver/Src/stm32l0xx_hal_pwr.c:0:1
__arm_cp.7_0:
	.long	1073770500                      @ 0x40007004
.Lcpi_end9:
	.size	__arm_cp.7_0, .Lcpi_end9-__arm_cp.7_0
.Lfunc_end7:
	.size	HAL_PWR_DisableWakeUpPin, .Lfunc_end7-HAL_PWR_DisableWakeUpPin
	.cfi_endproc
	.cantunwind
	.fnend
                                        @ -- End function
	.section	.text.HAL_PWR_EnterSLEEPMode,"ax",%progbits
	.hidden	HAL_PWR_EnterSLEEPMode          @ -- Begin function HAL_PWR_EnterSLEEPMode
	.globl	HAL_PWR_EnterSLEEPMode
	.p2align	2
	.type	HAL_PWR_EnterSLEEPMode,%function
	.code	16                              @ @HAL_PWR_EnterSLEEPMode
	.thumb_func
HAL_PWR_EnterSLEEPMode:
.Lfunc_begin8:
	.loc	5 465 0 is_stmt 1               @ ../Drivers/STM32L0xx_HAL_Driver/Src/stm32l0xx_hal_pwr.c:465:0
	.fnstart
	.cfi_startproc
@ %bb.0:
	@DEBUG_VALUE: HAL_PWR_EnterSLEEPMode:Regulator <- $r0
	@DEBUG_VALUE: HAL_PWR_EnterSLEEPMode:SLEEPEntry <- $r1
	.save	{r4, r5, r6, lr}
	push	{r4, r5, r6, lr}
	.cfi_def_cfa_offset 16
	.cfi_offset lr, -4
	.cfi_offset r6, -8
	.cfi_offset r5, -12
	.cfi_offset r4, -16
	movs	r2, #1
	lsls	r3, r2, #9
	ldr	r2, __arm_cp.8_0
.Ltmp26:
	@DEBUG_VALUE: HAL_PWR_EnterSLEEPMode:tmpreg <- 0
	.loc	5 475 12 prologue_end           @ ../Drivers/STM32L0xx_HAL_Driver/Src/stm32l0xx_hal_pwr.c:475:12
	ldr	r4, [r2]
	ands	r4, r3
.Ltmp27:
	@DEBUG_VALUE: HAL_PWR_EnterSLEEPMode:vrefinbit <- undef
	@DEBUG_VALUE: HAL_PWR_EnterSLEEPMode:ulpbit <- $r4
	.loc	5 477 14                        @ ../Drivers/STM32L0xx_HAL_Driver/Src/stm32l0xx_hal_pwr.c:477:14
	lsrs	r5, r4, #9
	ldr	r4, __arm_cp.8_1
.Ltmp28:
	.loc	5 476 15                        @ ../Drivers/STM32L0xx_HAL_Driver/Src/stm32l0xx_hal_pwr.c:476:15
	ldr	r4, [r4]
.Ltmp29:
	.loc	5 477 20                        @ ../Drivers/STM32L0xx_HAL_Driver/Src/stm32l0xx_hal_pwr.c:477:20
	ands	r4, r5
	cmp	r4, #1
	bne	.LBB8_2
.Ltmp30:
@ %bb.1:
	@DEBUG_VALUE: HAL_PWR_EnterSLEEPMode:tmpreg <- 0
	@DEBUG_VALUE: HAL_PWR_EnterSLEEPMode:SLEEPEntry <- $r1
	@DEBUG_VALUE: HAL_PWR_EnterSLEEPMode:Regulator <- $r0
	.loc	5 479 5                         @ ../Drivers/STM32L0xx_HAL_Driver/Src/stm32l0xx_hal_pwr.c:479:5
	ldr	r5, [r2]
	bics	r5, r3
	str	r5, [r2]
.Ltmp31:
.LBB8_2:
	@DEBUG_VALUE: HAL_PWR_EnterSLEEPMode:tmpreg <- 0
	@DEBUG_VALUE: HAL_PWR_EnterSLEEPMode:SLEEPEntry <- $r1
	@DEBUG_VALUE: HAL_PWR_EnterSLEEPMode:Regulator <- $r0
	.loc	5 483 17                        @ ../Drivers/STM32L0xx_HAL_Driver/Src/stm32l0xx_hal_pwr.c:483:17
	ldr	r5, [r2]
.Ltmp32:
	@DEBUG_VALUE: HAL_PWR_EnterSLEEPMode:tmpreg <- $r5
	.loc	5 0 17 is_stmt 0                @ ../Drivers/STM32L0xx_HAL_Driver/Src/stm32l0xx_hal_pwr.c:0:17
	movs	r6, #3
	.loc	5 486 3 is_stmt 1               @ ../Drivers/STM32L0xx_HAL_Driver/Src/stm32l0xx_hal_pwr.c:486:3
	bics	r5, r6
.Ltmp33:
	@DEBUG_VALUE: HAL_PWR_EnterSLEEPMode:tmpreg <- $r5
	.loc	5 489 3                         @ ../Drivers/STM32L0xx_HAL_Driver/Src/stm32l0xx_hal_pwr.c:489:3
	orrs	r5, r0
.Ltmp34:
	@DEBUG_VALUE: HAL_PWR_EnterSLEEPMode:tmpreg <- $r5
	.loc	5 492 11                        @ ../Drivers/STM32L0xx_HAL_Driver/Src/stm32l0xx_hal_pwr.c:492:11
	str	r5, [r2]
	ldr	r0, __arm_cp.8_2
.Ltmp35:
	@DEBUG_VALUE: HAL_PWR_EnterSLEEPMode:Regulator <- [DW_OP_LLVM_entry_value 1] $r0
	.loc	5 495 3                         @ ../Drivers/STM32L0xx_HAL_Driver/Src/stm32l0xx_hal_pwr.c:495:3
	ldr	r5, [r0]
.Ltmp36:
	.loc	5 0 3 is_stmt 0                 @ ../Drivers/STM32L0xx_HAL_Driver/Src/stm32l0xx_hal_pwr.c:0:3
	movs	r6, #4
	.loc	5 495 3                         @ ../Drivers/STM32L0xx_HAL_Driver/Src/stm32l0xx_hal_pwr.c:495:3
	bics	r5, r6
	str	r5, [r0]
	.loc	5 498 6 is_stmt 1               @ ../Drivers/STM32L0xx_HAL_Driver/Src/stm32l0xx_hal_pwr.c:498:6
	cmp	r1, #1
	bne	.LBB8_4
.Ltmp37:
@ %bb.3:
	@DEBUG_VALUE: HAL_PWR_EnterSLEEPMode:Regulator <- [DW_OP_LLVM_entry_value 1] $r0
	@DEBUG_VALUE: HAL_PWR_EnterSLEEPMode:SLEEPEntry <- $r1
	.loc	5 501 5                         @ ../Drivers/STM32L0xx_HAL_Driver/Src/stm32l0xx_hal_pwr.c:501:5
	wfi
	b	.LBB8_5
.Ltmp38:
.LBB8_4:
	@DEBUG_VALUE: HAL_PWR_EnterSLEEPMode:Regulator <- [DW_OP_LLVM_entry_value 1] $r0
	@DEBUG_VALUE: HAL_PWR_EnterSLEEPMode:SLEEPEntry <- $r1
	.loc	5 506 5                         @ ../Drivers/STM32L0xx_HAL_Driver/Src/stm32l0xx_hal_pwr.c:506:5
	sev
	.loc	5 507 5                         @ ../Drivers/STM32L0xx_HAL_Driver/Src/stm32l0xx_hal_pwr.c:507:5
	wfe
	.loc	5 508 5                         @ ../Drivers/STM32L0xx_HAL_Driver/Src/stm32l0xx_hal_pwr.c:508:5
	wfe
.Ltmp39:
.LBB8_5:
	@DEBUG_VALUE: HAL_PWR_EnterSLEEPMode:Regulator <- [DW_OP_LLVM_entry_value 1] $r0
	@DEBUG_VALUE: HAL_PWR_EnterSLEEPMode:SLEEPEntry <- $r1
	.loc	5 511 20                        @ ../Drivers/STM32L0xx_HAL_Driver/Src/stm32l0xx_hal_pwr.c:511:20
	cmp	r4, #0
	beq	.LBB8_7
.Ltmp40:
@ %bb.6:
	@DEBUG_VALUE: HAL_PWR_EnterSLEEPMode:Regulator <- [DW_OP_LLVM_entry_value 1] $r0
	@DEBUG_VALUE: HAL_PWR_EnterSLEEPMode:SLEEPEntry <- $r1
	.loc	5 513 5                         @ ../Drivers/STM32L0xx_HAL_Driver/Src/stm32l0xx_hal_pwr.c:513:5
	ldr	r0, [r2]
	orrs	r0, r3
	str	r0, [r2]
.Ltmp41:
.LBB8_7:
	@DEBUG_VALUE: HAL_PWR_EnterSLEEPMode:Regulator <- [DW_OP_LLVM_entry_value 1] $r0
	@DEBUG_VALUE: HAL_PWR_EnterSLEEPMode:SLEEPEntry <- $r1
	.loc	5 517 3                         @ ../Drivers/STM32L0xx_HAL_Driver/Src/stm32l0xx_hal_pwr.c:517:3
	nop
	.loc	5 519 1                         @ ../Drivers/STM32L0xx_HAL_Driver/Src/stm32l0xx_hal_pwr.c:519:1
	pop	{r4, r5, r6, pc}
.Ltmp42:
	.p2align	2
@ %bb.8:
	.loc	5 0 1 is_stmt 0                 @ ../Drivers/STM32L0xx_HAL_Driver/Src/stm32l0xx_hal_pwr.c:0:1
__arm_cp.8_0:
	.long	1073770496                      @ 0x40007000
.Lcpi_end10:
	.size	__arm_cp.8_0, .Lcpi_end10-__arm_cp.8_0
__arm_cp.8_1:
	.long	1073807392                      @ 0x40010020
.Lcpi_end11:
	.size	__arm_cp.8_1, .Lcpi_end11-__arm_cp.8_1
__arm_cp.8_2:
	.long	3758157072                      @ 0xe000ed10
.Lcpi_end12:
	.size	__arm_cp.8_2, .Lcpi_end12-__arm_cp.8_2
.Lfunc_end8:
	.size	HAL_PWR_EnterSLEEPMode, .Lfunc_end8-HAL_PWR_EnterSLEEPMode
	.cfi_endproc
	.cantunwind
	.fnend
                                        @ -- End function
	.section	.text.HAL_PWR_EnterSTOPMode,"ax",%progbits
	.hidden	HAL_PWR_EnterSTOPMode           @ -- Begin function HAL_PWR_EnterSTOPMode
	.globl	HAL_PWR_EnterSTOPMode
	.p2align	2
	.type	HAL_PWR_EnterSTOPMode,%function
	.code	16                              @ @HAL_PWR_EnterSTOPMode
	.thumb_func
HAL_PWR_EnterSTOPMode:
.Lfunc_begin9:
	.loc	5 546 0 is_stmt 1               @ ../Drivers/STM32L0xx_HAL_Driver/Src/stm32l0xx_hal_pwr.c:546:0
	.fnstart
	.cfi_startproc
@ %bb.0:
	@DEBUG_VALUE: HAL_PWR_EnterSTOPMode:Regulator <- $r0
	@DEBUG_VALUE: HAL_PWR_EnterSTOPMode:STOPEntry <- $r1
	.save	{r4, r5, r6, lr}
	push	{r4, r5, r6, lr}
	.cfi_def_cfa_offset 16
	.cfi_offset lr, -4
	.cfi_offset r6, -8
	.cfi_offset r5, -12
	.cfi_offset r4, -16
	movs	r2, #1
	lsls	r3, r2, #9
	ldr	r2, __arm_cp.9_0
.Ltmp43:
	@DEBUG_VALUE: HAL_PWR_EnterSTOPMode:tmpreg <- 0
	.loc	5 556 12 prologue_end           @ ../Drivers/STM32L0xx_HAL_Driver/Src/stm32l0xx_hal_pwr.c:556:12
	ldr	r4, [r2]
	ands	r4, r3
.Ltmp44:
	@DEBUG_VALUE: HAL_PWR_EnterSTOPMode:vrefinbit <- undef
	@DEBUG_VALUE: HAL_PWR_EnterSTOPMode:ulpbit <- $r4
	.loc	5 558 14                        @ ../Drivers/STM32L0xx_HAL_Driver/Src/stm32l0xx_hal_pwr.c:558:14
	lsrs	r5, r4, #9
	ldr	r4, __arm_cp.9_1
.Ltmp45:
	.loc	5 557 15                        @ ../Drivers/STM32L0xx_HAL_Driver/Src/stm32l0xx_hal_pwr.c:557:15
	ldr	r4, [r4]
.Ltmp46:
	.loc	5 558 20                        @ ../Drivers/STM32L0xx_HAL_Driver/Src/stm32l0xx_hal_pwr.c:558:20
	ands	r4, r5
	cmp	r4, #1
	bne	.LBB9_2
.Ltmp47:
@ %bb.1:
	@DEBUG_VALUE: HAL_PWR_EnterSTOPMode:tmpreg <- 0
	@DEBUG_VALUE: HAL_PWR_EnterSTOPMode:STOPEntry <- $r1
	@DEBUG_VALUE: HAL_PWR_EnterSTOPMode:Regulator <- $r0
	.loc	5 560 5                         @ ../Drivers/STM32L0xx_HAL_Driver/Src/stm32l0xx_hal_pwr.c:560:5
	ldr	r5, [r2]
	bics	r5, r3
	str	r5, [r2]
.Ltmp48:
.LBB9_2:
	@DEBUG_VALUE: HAL_PWR_EnterSTOPMode:tmpreg <- 0
	@DEBUG_VALUE: HAL_PWR_EnterSTOPMode:STOPEntry <- $r1
	@DEBUG_VALUE: HAL_PWR_EnterSTOPMode:Regulator <- $r0
	.loc	5 564 17                        @ ../Drivers/STM32L0xx_HAL_Driver/Src/stm32l0xx_hal_pwr.c:564:17
	ldr	r5, [r2]
.Ltmp49:
	@DEBUG_VALUE: HAL_PWR_EnterSTOPMode:tmpreg <- $r5
	.loc	5 0 17 is_stmt 0                @ ../Drivers/STM32L0xx_HAL_Driver/Src/stm32l0xx_hal_pwr.c:0:17
	movs	r6, #3
	.loc	5 567 3 is_stmt 1               @ ../Drivers/STM32L0xx_HAL_Driver/Src/stm32l0xx_hal_pwr.c:567:3
	bics	r5, r6
.Ltmp50:
	@DEBUG_VALUE: HAL_PWR_EnterSTOPMode:tmpreg <- $r5
	.loc	5 570 3                         @ ../Drivers/STM32L0xx_HAL_Driver/Src/stm32l0xx_hal_pwr.c:570:3
	orrs	r5, r0
.Ltmp51:
	@DEBUG_VALUE: HAL_PWR_EnterSTOPMode:tmpreg <- $r5
	.loc	5 573 11                        @ ../Drivers/STM32L0xx_HAL_Driver/Src/stm32l0xx_hal_pwr.c:573:11
	str	r5, [r2]
	ldr	r0, __arm_cp.9_2
.Ltmp52:
	@DEBUG_VALUE: HAL_PWR_EnterSTOPMode:Regulator <- [DW_OP_LLVM_entry_value 1] $r0
	.loc	5 576 3                         @ ../Drivers/STM32L0xx_HAL_Driver/Src/stm32l0xx_hal_pwr.c:576:3
	ldr	r6, [r0]
	movs	r5, #4
.Ltmp53:
	orrs	r6, r5
	str	r6, [r0]
	.loc	5 579 6                         @ ../Drivers/STM32L0xx_HAL_Driver/Src/stm32l0xx_hal_pwr.c:579:6
	cmp	r1, #1
	bne	.LBB9_4
.Ltmp54:
@ %bb.3:
	@DEBUG_VALUE: HAL_PWR_EnterSTOPMode:Regulator <- [DW_OP_LLVM_entry_value 1] $r0
	@DEBUG_VALUE: HAL_PWR_EnterSTOPMode:STOPEntry <- $r1
	.loc	5 582 5                         @ ../Drivers/STM32L0xx_HAL_Driver/Src/stm32l0xx_hal_pwr.c:582:5
	wfi
	b	.LBB9_5
.Ltmp55:
.LBB9_4:
	@DEBUG_VALUE: HAL_PWR_EnterSTOPMode:Regulator <- [DW_OP_LLVM_entry_value 1] $r0
	@DEBUG_VALUE: HAL_PWR_EnterSTOPMode:STOPEntry <- $r1
	.loc	5 587 5                         @ ../Drivers/STM32L0xx_HAL_Driver/Src/stm32l0xx_hal_pwr.c:587:5
	sev
	.loc	5 588 5                         @ ../Drivers/STM32L0xx_HAL_Driver/Src/stm32l0xx_hal_pwr.c:588:5
	wfe
	.loc	5 589 5                         @ ../Drivers/STM32L0xx_HAL_Driver/Src/stm32l0xx_hal_pwr.c:589:5
	wfe
.Ltmp56:
.LBB9_5:
	@DEBUG_VALUE: HAL_PWR_EnterSTOPMode:Regulator <- [DW_OP_LLVM_entry_value 1] $r0
	@DEBUG_VALUE: HAL_PWR_EnterSTOPMode:STOPEntry <- $r1
	.loc	5 593 3                         @ ../Drivers/STM32L0xx_HAL_Driver/Src/stm32l0xx_hal_pwr.c:593:3
	ldr	r1, [r0]
.Ltmp57:
	@DEBUG_VALUE: HAL_PWR_EnterSTOPMode:STOPEntry <- [DW_OP_LLVM_entry_value 1] $r1
	bics	r1, r5
	str	r1, [r0]
.Ltmp58:
	.loc	5 595 20                        @ ../Drivers/STM32L0xx_HAL_Driver/Src/stm32l0xx_hal_pwr.c:595:20
	cmp	r4, #0
	beq	.LBB9_7
.Ltmp59:
@ %bb.6:
	@DEBUG_VALUE: HAL_PWR_EnterSTOPMode:STOPEntry <- [DW_OP_LLVM_entry_value 1] $r1
	@DEBUG_VALUE: HAL_PWR_EnterSTOPMode:Regulator <- [DW_OP_LLVM_entry_value 1] $r0
	.loc	5 597 5                         @ ../Drivers/STM32L0xx_HAL_Driver/Src/stm32l0xx_hal_pwr.c:597:5
	ldr	r0, [r2]
	orrs	r0, r3
	str	r0, [r2]
.Ltmp60:
.LBB9_7:
	@DEBUG_VALUE: HAL_PWR_EnterSTOPMode:STOPEntry <- [DW_OP_LLVM_entry_value 1] $r1
	@DEBUG_VALUE: HAL_PWR_EnterSTOPMode:Regulator <- [DW_OP_LLVM_entry_value 1] $r0
	.loc	5 599 1                         @ ../Drivers/STM32L0xx_HAL_Driver/Src/stm32l0xx_hal_pwr.c:599:1
	pop	{r4, r5, r6, pc}
.Ltmp61:
	.p2align	2
@ %bb.8:
	.loc	5 0 1 is_stmt 0                 @ ../Drivers/STM32L0xx_HAL_Driver/Src/stm32l0xx_hal_pwr.c:0:1
__arm_cp.9_0:
	.long	1073770496                      @ 0x40007000
.Lcpi_end13:
	.size	__arm_cp.9_0, .Lcpi_end13-__arm_cp.9_0
__arm_cp.9_1:
	.long	1073807392                      @ 0x40010020
.Lcpi_end14:
	.size	__arm_cp.9_1, .Lcpi_end14-__arm_cp.9_1
__arm_cp.9_2:
	.long	3758157072                      @ 0xe000ed10
.Lcpi_end15:
	.size	__arm_cp.9_2, .Lcpi_end15-__arm_cp.9_2
.Lfunc_end9:
	.size	HAL_PWR_EnterSTOPMode, .Lfunc_end9-HAL_PWR_EnterSTOPMode
	.cfi_endproc
	.cantunwind
	.fnend
                                        @ -- End function
	.section	.text.HAL_PWR_EnterSTANDBYMode,"ax",%progbits
	.hidden	HAL_PWR_EnterSTANDBYMode        @ -- Begin function HAL_PWR_EnterSTANDBYMode
	.globl	HAL_PWR_EnterSTANDBYMode
	.p2align	2
	.type	HAL_PWR_EnterSTANDBYMode,%function
	.code	16                              @ @HAL_PWR_EnterSTANDBYMode
	.thumb_func
HAL_PWR_EnterSTANDBYMode:
.Lfunc_begin10:
	.loc	5 615 0 is_stmt 1               @ ../Drivers/STM32L0xx_HAL_Driver/Src/stm32l0xx_hal_pwr.c:615:0
	.fnstart
	.cfi_startproc
@ %bb.0:
	ldr	r0, __arm_cp.10_0
.Ltmp62:
	.loc	5 617 3 prologue_end            @ ../Drivers/STM32L0xx_HAL_Driver/Src/stm32l0xx_hal_pwr.c:617:3
	ldr	r1, [r0]
	movs	r2, #2
	orrs	r2, r1
	str	r2, [r0]
	ldr	r0, __arm_cp.10_1
	.loc	5 620 3                         @ ../Drivers/STM32L0xx_HAL_Driver/Src/stm32l0xx_hal_pwr.c:620:3
	ldr	r1, [r0]
	movs	r2, #4
	orrs	r2, r1
	str	r2, [r0]
	.loc	5 627 3                         @ ../Drivers/STM32L0xx_HAL_Driver/Src/stm32l0xx_hal_pwr.c:627:3
	wfi
	.loc	5 628 1                         @ ../Drivers/STM32L0xx_HAL_Driver/Src/stm32l0xx_hal_pwr.c:628:1
	bx	lr
.Ltmp63:
	.p2align	2
@ %bb.1:
	.loc	5 0 1 is_stmt 0                 @ ../Drivers/STM32L0xx_HAL_Driver/Src/stm32l0xx_hal_pwr.c:0:1
__arm_cp.10_0:
	.long	1073770496                      @ 0x40007000
.Lcpi_end16:
	.size	__arm_cp.10_0, .Lcpi_end16-__arm_cp.10_0
__arm_cp.10_1:
	.long	3758157072                      @ 0xe000ed10
.Lcpi_end17:
	.size	__arm_cp.10_1, .Lcpi_end17-__arm_cp.10_1
.Lfunc_end10:
	.size	HAL_PWR_EnterSTANDBYMode, .Lfunc_end10-HAL_PWR_EnterSTANDBYMode
	.cfi_endproc
	.cantunwind
	.fnend
                                        @ -- End function
	.section	.text.HAL_PWR_EnableSleepOnExit,"ax",%progbits
	.hidden	HAL_PWR_EnableSleepOnExit       @ -- Begin function HAL_PWR_EnableSleepOnExit
	.globl	HAL_PWR_EnableSleepOnExit
	.p2align	2
	.type	HAL_PWR_EnableSleepOnExit,%function
	.code	16                              @ @HAL_PWR_EnableSleepOnExit
	.thumb_func
HAL_PWR_EnableSleepOnExit:
.Lfunc_begin11:
	.loc	5 639 0 is_stmt 1               @ ../Drivers/STM32L0xx_HAL_Driver/Src/stm32l0xx_hal_pwr.c:639:0
	.fnstart
	.cfi_startproc
@ %bb.0:
	ldr	r0, __arm_cp.11_0
.Ltmp64:
	.loc	5 641 3 prologue_end            @ ../Drivers/STM32L0xx_HAL_Driver/Src/stm32l0xx_hal_pwr.c:641:3
	ldr	r1, [r0]
	movs	r2, #2
	orrs	r2, r1
	str	r2, [r0]
	.loc	5 642 1                         @ ../Drivers/STM32L0xx_HAL_Driver/Src/stm32l0xx_hal_pwr.c:642:1
	bx	lr
.Ltmp65:
	.p2align	2
@ %bb.1:
	.loc	5 0 1 is_stmt 0                 @ ../Drivers/STM32L0xx_HAL_Driver/Src/stm32l0xx_hal_pwr.c:0:1
__arm_cp.11_0:
	.long	3758157072                      @ 0xe000ed10
.Lcpi_end18:
	.size	__arm_cp.11_0, .Lcpi_end18-__arm_cp.11_0
.Lfunc_end11:
	.size	HAL_PWR_EnableSleepOnExit, .Lfunc_end11-HAL_PWR_EnableSleepOnExit
	.cfi_endproc
	.cantunwind
	.fnend
                                        @ -- End function
	.section	.text.HAL_PWR_DisableSleepOnExit,"ax",%progbits
	.hidden	HAL_PWR_DisableSleepOnExit      @ -- Begin function HAL_PWR_DisableSleepOnExit
	.globl	HAL_PWR_DisableSleepOnExit
	.p2align	2
	.type	HAL_PWR_DisableSleepOnExit,%function
	.code	16                              @ @HAL_PWR_DisableSleepOnExit
	.thumb_func
HAL_PWR_DisableSleepOnExit:
.Lfunc_begin12:
	.loc	5 652 0 is_stmt 1               @ ../Drivers/STM32L0xx_HAL_Driver/Src/stm32l0xx_hal_pwr.c:652:0
	.fnstart
	.cfi_startproc
@ %bb.0:
	ldr	r0, __arm_cp.12_0
.Ltmp66:
	.loc	5 654 3 prologue_end            @ ../Drivers/STM32L0xx_HAL_Driver/Src/stm32l0xx_hal_pwr.c:654:3
	ldr	r1, [r0]
	movs	r2, #2
	bics	r1, r2
	str	r1, [r0]
	.loc	5 655 1                         @ ../Drivers/STM32L0xx_HAL_Driver/Src/stm32l0xx_hal_pwr.c:655:1
	bx	lr
.Ltmp67:
	.p2align	2
@ %bb.1:
	.loc	5 0 1 is_stmt 0                 @ ../Drivers/STM32L0xx_HAL_Driver/Src/stm32l0xx_hal_pwr.c:0:1
__arm_cp.12_0:
	.long	3758157072                      @ 0xe000ed10
.Lcpi_end19:
	.size	__arm_cp.12_0, .Lcpi_end19-__arm_cp.12_0
.Lfunc_end12:
	.size	HAL_PWR_DisableSleepOnExit, .Lfunc_end12-HAL_PWR_DisableSleepOnExit
	.cfi_endproc
	.cantunwind
	.fnend
                                        @ -- End function
	.section	.text.HAL_PWR_EnableSEVOnPend,"ax",%progbits
	.hidden	HAL_PWR_EnableSEVOnPend         @ -- Begin function HAL_PWR_EnableSEVOnPend
	.globl	HAL_PWR_EnableSEVOnPend
	.p2align	2
	.type	HAL_PWR_EnableSEVOnPend,%function
	.code	16                              @ @HAL_PWR_EnableSEVOnPend
	.thumb_func
HAL_PWR_EnableSEVOnPend:
.Lfunc_begin13:
	.loc	5 665 0 is_stmt 1               @ ../Drivers/STM32L0xx_HAL_Driver/Src/stm32l0xx_hal_pwr.c:665:0
	.fnstart
	.cfi_startproc
@ %bb.0:
	ldr	r0, __arm_cp.13_0
.Ltmp68:
	.loc	5 667 3 prologue_end            @ ../Drivers/STM32L0xx_HAL_Driver/Src/stm32l0xx_hal_pwr.c:667:3
	ldr	r1, [r0]
	movs	r2, #16
	orrs	r2, r1
	str	r2, [r0]
	.loc	5 668 1                         @ ../Drivers/STM32L0xx_HAL_Driver/Src/stm32l0xx_hal_pwr.c:668:1
	bx	lr
.Ltmp69:
	.p2align	2
@ %bb.1:
	.loc	5 0 1 is_stmt 0                 @ ../Drivers/STM32L0xx_HAL_Driver/Src/stm32l0xx_hal_pwr.c:0:1
__arm_cp.13_0:
	.long	3758157072                      @ 0xe000ed10
.Lcpi_end20:
	.size	__arm_cp.13_0, .Lcpi_end20-__arm_cp.13_0
.Lfunc_end13:
	.size	HAL_PWR_EnableSEVOnPend, .Lfunc_end13-HAL_PWR_EnableSEVOnPend
	.cfi_endproc
	.cantunwind
	.fnend
                                        @ -- End function
	.section	.text.HAL_PWR_DisableSEVOnPend,"ax",%progbits
	.hidden	HAL_PWR_DisableSEVOnPend        @ -- Begin function HAL_PWR_DisableSEVOnPend
	.globl	HAL_PWR_DisableSEVOnPend
	.p2align	2
	.type	HAL_PWR_DisableSEVOnPend,%function
	.code	16                              @ @HAL_PWR_DisableSEVOnPend
	.thumb_func
HAL_PWR_DisableSEVOnPend:
.Lfunc_begin14:
	.loc	5 678 0 is_stmt 1               @ ../Drivers/STM32L0xx_HAL_Driver/Src/stm32l0xx_hal_pwr.c:678:0
	.fnstart
	.cfi_startproc
@ %bb.0:
	ldr	r0, __arm_cp.14_0
.Ltmp70:
	.loc	5 680 3 prologue_end            @ ../Drivers/STM32L0xx_HAL_Driver/Src/stm32l0xx_hal_pwr.c:680:3
	ldr	r1, [r0]
	movs	r2, #16
	bics	r1, r2
	str	r1, [r0]
	.loc	5 681 1                         @ ../Drivers/STM32L0xx_HAL_Driver/Src/stm32l0xx_hal_pwr.c:681:1
	bx	lr
.Ltmp71:
	.p2align	2
@ %bb.1:
	.loc	5 0 1 is_stmt 0                 @ ../Drivers/STM32L0xx_HAL_Driver/Src/stm32l0xx_hal_pwr.c:0:1
__arm_cp.14_0:
	.long	3758157072                      @ 0xe000ed10
.Lcpi_end21:
	.size	__arm_cp.14_0, .Lcpi_end21-__arm_cp.14_0
.Lfunc_end14:
	.size	HAL_PWR_DisableSEVOnPend, .Lfunc_end14-HAL_PWR_DisableSEVOnPend
	.cfi_endproc
	.cantunwind
	.fnend
                                        @ -- End function
	.section	.text.HAL_PWR_PVD_IRQHandler,"ax",%progbits
	.hidden	HAL_PWR_PVD_IRQHandler          @ -- Begin function HAL_PWR_PVD_IRQHandler
	.globl	HAL_PWR_PVD_IRQHandler
	.p2align	2
	.type	HAL_PWR_PVD_IRQHandler,%function
	.code	16                              @ @HAL_PWR_PVD_IRQHandler
	.thumb_func
HAL_PWR_PVD_IRQHandler:
.Lfunc_begin15:
	.loc	5 690 0 is_stmt 1               @ ../Drivers/STM32L0xx_HAL_Driver/Src/stm32l0xx_hal_pwr.c:690:0
	.fnstart
	.cfi_startproc
@ %bb.0:
	.save	{r4, r5, r7, lr}
	push	{r4, r5, r7, lr}
	.cfi_def_cfa_offset 16
	.cfi_offset lr, -4
	.cfi_offset r7, -8
	.cfi_offset r5, -12
	.cfi_offset r4, -16
	ldr	r4, __arm_cp.15_0
.Ltmp72:
	.loc	5 692 6 prologue_end            @ ../Drivers/STM32L0xx_HAL_Driver/Src/stm32l0xx_hal_pwr.c:692:6
	ldr	r0, [r4]
.Ltmp73:
	.loc	5 692 6 is_stmt 0               @ ../Drivers/STM32L0xx_HAL_Driver/Src/stm32l0xx_hal_pwr.c:692:6
	lsls	r0, r0, #15
	bpl	.LBB15_2
@ %bb.1:
	.loc	5 0 6                           @ ../Drivers/STM32L0xx_HAL_Driver/Src/stm32l0xx_hal_pwr.c:0:6
	movs	r0, #1
	lsls	r5, r0, #16
.Ltmp74:
	.loc	5 695 5 is_stmt 1               @ ../Drivers/STM32L0xx_HAL_Driver/Src/stm32l0xx_hal_pwr.c:695:5
	bl	HAL_PWR_PVDCallback
.Ltmp75:
	.loc	5 698 5                         @ ../Drivers/STM32L0xx_HAL_Driver/Src/stm32l0xx_hal_pwr.c:698:5
	str	r5, [r4]
.Ltmp76:
.LBB15_2:
	.loc	5 700 1                         @ ../Drivers/STM32L0xx_HAL_Driver/Src/stm32l0xx_hal_pwr.c:700:1
	pop	{r4, r5, r7, pc}
.Ltmp77:
	.p2align	2
@ %bb.3:
	.loc	5 0 1 is_stmt 0                 @ ../Drivers/STM32L0xx_HAL_Driver/Src/stm32l0xx_hal_pwr.c:0:1
__arm_cp.15_0:
	.long	1073808404                      @ 0x40010414
.Lcpi_end22:
	.size	__arm_cp.15_0, .Lcpi_end22-__arm_cp.15_0
.Lfunc_end15:
	.size	HAL_PWR_PVD_IRQHandler, .Lfunc_end15-HAL_PWR_PVD_IRQHandler
	.cfi_endproc
	.cantunwind
	.fnend
                                        @ -- End function
	.section	.text.HAL_PWR_PVDCallback,"ax",%progbits
	.hidden	HAL_PWR_PVDCallback             @ -- Begin function HAL_PWR_PVDCallback
	.weak	HAL_PWR_PVDCallback
	.p2align	1
	.type	HAL_PWR_PVDCallback,%function
	.code	16                              @ @HAL_PWR_PVDCallback
	.thumb_func
HAL_PWR_PVDCallback:
.Lfunc_begin16:
	.loc	5 707 0 is_stmt 1               @ ../Drivers/STM32L0xx_HAL_Driver/Src/stm32l0xx_hal_pwr.c:707:0
	.fnstart
	.cfi_startproc
@ %bb.0:
	.loc	5 711 1 prologue_end            @ ../Drivers/STM32L0xx_HAL_Driver/Src/stm32l0xx_hal_pwr.c:711:1
	bx	lr
.Ltmp78:
.Lfunc_end16:
	.size	HAL_PWR_PVDCallback, .Lfunc_end16-HAL_PWR_PVDCallback
	.cfi_endproc
	.cantunwind
	.fnend
                                        @ -- End function
	.file	6 "C:\\Users\\ignas\\Downloads\\V2\\V2\\MDK-ARM" "../Drivers/STM32L0xx_HAL_Driver/Inc\\stm32l0xx_hal_pwr.h"
	.section	".note.GNU-stack","",%progbits
	.eabi_attribute	30, 3	@ Tag_ABI_optimization_goals
	.ARM_attribute	16, 1	@ Tag_AV_eba